 GameTest

 Timestamp is 5db30afb (Fri Oct 25 16:47:23 2019)

 Preferred load address is 0000000140000000

 Start         Length     Name                   Class
 0001:00000000 00010000H .textbss                DATA
 0002:00000000 000030e0H .text$di                CODE
 0002:000030e0 000181c0H .text$mn                CODE
 0002:0001b2a0 00001020H .text$mn$00             CODE
 0002:0001c2c0 000015e0H .text$x                 CODE
 0002:0001d8a0 000010e8H .text$yd                CODE
 0003:00000000 00000110H .CRT$XCA                DATA
 0003:00000110 00000110H .CRT$XCAA               DATA
 0003:00000220 00000140H .CRT$XCU                DATA
 0003:00000360 00000110H .CRT$XCZ                DATA
 0003:00000470 00000110H .CRT$XIA                DATA
 0003:00000580 00000110H .CRT$XIAA               DATA
 0003:00000690 00000110H .CRT$XIAC               DATA
 0003:000007a0 00000110H .CRT$XIC                DATA
 0003:000008b0 00000110H .CRT$XIZ                DATA
 0003:000009c0 00000008H .CRT$XLA                DATA
 0003:000009c8 00000008H .CRT$XLZ                DATA
 0003:000009d0 00000110H .CRT$XPA                DATA
 0003:00000ae0 00000110H .CRT$XPZ                DATA
 0003:00000bf0 00000110H .CRT$XTA                DATA
 0003:00000d00 00000110H .CRT$XTZ                DATA
 0003:00000e10 00008718H .rdata                  DATA
 0003:00009528 00000130H .rdata$T                DATA
 0003:00009658 00000348H .rdata$r                DATA
 0003:000099a0 00000190H .rdata$zzzdbg           DATA
 0003:00009b30 00000110H .rtc$IAA                DATA
 0003:00009c40 000001c0H .rtc$IMZ                DATA
 0003:00009e00 00000110H .rtc$IZZ                DATA
 0003:00009f10 00000110H .rtc$TAA                DATA
 0003:0000a020 000001c0H .rtc$TMZ                DATA
 0003:0000a1e0 00000110H .rtc$TZZ                DATA
 0003:0000a2f0 000033c0H .xdata                  DATA
 0003:0000d6b0 00000209H .xdata$x                DATA
 0003:0000d8b9 00000000H .edata                  DATA
 0004:00000000 00000190H .data                   DATA
 0004:00000190 000001d0H .data$r                 DATA
 0004:00000360 00000980H .bss                    DATA
 0005:00000000 000035d0H .pdata                  DATA
 0006:00000000 00000928H .idata$5                DATA
 0006:00000928 000000dcH .idata$2                DATA
 0006:00000a04 00000014H .idata$3                DATA
 0006:00000a18 00000928H .idata$4                DATA
 0006:00001340 00000d4aH .idata$6                DATA
 0007:00000000 000002f9H .msvcjmc                DATA
 0008:00000000 00000104H .tls                    DATA
 0008:00000104 00000104H .tls$                   DATA
 0008:00000208 00000101H .tls$ZZZ                DATA
 0009:00000000 0000011bH .00cfg                  DATA
 000a:00000000 00000170H .rsrc$01                DATA
 000a:00000170 000002ccH .rsrc$02                DATA

  Address         Publics by Value              Rva+Base               Lib:Object

 0000:00000000       __guard_iat_table          0000000000000000     <absolute>
 0000:00000000       ___safe_se_handler_count   0000000000000000     <absolute>
 0000:00000000       __guard_longjmp_table      0000000000000000     <absolute>
 0000:00000000       __volatile_metadata        0000000000000000     <absolute>
 0000:00000000       __hybrid_auxiliary_iat     0000000000000000     <absolute>
 0000:00000000       __guard_iat_count          0000000000000000     <absolute>
 0000:00000000       __dynamic_value_reloc_table 0000000000000000     <absolute>
 0000:00000000       __enclave_config           0000000000000000     <absolute>
 0000:00000000       __guard_fids_count         0000000000000000     <absolute>
 0000:00000000       ___safe_se_handler_table   0000000000000000     <absolute>
 0000:00000000       __guard_fids_table         0000000000000000     <absolute>
 0000:00000000       __hybrid_code_map          0000000000000000     <absolute>
 0000:00000000       __AbsoluteZero             0000000000000000     <absolute>
 0000:00000000       __guard_longjmp_count      0000000000000000     <absolute>
 0000:00000000       __hybrid_code_map_count    0000000000000000     <absolute>
 0000:00000100       __guard_flags              0000000000000100     <absolute>
 0000:00000000       __ImageBase                0000000140000000     <linker-defined>
 0001:00000000       __enc$textbss$begin        0000000140001000     <linker-defined>
 0001:00010000       __enc$textbss$end          0000000140011000     <linker-defined>
 0002:000030e0       ?areColliding@@YA_NAEBUAABB@@0@Z 00000001400140e0 f   AABB.obj
 0002:000031c0       __JustMyCode_Default       00000001400141c0 f i AABB.obj
 0002:000031d0       ??0Door@@QEAA@MMMM@Z       00000001400141d0 f   Door.obj
 0002:00003370       ??1Door@@QEAA@XZ           0000000140014370 f   Door.obj
 0002:000033d0       ?IsInside@Door@@QEAA_NMM@Z 00000001400143d0 f   Door.obj
 0002:000034a0       ?Render@Door@@QEAAXXZ      00000001400144a0 f   Door.obj
 0002:00003710       ?StartEndGame@Door@@QEAAXXZ 0000000140014710 f   Door.obj
 0002:000037c0       ?Update@Door@@QEAAXM@Z     00000001400147c0 f   Door.obj
 0002:00003900       ??$?0$$V@?$_Compressed_pair@V?$allocator@VLaserWall@@@std@@V?$_Vector_val@U?$_Simple_types@VLaserWall@@@std@@@2@$00@std@@QEAA@U_Zero_then_variadic_args_t@1@@Z 0000000140014900 f i GameTest.obj
 0002:00003980       ??$?0VLaserWall@@@?$allocator@U_Container_proxy@std@@@std@@QEAA@AEBV?$allocator@VLaserWall@@@1@@Z 0000000140014980 f i GameTest.obj
 0002:000039e0       ??$_Alloc_proxy@V?$allocator@U_Container_proxy@std@@@std@@@_Container_base12@std@@QEAAX$$QEAV?$allocator@U_Container_proxy@std@@@1@@Z 00000001400149e0 f i GameTest.obj
 0002:00003ab0       ??$_Allocate@$0BA@U_Default_allocate_traits@std@@$0A@@std@@YAPEAX_K@Z 0000000140014ab0 f i GameTest.obj
 0002:00003b50       ??$_Allocate_manually_vector_aligned@U_Default_allocate_traits@std@@@std@@YAPEAX_K@Z 0000000140014b50 f i GameTest.obj
 0002:00003cd0       ??$_Construct_in_place@U_Container_proxy@std@@PEAU_Container_base12@2@@std@@YAXAEAU_Container_proxy@0@$$QEAPEAU_Container_base12@0@@Z 0000000140014cd0 f i GameTest.obj
 0002:00003d80       ??$_Deallocate@$0BA@$0A@@std@@YAXPEAX_K@Z 0000000140014d80 f i GameTest.obj
 0002:00003e20       ??$_Deallocate_plain@V?$allocator@U_Container_proxy@std@@@std@@@std@@YAXAEAV?$allocator@U_Container_proxy@std@@@0@QEAU_Container_proxy@0@@Z 0000000140014e20 f i GameTest.obj
 0002:00003ea0       ??$_Delete_plain_internal@V?$allocator@U_Container_proxy@std@@@std@@@std@@YAXAEAV?$allocator@U_Container_proxy@std@@@0@QEAU_Container_proxy@0@@Z 0000000140014ea0 f i GameTest.obj
 0002:00003f10       ??$_Destroy_range@V?$allocator@VLaserWall@@@std@@@std@@YAXPEAVLaserWall@@QEAV1@AEAV?$allocator@VLaserWall@@@0@@Z 0000000140014f10 f i GameTest.obj
 0002:00003fd0       ??$_Emplace_back@VLaserWall@@@?$_Uninitialized_backout_al@V?$allocator@VLaserWall@@@std@@@std@@QEAAX$$QEAVLaserWall@@@Z 0000000140014fd0 f i GameTest.obj
 0002:000040a0       ??$_Emplace_back_with_unused_capacity@AEBVLaserWall@@@?$vector@VLaserWall@@V?$allocator@VLaserWall@@@std@@@std@@AEAA@AEBVLaserWall@@@Z 00000001400150a0 f i GameTest.obj
 0002:000041c0       ??$_Emplace_reallocate@AEBVLaserWall@@@?$vector@VLaserWall@@V?$allocator@VLaserWall@@@std@@@std@@QEAAPEAVLaserWall@@QEAV2@AEBV2@@Z 00000001400151c0 f i GameTest.obj
 0002:000044d0       ??$_Get_size_of_n@$0BA@@std@@YA_K_K@Z 00000001400154d0 f i GameTest.obj
 0002:00004560       ??$_Get_unwrapped@VLaserWall@@@std@@YAPEAVLaserWall@@QEAV1@@Z 0000000140015560 f i GameTest.obj
 0002:000045c0       ??$_Min_value@_K@std@@YAAEB_KAEB_K0@Z 00000001400155c0 f i GameTest.obj
 0002:00004680       ??$_Unfancy@U_Container_proxy@std@@@std@@YAPEAU_Container_proxy@0@PEAU10@@Z 0000000140015680 f i GameTest.obj
 0002:000046e0       ??$_Unfancy@VLaserWall@@@std@@YAPEAVLaserWall@@PEAV1@@Z 00000001400156e0 f i GameTest.obj
 0002:00004740       ??$_Uninitialized_move@PEAVLaserWall@@V?$allocator@VLaserWall@@@std@@@std@@YAPEAVLaserWall@@QEAV1@0PEAV1@AEAV?$allocator@VLaserWall@@@0@@Z 0000000140015740 f i GameTest.obj
 0002:000048a0       ??$addressof@U_Container_proxy@std@@@std@@YAPEAU_Container_proxy@0@AEAU10@@Z 00000001400158a0 f i GameTest.obj
 0002:00004900       ??$construct@VLaserWall@@AEBV1@@?$_Default_allocator_traits@V?$allocator@VLaserWall@@@std@@@std@@SAXAEAV?$allocator@VLaserWall@@@1@QEAVLaserWall@@AEBV3@@Z 0000000140015900 f i GameTest.obj
 0002:000049b0       ??$construct@VLaserWall@@V1@@?$_Default_allocator_traits@V?$allocator@VLaserWall@@@std@@@std@@SAXAEAV?$allocator@VLaserWall@@@1@QEAVLaserWall@@$$QEAV3@@Z 00000001400159b0 f i GameTest.obj
 0002:00004a60       ??$destroy@VLaserWall@@@?$_Default_allocator_traits@V?$allocator@VLaserWall@@@std@@@std@@SAXAEAV?$allocator@VLaserWall@@@1@QEAVLaserWall@@@Z 0000000140015a60 f i GameTest.obj
 0002:00004ad0       ??$emplace_back@AEBVLaserWall@@@?$vector@VLaserWall@@V?$allocator@VLaserWall@@@std@@@std@@QEAA@AEBVLaserWall@@@Z 0000000140015ad0 f i GameTest.obj
 0002:00004bb0       ??$exchange@PEAU_Container_proxy@std@@$$T@std@@YAPEAU_Container_proxy@0@AEAPEAU10@$$QEA$$T@Z 0000000140015bb0 f i GameTest.obj
 0002:00004c40       ??$forward@AEBVLaserWall@@@std@@YAAEBVLaserWall@@AEBV1@@Z 0000000140015c40 f i GameTest.obj
 0002:00004ca0       ??$forward@PEAU_Container_base12@std@@@std@@YA$$QEAPEAU_Container_base12@0@AEAPEAU10@@Z 0000000140015ca0 f i GameTest.obj
 0002:00004d00       ??$forward@VLaserWall@@@std@@YA$$QEAVLaserWall@@AEAV1@@Z 0000000140015d00 f i GameTest.obj
 0002:00004d60       ??$move@AEAVLaserWall@@@std@@YA$$QEAVLaserWall@@AEAV1@@Z 0000000140015d60 f i GameTest.obj
 0002:00004dc0       ??0?$_Uninitialized_backout_al@V?$allocator@VLaserWall@@@std@@@std@@QEAA@PEAVLaserWall@@AEAV?$allocator@VLaserWall@@@1@@Z 0000000140015dc0 f i GameTest.obj
 0002:00004e70       ??0?$_Vector_val@U?$_Simple_types@VLaserWall@@@std@@@std@@QEAA@XZ 0000000140015e70 f i GameTest.obj
 0002:00004f10       ??0?$allocator@VLaserWall@@@std@@QEAA@XZ 0000000140015f10 f i GameTest.obj
 0002:00004f70       ??0?$vector@VLaserWall@@V?$allocator@VLaserWall@@@std@@@std@@QEAA@XZ 0000000140015f70 f i GameTest.obj
 0002:00005020       ??0_Container_base12@std@@QEAA@XZ 0000000140016020 f i GameTest.obj
 0002:00005090       ??0_Container_proxy@std@@QEAA@PEAU_Container_base12@1@@Z 0000000140016090 f i GameTest.obj
 0002:00005120       ??0bad_alloc@std@@AEAA@QEBD@Z 0000000140016120 f i GameTest.obj
 0002:000051c0       ??0bad_alloc@std@@QEAA@AEBV01@@Z 00000001400161c0 f i GameTest.obj
 0002:00005240       ??0bad_array_new_length@std@@QEAA@AEBV01@@Z 0000000140016240 f i GameTest.obj
 0002:000052c0       ??0bad_array_new_length@std@@QEAA@XZ 00000001400162c0 f i GameTest.obj
 0002:00005350       ??0exception@std@@QEAA@AEBV01@@Z 0000000140016350 f i GameTest.obj
 0002:00005410       ??0exception@std@@QEAA@QEBDH@Z 0000000140016410 f i GameTest.obj
 0002:000054c0       ??1?$_Uninitialized_backout_al@V?$allocator@VLaserWall@@@std@@@std@@QEAA@XZ 00000001400164c0 f i GameTest.obj
 0002:00005540       ??1?$vector@VLaserWall@@V?$allocator@VLaserWall@@@std@@@std@@QEAA@XZ 0000000140016540 f i GameTest.obj
 0002:00005650       ??1LaserWall@@QEAA@XZ      0000000140016650 f i GameTest.obj
 0002:000056b0       ??1bad_alloc@std@@UEAA@XZ  00000001400166b0 f i GameTest.obj
 0002:00005700       ??1bad_array_new_length@std@@UEAA@XZ 0000000140016700 f i GameTest.obj
 0002:00005750       ??1exception@std@@UEAA@XZ  0000000140016750 f i GameTest.obj
 0002:000057d0       ??2@YAPEAX_KPEAX@Z         00000001400167d0 f i GameTest.obj
 0002:00005830       ??_GDoor@@QEAAPEAXI@Z      0000000140016830 f i GameTest.obj
 0002:000058c0       ??_GLaserWall@@QEAAPEAXI@Z 00000001400168c0 f i GameTest.obj
 0002:00005950       ??_GMainCharacter@@QEAAPEAXI@Z 0000000140016950 f i GameTest.obj
 0002:000059e0       ??_Ebad_alloc@std@@UEAAPEAXI@Z 00000001400169e0 f i GameTest.obj
 0002:000059e0       ??_Gbad_alloc@std@@UEAAPEAXI@Z 00000001400169e0 f i GameTest.obj
 0002:00005a70       ??_Gbad_array_new_length@std@@UEAAPEAXI@Z 0000000140016a70 f i GameTest.obj
 0002:00005a70       ??_Ebad_array_new_length@std@@UEAAPEAXI@Z 0000000140016a70 f i GameTest.obj
 0002:00005b00       ??_Eexception@std@@UEAAPEAXI@Z 0000000140016b00 f i GameTest.obj
 0002:00005b00       ??_Gexception@std@@UEAAPEAXI@Z 0000000140016b00 f i GameTest.obj
 0002:00005b90       ?CheckButton@CController@@QEBA_NH_N@Z 0000000140016b90 f i GameTest.obj
 0002:00005c80       ?GetAABB@Door@@QEBAAEBUAABB@@XZ 0000000140016c80 f i GameTest.obj
 0002:00005ce0       ?GetAABB@LaserWall@@QEBAAEBUAABB@@XZ 0000000140016ce0 f i GameTest.obj
 0002:00005d40       ?GetAABB@MainCharacter@@QEBAAEBUAABB@@XZ 0000000140016d40 f i GameTest.obj
 0002:00005da0       ?Init@@YAXXZ               0000000140016da0 f   GameTest.obj
 0002:00006190       ?Render@@YAXXZ             0000000140017190 f   GameTest.obj
 0002:00006380       ?Shutdown@@YAXXZ           0000000140017380 f   GameTest.obj
 0002:00006460       ?StartEndGame@@YAXXZ       0000000140017460 f   GameTest.obj
 0002:00006500       ?Update@@YAXM@Z            0000000140017500 f   GameTest.obj
 0002:00006710       ?_Adjust_manually_vector_aligned@std@@YAXAEAPEAXAEA_K@Z 0000000140017710 f i GameTest.obj
 0002:00006970       ?_Allocate@_Default_allocate_traits@std@@SAPEAX_K@Z 0000000140017970 f i GameTest.obj
 0002:000069d0       ?_Calculate_growth@?$vector@VLaserWall@@V?$allocator@VLaserWall@@@std@@@std@@AEBA_K_K@Z 00000001400179d0 f i GameTest.obj
 0002:00006ad0       ?_Change_array@?$vector@VLaserWall@@V?$allocator@VLaserWall@@@std@@@std@@AEAAXQEAVLaserWall@@_K1@Z 0000000140017ad0 f i GameTest.obj
 0002:00006c50       ?_Destroy@?$vector@VLaserWall@@V?$allocator@VLaserWall@@@std@@@std@@AEAAXPEAVLaserWall@@0@Z 0000000140017c50 f i GameTest.obj
 0002:00006ce0       ?_Get_first@?$_Compressed_pair@V?$allocator@VLaserWall@@@std@@V?$_Vector_val@U?$_Simple_types@VLaserWall@@@std@@@2@$00@std@@QEAAAEAV?$allocator@VLaserWall@@@2@XZ 0000000140017ce0 f i GameTest.obj
 0002:00006d40       ?_Get_first@?$_Compressed_pair@V?$allocator@VLaserWall@@@std@@V?$_Vector_val@U?$_Simple_types@VLaserWall@@@std@@@2@$00@std@@QEBAAEBV?$allocator@VLaserWall@@@2@XZ 0000000140017d40 f i GameTest.obj
 0002:00006da0       ?_Getal@?$vector@VLaserWall@@V?$allocator@VLaserWall@@@std@@@std@@AEAAAEAV?$allocator@VLaserWall@@@2@XZ 0000000140017da0 f i GameTest.obj
 0002:00006e10       ?_Getal@?$vector@VLaserWall@@V?$allocator@VLaserWall@@@std@@@std@@AEBAAEBV?$allocator@VLaserWall@@@2@XZ 0000000140017e10 f i GameTest.obj
 0002:00006e80       ?_Orphan_all@_Container_base12@std@@QEAAXXZ 0000000140017e80 f i GameTest.obj
 0002:00006fb0       ?_Orphan_range@?$vector@VLaserWall@@V?$allocator@VLaserWall@@@std@@@std@@AEBAXPEAVLaserWall@@0@Z 0000000140017fb0 f i GameTest.obj
 0002:00007100       ?_Release@?$_Uninitialized_backout_al@V?$allocator@VLaserWall@@@std@@@std@@QEAAPEAVLaserWall@@XZ 0000000140018100 f i GameTest.obj
 0002:00007180       ?_Throw_bad_array_new_length@std@@YAXXZ 0000000140018180 f i GameTest.obj
 0002:000071f0       ?_Tidy@?$vector@VLaserWall@@V?$allocator@VLaserWall@@@std@@@std@@AEAAXXZ 00000001400181f0 f i GameTest.obj
 0002:00007340       ?_Umove@?$vector@VLaserWall@@V?$allocator@VLaserWall@@@std@@@std@@AEAAPEAVLaserWall@@PEAV3@00@Z 0000000140018340 f i GameTest.obj
 0002:000073e0       ?_Umove_if_noexcept1@?$vector@VLaserWall@@V?$allocator@VLaserWall@@@std@@@std@@AEAAXPEAVLaserWall@@00U?$integral_constant@_N$00@2@@Z 00000001400183e0 f i GameTest.obj
 0002:00007480       ?_Umove_if_noexcept@?$vector@VLaserWall@@V?$allocator@VLaserWall@@@std@@@std@@AEAAXPEAVLaserWall@@00@Z 0000000140018480 f i GameTest.obj
 0002:00007540       ?_Unchecked_begin@?$vector@VLaserWall@@V?$allocator@VLaserWall@@@std@@@std@@QEAAPEAVLaserWall@@XZ 0000000140018540 f i GameTest.obj
 0002:000075a0       ?_Unchecked_end@?$vector@VLaserWall@@V?$allocator@VLaserWall@@@std@@@std@@QEAAPEAVLaserWall@@XZ 00000001400185a0 f i GameTest.obj
 0002:00007600       ?_Xlength@?$vector@VLaserWall@@V?$allocator@VLaserWall@@@std@@@std@@CAXXZ 0000000140018600 f i GameTest.obj
 0002:00007650       ?__autoclassinit2@?$_Uninitialized_backout_al@V?$allocator@VLaserWall@@@std@@@std@@QEAAX_K@Z 0000000140018650 f i GameTest.obj
 0002:000076b0       ?__autoclassinit2@?$vector@VLaserWall@@V?$allocator@VLaserWall@@@std@@@std@@QEAAX_K@Z 00000001400186b0 f i GameTest.obj
 0002:00007710       ?__autoclassinit2@MainCharacter@@QEAAX_K@Z 0000000140018710 f i GameTest.obj
 0002:00007770       ?allocate@?$allocator@U_Container_proxy@std@@@std@@QEAAPEAU_Container_proxy@2@_K@Z 0000000140018770 f i GameTest.obj
 0002:000077e0       ?allocate@?$allocator@VLaserWall@@@std@@QEAAPEAVLaserWall@@_K@Z 00000001400187e0 f i GameTest.obj
 0002:00007850       ?capacity@?$vector@VLaserWall@@V?$allocator@VLaserWall@@@std@@@std@@QEBA_KXZ 0000000140018850 f i GameTest.obj
 0002:000078d0       ?deallocate@?$_Default_allocator_traits@V?$allocator@U_Container_proxy@std@@@std@@@std@@SAXAEAV?$allocator@U_Container_proxy@std@@@2@QEAU_Container_proxy@2@_K@Z 00000001400188d0 f i GameTest.obj
 0002:00007950       ?deallocate@?$allocator@VLaserWall@@@std@@QEAAXQEAVLaserWall@@_K@Z 0000000140018950 f i GameTest.obj
 0002:000079d0       ?max@?$numeric_limits@_J@std@@SA_JXZ 00000001400189d0 f i GameTest.obj
 0002:00007a20       ?max_size@?$_Default_allocator_traits@V?$allocator@VLaserWall@@@std@@@std@@SA_KAEBV?$allocator@VLaserWall@@@2@@Z 0000000140018a20 f i GameTest.obj
 0002:00007a80       ?max_size@?$vector@VLaserWall@@V?$allocator@VLaserWall@@@std@@@std@@QEBA_KXZ 0000000140018a80 f i GameTest.obj
 0002:00007b30       ?push_back@?$vector@VLaserWall@@V?$allocator@VLaserWall@@@std@@@std@@QEAAXAEBVLaserWall@@@Z 0000000140018b30 f i GameTest.obj
 0002:00007ba0       ?what@exception@std@@UEBAPEBDXZ 0000000140018ba0 f i GameTest.obj
 0002:00007c40       ??0LaserWall@@QEAA@MMMM@Z  0000000140018c40 f   LaserWall.obj
 0002:00007e50       ?Render@LaserWall@@QEAAXXZ 0000000140018e50 f   LaserWall.obj
 0002:00007f10       ??0MainCharacter@@QEAA@XZ  0000000140018f10 f   MainCharacter.obj
 0002:00007ff0       ??1MainCharacter@@QEAA@XZ  0000000140018ff0 f   MainCharacter.obj
 0002:00008070       ?DebugRender@MainCharacter@@QEAAXXZ 0000000140019070 f   MainCharacter.obj
 0002:00008380       ?GetCenterPos@MainCharacter@@QEAAXAEAM0@Z 0000000140019380 f   MainCharacter.obj
 0002:00008400       ?GetHeight@CSimpleSprite@@QEBAMXZ 0000000140019400 f i MainCharacter.obj
 0002:00008460       ?GetLeftThumbStickX@CController@@QEBAMXZ 0000000140019460 f i MainCharacter.obj
 0002:000084d0       ?GetLeftThumbStickY@CController@@QEBAMH@Z 00000001400194d0 f i MainCharacter.obj
 0002:00008550       ?GetPosition@CSimpleSprite@@QEAAXAEAM0@Z 0000000140019550 f i MainCharacter.obj
 0002:000085f0       ?GetWidth@CSimpleSprite@@QEBAMXZ 00000001400195f0 f i MainCharacter.obj
 0002:00008650       ?Render@MainCharacter@@QEAAXXZ 0000000140019650 f   MainCharacter.obj
 0002:000086e0       ?SetPosition@CSimpleSprite@@QEAAXMM@Z 00000001400196e0 f i MainCharacter.obj
 0002:00008780       ?SetScale@CSimpleSprite@@QEAAXM@Z 0000000140019780 f i MainCharacter.obj
 0002:000087f0       ?StartEndGame@MainCharacter@@QEAAXXZ 00000001400197f0 f   MainCharacter.obj
 0002:00008850       ?Update@MainCharacter@@QEAAXM@Z 0000000140019850 f   MainCharacter.obj
 0002:00008bc0       ?UpdateAABB@MainCharacter@@AEAAXXZ 0000000140019bc0 f   MainCharacter.obj
 0002:00008d70       ??0CProfiler@@QEAA@XZ      0000000140019d70 f i Framework:main.obj
 0002:00008df0       ?CheckMemCallback@@YAXXZ   0000000140019df0 f   Framework:main.obj
 0002:00008e40       ?Display@@YAXXZ            0000000140019e40 f   Framework:main.obj
 0002:00008f50       ?GetCounter@@YANXZ         0000000140019f50 f   Framework:main.obj
 0002:00009010       ?Idle@@YAXXZ               000000014001a010 f   Framework:main.obj
 0002:00009280       ?InitGL@@YAXXZ             000000014001a280 f   Framework:main.obj
 0002:00009300       ?Print@CProfiler@@QEAAXMMPEBD@Z 000000014001a300 f i Framework:main.obj
 0002:00009430       ?Start@CProfiler@@QEAAXXZ  000000014001a430 f i Framework:main.obj
 0002:000094a0       ?StartCounter@@YAXXZ       000000014001a4a0 f   Framework:main.obj
 0002:00009580       ?Stop@CProfiler@@QEAANXZ   000000014001a580 f i Framework:main.obj
 0002:00009610       ?__empty_global_delete@@YAXPEAX@Z 000000014001a610 f i Framework:main.obj
 0002:00009660       ?__empty_global_delete@@YAXPEAX_K@Z 000000014001a660 f i Framework:main.obj
 0002:000096c0       __local_stdio_printf_options 000000014001a6c0 f i Framework:main.obj
 0002:00009710       _vfprintf_l                000000014001a710 f i Framework:main.obj
 0002:000097b0       _vsnprintf_l               000000014001a7b0 f i Framework:main.obj
 0002:000098a0       _vsprintf_l                000000014001a8a0 f i Framework:main.obj
 0002:00009a30       printf                     000000014001aa30 f i Framework:main.obj
 0002:00009b20       sprintf                    000000014001ab20 f i Framework:main.obj
 0002:00009c10       wWinMain                   000000014001ac10 f   Framework:main.obj
 0002:00009dd0       ?CreateSprite@App@@YAPEAVCSimpleSprite@@PEBD@Z 000000014001add0 f   Framework:app.obj
 0002:00009e90       ?DrawLine@App@@YAXMMMMMMM@Z 000000014001ae90 f   Framework:app.obj
 0002:0000a030       ?GetController@App@@YAAEBVCController@@H@Z 000000014001b030 f   Framework:app.obj
 0002:0000a0a0       ?GetController@CSimpleControllers@@QEAAAEBVCController@@H@Z 000000014001b0a0 f i Framework:app.obj
 0002:0000a130       ?GetMousePos@App@@YAXAEAM0@Z 000000014001b130 f   Framework:app.obj
 0002:0000a320       ?IsKeyPressed@App@@YA_NH@Z 000000014001b320 f   Framework:app.obj
 0002:0000a3b0       ?IsSoundPlaying@App@@YA_NPEBD@Z 000000014001b3b0 f   Framework:app.obj
 0002:0000a420       ?Print@App@@YAXMMPEBDMMMPEAX@Z 000000014001b420 f   Framework:app.obj
 0002:0000a580       ?StartSound@App@@YAXPEBD_N@Z 000000014001b580 f   Framework:app.obj
 0002:0000a630       ?StopSound@App@@YAXPEBD@Z  000000014001b630 f   Framework:app.obj
 0002:0000a6a0       ??$?0$$V@?$_Compressed_pair@V?$allocator@U?$_Tree_node@U?$pair@QEBDUsTextureDef@CSimpleSprite@@@std@@PEAX@std@@@std@@V?$_Tree_val@U?$_Tree_simple_types@U?$pair@QEBDUsTextureDef@CSimpleSprite@@@std@@@std@@@2@$00@std@@QEAA@U_Zero_then_variadic_args_t@1@@Z 000000014001b6a0 f i Framework:SimpleSprite.obj
 0002:0000a720       ??$?0AEBQEAU?$_Tree_node@U?$pair@QEBDUsTextureDef@CSimpleSprite@@@std@@PEAX@std@@_N$0A@@?$pair@PEAU?$_Tree_node@U?$pair@QEBDUsTextureDef@CSimpleSprite@@@std@@PEAX@std@@_N@std@@QEAA@AEBQEAU?$_Tree_node@U?$pair@QEBDUsTextureDef@CSimpleSprite@@@std@@PEAX@1@$$QEA_N@Z 000000014001b720 f i Framework:SimpleSprite.obj
 0002:0000a7d0       ??$?0AEBQEBD$$Z$$V@?$pair@QEBDUsTextureDef@CSimpleSprite@@@std@@QEAA@Upiecewise_construct_t@1@V?$tuple@AEBQEBD@1@V?$tuple@$$V@1@@Z 000000014001b7d0 f i Framework:SimpleSprite.obj
 0002:0000a880       ??$?0AEBQEBD$0A@@?$tuple@AEBQEBD@std@@QEAA@AEBQEBD@Z 000000014001b880 f i Framework:SimpleSprite.obj
 0002:0000a920       ??$?0AEBQEBD@?$_Tuple_val@AEBQEBD@std@@QEAA@AEBQEBD@Z 000000014001b920 f i Framework:SimpleSprite.obj
 0002:0000a9a0       ??$?0AEBU?$less@PEBD@std@@U_Zero_then_variadic_args_t@1@@?$_Compressed_pair@U?$less@PEBD@std@@V?$_Compressed_pair@V?$allocator@U?$_Tree_node@U?$pair@QEBDUsTextureDef@CSimpleSprite@@@std@@PEAX@std@@@std@@V?$_Tree_val@U?$_Tree_simple_types@U?$pair@QEBDUsTextureDef@CSimpleSprite@@@std@@@std@@@2@$00@2@$00@std@@QEAA@U_One_then_variadic_args_t@1@AEBU?$less@PEBD@1@$$QEAU_Zero_then_variadic_args_t@1@@Z 000000014001b9a0 f i Framework:SimpleSprite.obj
 0002:0000aa40       ??$?0AEBUpiecewise_construct_t@std@@V?$tuple@AEBQEBD@1@V?$tuple@$$V@1@@?$_Tree_temp_node@V?$allocator@U?$_Tree_node@U?$pair@QEBDUsTextureDef@CSimpleSprite@@@std@@PEAX@std@@@std@@@std@@QEAA@AEAV?$allocator@U?$_Tree_node@U?$pair@QEBDUsTextureDef@CSimpleSprite@@@std@@PEAX@std@@@1@PEAU?$_Tree_node@U?$pair@QEBDUsTextureDef@CSimpleSprite@@@std@@PEAX@1@AEBUpiecewise_construct_t@1@$$QEAV?$tuple@AEBQEBD@1@$$QEAV?$tuple@$$V@1@@Z 000000014001ba40 f i Framework:SimpleSprite.obj
 0002:0000ac00       ??$?0PEAU?$_Tree_node@U?$pair@QEBDUsTextureDef@CSimpleSprite@@@std@@PEAX@std@@_N$0A@@?$pair@PEAU?$_Tree_node@U?$pair@QEBDUsTextureDef@CSimpleSprite@@@std@@PEAX@std@@_N@std@@QEAA@$$QEAPEAU?$_Tree_node@U?$pair@QEBDUsTextureDef@CSimpleSprite@@@std@@PEAX@1@$$QEA_N@Z 000000014001bc00 f i Framework:SimpleSprite.obj
 0002:0000acb0       ??$?0U?$_Tree_node@U?$pair@QEBDUsTextureDef@CSimpleSprite@@@std@@PEAX@std@@@?$allocator@U_Container_proxy@std@@@std@@QEAA@AEBV?$allocator@U?$_Tree_node@U?$pair@QEBDUsTextureDef@CSimpleSprite@@@std@@PEAX@std@@@1@@Z 000000014001bcb0 f i Framework:SimpleSprite.obj
 0002:0000ad10       ??$?0U_Exact_args_t@std@@$0A@@?$tuple@$$V@std@@QEAA@U_Exact_args_t@1@@Z 000000014001bd10 f i Framework:SimpleSprite.obj
 0002:0000ad70       ??$?0U_Exact_args_t@std@@AEBQEBD$$V$0A@@?$tuple@AEBQEBD@std@@QEAA@U_Exact_args_t@1@AEBQEBD@Z 000000014001bd70 f i Framework:SimpleSprite.obj
 0002:0000ae30       ??$?0V?$tuple@AEBQEBD@std@@V?$tuple@$$V@1@$0A@$$Z$S@?$pair@QEBDUsTextureDef@CSimpleSprite@@@std@@QEAA@AEAV?$tuple@AEBQEBD@1@AEAV?$tuple@$$V@1@U?$integer_sequence@_K$0A@@1@U?$integer_sequence@_K$S@1@@Z 000000014001be30 f i Framework:SimpleSprite.obj
 0002:0000aef0       ??$_Buyheadnode@V?$allocator@U?$_Tree_node@U?$pair@QEBDUsTextureDef@CSimpleSprite@@@std@@PEAX@std@@@std@@@?$_Tree_node@U?$pair@QEBDUsTextureDef@CSimpleSprite@@@std@@PEAX@std@@SAPEAU01@AEAV?$allocator@U?$_Tree_node@U?$pair@QEBDUsTextureDef@CSimpleSprite@@@std@@PEAX@std@@@1@@Z 000000014001bef0 f i Framework:SimpleSprite.obj
 0002:0000b000       ??$_Construct_in_place@PEAU?$_Tree_node@U?$pair@QEBDUsTextureDef@CSimpleSprite@@@std@@PEAX@std@@AEAPEAU12@@std@@YAXAEAPEAU?$_Tree_node@U?$pair@QEBDUsTextureDef@CSimpleSprite@@@std@@PEAX@0@0@Z 000000014001c000 f i Framework:SimpleSprite.obj
 0002:0000b0b0       ??$_Construct_in_place@PEAU?$_Tree_node@U?$pair@QEBDUsTextureDef@CSimpleSprite@@@std@@PEAX@std@@AEBQEAU12@@std@@YAXAEAPEAU?$_Tree_node@U?$pair@QEBDUsTextureDef@CSimpleSprite@@@std@@PEAX@0@AEBQEAU10@@Z 000000014001c0b0 f i Framework:SimpleSprite.obj
 0002:0000b160       ??$_Debug_lt_pred@AEBU?$less@PEBD@std@@AEBQEBDAEBQEBD$0A@@std@@YA_NAEBU?$less@PEBD@0@AEBQEBD1@Z 000000014001c160 f i Framework:SimpleSprite.obj
 0002:0000b2c0       ??$_Destroy_in_place@PEAU?$_Tree_node@U?$pair@QEBDUsTextureDef@CSimpleSprite@@@std@@PEAX@std@@@std@@YAXAEAPEAU?$_Tree_node@U?$pair@QEBDUsTextureDef@CSimpleSprite@@@std@@PEAX@0@@Z 000000014001c2c0 f i Framework:SimpleSprite.obj
 0002:0000b320       ??$_Erase_head@V?$allocator@U?$_Tree_node@U?$pair@QEBDUsTextureDef@CSimpleSprite@@@std@@PEAX@std@@@std@@@?$_Tree_val@U?$_Tree_simple_types@U?$pair@QEBDUsTextureDef@CSimpleSprite@@@std@@@std@@@std@@QEAAXAEAV?$allocator@U?$_Tree_node@U?$pair@QEBDUsTextureDef@CSimpleSprite@@@std@@PEAX@std@@@1@@Z 000000014001c320 f i Framework:SimpleSprite.obj
 0002:0000b3e0       ??$_Erase_tree@V?$allocator@U?$_Tree_node@U?$pair@QEBDUsTextureDef@CSimpleSprite@@@std@@PEAX@std@@@std@@@?$_Tree_val@U?$_Tree_simple_types@U?$pair@QEBDUsTextureDef@CSimpleSprite@@@std@@@std@@@std@@QEAAXAEAV?$allocator@U?$_Tree_node@U?$pair@QEBDUsTextureDef@CSimpleSprite@@@std@@PEAX@std@@@1@PEAU?$_Tree_node@U?$pair@QEBDUsTextureDef@CSimpleSprite@@@std@@PEAX@1@@Z 000000014001c3e0 f i Framework:SimpleSprite.obj
 0002:0000b4b0       ??$_Find@PEBD@?$_Tree@V?$_Tmap_traits@PEBDUsTextureDef@CSimpleSprite@@U?$less@PEBD@std@@V?$allocator@U?$pair@QEBDUsTextureDef@CSimpleSprite@@@std@@@4@$0A@@std@@@std@@AEBAPEAU?$_Tree_node@U?$pair@QEBDUsTextureDef@CSimpleSprite@@@std@@PEAX@1@AEBQEBD@Z 000000014001c4b0 f i Framework:SimpleSprite.obj
 0002:0000b5b0       ??$_Find_lower_bound@PEBD@?$_Tree@V?$_Tmap_traits@PEBDUsTextureDef@CSimpleSprite@@U?$less@PEBD@std@@V?$allocator@U?$pair@QEBDUsTextureDef@CSimpleSprite@@@std@@@4@$0A@@std@@@std@@IEBA?AU?$_Tree_find_result@PEAU?$_Tree_node@U?$pair@QEBDUsTextureDef@CSimpleSprite@@@std@@PEAX@std@@@1@AEBQEBD@Z 000000014001c5b0 f i Framework:SimpleSprite.obj
 0002:0000b770       ??$_Freenode0@V?$allocator@U?$_Tree_node@U?$pair@QEBDUsTextureDef@CSimpleSprite@@@std@@PEAX@std@@@std@@@?$_Tree_node@U?$pair@QEBDUsTextureDef@CSimpleSprite@@@std@@PEAX@std@@SAXAEAV?$allocator@U?$_Tree_node@U?$pair@QEBDUsTextureDef@CSimpleSprite@@@std@@PEAX@std@@@1@PEAU01@@Z 000000014001c770 f i Framework:SimpleSprite.obj
 0002:0000b830       ??$_Freenode@V?$allocator@U?$_Tree_node@U?$pair@QEBDUsTextureDef@CSimpleSprite@@@std@@PEAX@std@@@std@@@?$_Tree_node@U?$pair@QEBDUsTextureDef@CSimpleSprite@@@std@@PEAX@std@@SAXAEAV?$allocator@U?$_Tree_node@U?$pair@QEBDUsTextureDef@CSimpleSprite@@@std@@PEAX@std@@@1@PEAU01@@Z 000000014001c830 f i Framework:SimpleSprite.obj
 0002:0000b8d0       ??$_Get_size_of_n@$0DI@@std@@YA_K_K@Z 000000014001c8d0 f i Framework:SimpleSprite.obj
 0002:0000b960       ??$_Kfn@QEBDUsTextureDef@CSimpleSprite@@@?$_Tmap_traits@PEBDUsTextureDef@CSimpleSprite@@U?$less@PEBD@std@@V?$allocator@U?$pair@QEBDUsTextureDef@CSimpleSprite@@@std@@@4@$0A@@std@@SAAEBQEBDAEBU?$pair@QEBDUsTextureDef@CSimpleSprite@@@1@@Z 000000014001c960 f i Framework:SimpleSprite.obj
 0002:0000b9c0       ??$_Lower_bound_duplicate@PEBD@?$_Tree@V?$_Tmap_traits@PEBDUsTextureDef@CSimpleSprite@@U?$less@PEBD@std@@V?$allocator@U?$pair@QEBDUsTextureDef@CSimpleSprite@@@std@@@4@$0A@@std@@@std@@IEBA_NQEAU?$_Tree_node@U?$pair@QEBDUsTextureDef@CSimpleSprite@@@std@@PEAX@1@AEBQEBD@Z 000000014001c9c0 f i Framework:SimpleSprite.obj
 0002:0000bab0       ??$_Try_emplace@AEBQEBD$$V@?$map@PEBDUsTextureDef@CSimpleSprite@@U?$less@PEBD@std@@V?$allocator@U?$pair@QEBDUsTextureDef@CSimpleSprite@@@std@@@4@@std@@AEAA?AU?$pair@PEAU?$_Tree_node@U?$pair@QEBDUsTextureDef@CSimpleSprite@@@std@@PEAX@std@@_N@1@AEBQEBD@Z 000000014001cab0 f i Framework:SimpleSprite.obj
 0002:0000bd20       ??$addressof@$$CBV?$_Tree_val@U?$_Tree_simple_types@U?$pair@QEBDUsTextureDef@CSimpleSprite@@@std@@@std@@@std@@@std@@YAPEBV?$_Tree_val@U?$_Tree_simple_types@U?$pair@QEBDUsTextureDef@CSimpleSprite@@@std@@@std@@@0@AEBV10@@Z 000000014001cd20 f i Framework:SimpleSprite.obj
 0002:0000bd80       ??$addressof@PEAU?$_Tree_node@U?$pair@QEBDUsTextureDef@CSimpleSprite@@@std@@PEAX@std@@@std@@YAPEAPEAU?$_Tree_node@U?$pair@QEBDUsTextureDef@CSimpleSprite@@@std@@PEAX@0@AEAPEAU10@@Z 000000014001cd80 f i Framework:SimpleSprite.obj
 0002:0000bde0       ??$addressof@U?$pair@QEBDUsTextureDef@CSimpleSprite@@@std@@@std@@YAPEAU?$pair@QEBDUsTextureDef@CSimpleSprite@@@0@AEAU10@@Z 000000014001cde0 f i Framework:SimpleSprite.obj
 0002:0000be40       ??$addressof@U_Container_base12@std@@@std@@YAPEAU_Container_base12@0@AEAU10@@Z 000000014001ce40 f i Framework:SimpleSprite.obj
 0002:0000bea0       ??$addressof@V?$_Tree_val@U?$_Tree_simple_types@U?$pair@QEBDUsTextureDef@CSimpleSprite@@@std@@@std@@@std@@@std@@YAPEAV?$_Tree_val@U?$_Tree_simple_types@U?$pair@QEBDUsTextureDef@CSimpleSprite@@@std@@@std@@@0@AEAV10@@Z 000000014001cea0 f i Framework:SimpleSprite.obj
 0002:0000bf00       ??$construct@U?$pair@QEBDUsTextureDef@CSimpleSprite@@@std@@AEBUpiecewise_construct_t@2@V?$tuple@AEBQEBD@2@V?$tuple@$$V@2@@?$_Default_allocator_traits@V?$allocator@U?$_Tree_node@U?$pair@QEBDUsTextureDef@CSimpleSprite@@@std@@PEAX@std@@@std@@@std@@SAXAEAV?$allocator@U?$_Tree_node@U?$pair@QEBDUsTextureDef@CSimpleSprite@@@std@@PEAX@std@@@1@QEAU?$pair@QEBDUsTextureDef@CSimpleSprite@@@1@AEBUpiecewise_construct_t@1@$$QEAV?$tuple@AEBQEBD@1@$$QEAV?$tuple@$$V@1@@Z 000000014001cf00 f i Framework:SimpleSprite.obj
 0002:0000c040       ??$destroy@U?$pair@QEBDUsTextureDef@CSimpleSprite@@@std@@@?$_Default_allocator_traits@V?$allocator@U?$_Tree_node@U?$pair@QEBDUsTextureDef@CSimpleSprite@@@std@@PEAX@std@@@std@@@std@@SAXAEAV?$allocator@U?$_Tree_node@U?$pair@QEBDUsTextureDef@CSimpleSprite@@@std@@PEAX@std@@@1@QEAU?$pair@QEBDUsTextureDef@CSimpleSprite@@@1@@Z 000000014001d040 f i Framework:SimpleSprite.obj
 0002:0000c0a0       ??$exchange@PEAU?$_Tree_node@U?$pair@QEBDUsTextureDef@CSimpleSprite@@@std@@PEAX@std@@$$T@std@@YAPEAU?$_Tree_node@U?$pair@QEBDUsTextureDef@CSimpleSprite@@@std@@PEAX@0@AEAPEAU10@$$QEA$$T@Z 000000014001d0a0 f i Framework:SimpleSprite.obj
 0002:0000c130       ??$exchange@PEAU?$_Tree_node@U?$pair@QEBDUsTextureDef@CSimpleSprite@@@std@@PEAX@std@@AEAPEAU12@@std@@YAPEAU?$_Tree_node@U?$pair@QEBDUsTextureDef@CSimpleSprite@@@std@@PEAX@0@AEAPEAU10@0@Z 000000014001d130 f i Framework:SimpleSprite.obj
 0002:0000c1c0       ??$forward@AEAPEAU?$_Tree_node@U?$pair@QEBDUsTextureDef@CSimpleSprite@@@std@@PEAX@std@@@std@@YAAEAPEAU?$_Tree_node@U?$pair@QEBDUsTextureDef@CSimpleSprite@@@std@@PEAX@0@AEAPEAU10@@Z 000000014001d1c0 f i Framework:SimpleSprite.obj
 0002:0000c220       ??$forward@AEBQEAU?$_Tree_node@U?$pair@QEBDUsTextureDef@CSimpleSprite@@@std@@PEAX@std@@@std@@YAAEBQEAU?$_Tree_node@U?$pair@QEBDUsTextureDef@CSimpleSprite@@@std@@PEAX@0@AEBQEAU10@@Z 000000014001d220 f i Framework:SimpleSprite.obj
 0002:0000c280       ??$forward@AEBQEBD@std@@YAAEBQEBDAEBQEBD@Z 000000014001d280 f i Framework:SimpleSprite.obj
 0002:0000c2e0       ??$forward@AEBU?$less@PEBD@std@@@std@@YAAEBU?$less@PEBD@0@AEBU10@@Z 000000014001d2e0 f i Framework:SimpleSprite.obj
 0002:0000c340       ??$forward@AEBUpiecewise_construct_t@std@@@std@@YAAEBUpiecewise_construct_t@0@AEBU10@@Z 000000014001d340 f i Framework:SimpleSprite.obj
 0002:0000c3a0       ??$forward@PEAU?$_Tree_node@U?$pair@QEBDUsTextureDef@CSimpleSprite@@@std@@PEAX@std@@@std@@YA$$QEAPEAU?$_Tree_node@U?$pair@QEBDUsTextureDef@CSimpleSprite@@@std@@PEAX@0@AEAPEAU10@@Z 000000014001d3a0 f i Framework:SimpleSprite.obj
 0002:0000c400       ??$forward@U_Zero_then_variadic_args_t@std@@@std@@YA$$QEAU_Zero_then_variadic_args_t@0@AEAU10@@Z 000000014001d400 f i Framework:SimpleSprite.obj
 0002:0000c460       ??$forward@V?$tuple@$$V@std@@@std@@YA$$QEAV?$tuple@$$V@0@AEAV10@@Z 000000014001d460 f i Framework:SimpleSprite.obj
 0002:0000c4c0       ??$forward@V?$tuple@AEBQEBD@std@@@std@@YA$$QEAV?$tuple@AEBQEBD@0@AEAV10@@Z 000000014001d4c0 f i Framework:SimpleSprite.obj
 0002:0000c520       ??$forward@_N@std@@YA$$QEA_NAEA_N@Z 000000014001d520 f i Framework:SimpleSprite.obj
 0002:0000c580       ??$forward_as_tuple@$$V@std@@YA?AV?$tuple@$$V@0@XZ 000000014001d580 f i Framework:SimpleSprite.obj
 0002:0000c5f0       ??$forward_as_tuple@AEBQEBD@std@@YA?AV?$tuple@AEBQEBD@0@AEBQEBD@Z 000000014001d5f0 f i Framework:SimpleSprite.obj
 0002:0000c680       ??$get@$0A@AEBQEBD@std@@YAAEBQEBD$$QEAV?$tuple@AEBQEBD@0@@Z 000000014001d680 f i Framework:SimpleSprite.obj
 0002:0000c6e0       ??$move@AEAV?$tuple@AEBQEBD@std@@@std@@YA$$QEAV?$tuple@AEBQEBD@0@AEAV10@@Z 000000014001d6e0 f i Framework:SimpleSprite.obj
 0002:0000c740       ??0?$_Alloc_construct_ptr@V?$allocator@U?$_Tree_node@U?$pair@QEBDUsTextureDef@CSimpleSprite@@@std@@PEAX@std@@@std@@@std@@QEAA@AEAV?$allocator@U?$_Tree_node@U?$pair@QEBDUsTextureDef@CSimpleSprite@@@std@@PEAX@std@@@1@@Z 000000014001d740 f i Framework:SimpleSprite.obj
 0002:0000c7d0       ??0?$_Container_proxy_ptr12@V?$allocator@U_Container_proxy@std@@@std@@@std@@QEAA@AEAV?$allocator@U_Container_proxy@std@@@1@AEAU_Container_base12@1@@Z 000000014001d7d0 f i Framework:SimpleSprite.obj
 0002:0000c8d0       ??0?$_Tree@V?$_Tmap_traits@PEBDUsTextureDef@CSimpleSprite@@U?$less@PEBD@std@@V?$allocator@U?$pair@QEBDUsTextureDef@CSimpleSprite@@@std@@@4@$0A@@std@@@std@@QEAA@AEBU?$less@PEBD@1@@Z 000000014001d8d0 f i Framework:SimpleSprite.obj
 0002:0000c970       ??0?$_Tree_const_iterator@V?$_Tree_val@U?$_Tree_simple_types@U?$pair@QEBDUsTextureDef@CSimpleSprite@@@std@@@std@@@std@@@std@@QEAA@PEAU?$_Tree_node@U?$pair@QEBDUsTextureDef@CSimpleSprite@@@std@@PEAX@1@PEBV?$_Tree_val@U?$_Tree_simple_types@U?$pair@QEBDUsTextureDef@CSimpleSprite@@@std@@@std@@@1@@Z 000000014001d970 f i Framework:SimpleSprite.obj
 0002:0000ca00       ??0?$_Tree_iterator@V?$_Tree_val@U?$_Tree_simple_types@U?$pair@QEBDUsTextureDef@CSimpleSprite@@@std@@@std@@@std@@@std@@QEAA@PEAU?$_Tree_node@U?$pair@QEBDUsTextureDef@CSimpleSprite@@@std@@PEAX@1@PEBV?$_Tree_val@U?$_Tree_simple_types@U?$pair@QEBDUsTextureDef@CSimpleSprite@@@std@@@std@@@1@@Z 000000014001da00 f i Framework:SimpleSprite.obj
 0002:0000ca90       ??0?$_Tree_temp_node_alloc@V?$allocator@U?$_Tree_node@U?$pair@QEBDUsTextureDef@CSimpleSprite@@@std@@PEAX@std@@@std@@@std@@QEAA@AEAV?$allocator@U?$_Tree_node@U?$pair@QEBDUsTextureDef@CSimpleSprite@@@std@@PEAX@std@@@1@@Z 000000014001da90 f i Framework:SimpleSprite.obj
 0002:0000cb20       ??0?$_Tree_unchecked_const_iterator@V?$_Tree_val@U?$_Tree_simple_types@U?$pair@QEBDUsTextureDef@CSimpleSprite@@@std@@@std@@@std@@U_Iterator_base12@2@@std@@QEAA@PEAU?$_Tree_node@U?$pair@QEBDUsTextureDef@CSimpleSprite@@@std@@PEAX@1@PEBV?$_Tree_val@U?$_Tree_simple_types@U?$pair@QEBDUsTextureDef@CSimpleSprite@@@std@@@std@@@1@@Z 000000014001db20 f i Framework:SimpleSprite.obj
 0002:0000cbd0       ??0?$_Tree_val@U?$_Tree_simple_types@U?$pair@QEBDUsTextureDef@CSimpleSprite@@@std@@@std@@@std@@QEAA@XZ 000000014001dbd0 f i Framework:SimpleSprite.obj
 0002:0000cc60       ??0?$allocator@U?$_Tree_node@U?$pair@QEBDUsTextureDef@CSimpleSprite@@@std@@PEAX@std@@@std@@QEAA@XZ 000000014001dc60 f i Framework:SimpleSprite.obj
 0002:0000ccc0       ??0?$map@PEBDUsTextureDef@CSimpleSprite@@U?$less@PEBD@std@@V?$allocator@U?$pair@QEBDUsTextureDef@CSimpleSprite@@@std@@@4@@std@@QEAA@XZ 000000014001dcc0 f i Framework:SimpleSprite.obj
 0002:0000cd30       ??0?$tuple@$$V@std@@QEAA@AEBV01@@Z 000000014001dd30 f i Framework:SimpleSprite.obj
 0002:0000cd90       ??0?$tuple@$$V@std@@QEAA@XZ 000000014001dd90 f i Framework:SimpleSprite.obj
 0002:0000cdf0       ??0?$tuple@AEBQEBD@std@@QEAA@$$QEAV01@@Z 000000014001ddf0 f i Framework:SimpleSprite.obj
 0002:0000ce90       ??0CSimpleSprite@@QEAA@PEBD@Z 000000014001de90 f   Framework:SimpleSprite.obj
 0002:0000d1f0       ??0_Iterator_base12@std@@QEAA@XZ 000000014001e1f0 f i Framework:SimpleSprite.obj
 0002:0000d270       ??1?$_Alloc_construct_ptr@V?$allocator@U?$_Tree_node@U?$pair@QEBDUsTextureDef@CSimpleSprite@@@std@@PEAX@std@@@std@@@std@@QEAA@XZ 000000014001e270 f i Framework:SimpleSprite.obj
 0002:0000d300       ??1?$_Container_proxy_ptr12@V?$allocator@U_Container_proxy@std@@@std@@@std@@QEAA@XZ 000000014001e300 f i Framework:SimpleSprite.obj
 0002:0000d390       ??1?$_Tree@V?$_Tmap_traits@PEBDUsTextureDef@CSimpleSprite@@U?$less@PEBD@std@@V?$allocator@U?$pair@QEBDUsTextureDef@CSimpleSprite@@@std@@@4@$0A@@std@@@std@@QEAA@XZ 000000014001e390 f i Framework:SimpleSprite.obj
 0002:0000d4a0       ??1?$_Tree_const_iterator@V?$_Tree_val@U?$_Tree_simple_types@U?$pair@QEBDUsTextureDef@CSimpleSprite@@@std@@@std@@@std@@@std@@QEAA@XZ 000000014001e4a0 f i Framework:SimpleSprite.obj
 0002:0000d4f0       ??1?$_Tree_iterator@V?$_Tree_val@U?$_Tree_simple_types@U?$pair@QEBDUsTextureDef@CSimpleSprite@@@std@@@std@@@std@@@std@@QEAA@XZ 000000014001e4f0 f i Framework:SimpleSprite.obj
 0002:0000d540       ??1?$_Tree_temp_node@V?$allocator@U?$_Tree_node@U?$pair@QEBDUsTextureDef@CSimpleSprite@@@std@@PEAX@std@@@std@@@std@@QEAA@XZ 000000014001e540 f i Framework:SimpleSprite.obj
 0002:0000d640       ??1?$_Tree_temp_node_alloc@V?$allocator@U?$_Tree_node@U?$pair@QEBDUsTextureDef@CSimpleSprite@@@std@@PEAX@std@@@std@@@std@@QEAA@XZ 000000014001e640 f i Framework:SimpleSprite.obj
 0002:0000d690       ??1?$_Tree_unchecked_const_iterator@V?$_Tree_val@U?$_Tree_simple_types@U?$pair@QEBDUsTextureDef@CSimpleSprite@@@std@@@std@@@std@@U_Iterator_base12@2@@std@@QEAA@XZ 000000014001e690 f i Framework:SimpleSprite.obj
 0002:0000d6e0       ??1?$map@PEBDUsTextureDef@CSimpleSprite@@U?$less@PEBD@std@@V?$allocator@U?$pair@QEBDUsTextureDef@CSimpleSprite@@@std@@@4@@std@@QEAA@XZ 000000014001e6e0 f i Framework:SimpleSprite.obj
 0002:0000d730       ??1_Iterator_base12@std@@QEAA@XZ 000000014001e730 f i Framework:SimpleSprite.obj
 0002:0000d800       ??8?$_Tree_const_iterator@V?$_Tree_val@U?$_Tree_simple_types@U?$pair@QEBDUsTextureDef@CSimpleSprite@@@std@@@std@@@std@@@std@@QEBA_NAEBV01@@Z 000000014001e800 f i Framework:SimpleSprite.obj
 0002:0000d970       ??9?$_Tree_const_iterator@V?$_Tree_val@U?$_Tree_simple_types@U?$pair@QEBDUsTextureDef@CSimpleSprite@@@std@@@std@@@std@@@std@@QEBA_NAEBV01@@Z 000000014001e970 f i Framework:SimpleSprite.obj
 0002:0000da10       ??A?$map@PEBDUsTextureDef@CSimpleSprite@@U?$less@PEBD@std@@V?$allocator@U?$pair@QEBDUsTextureDef@CSimpleSprite@@@std@@@4@@std@@QEAAAEAUsTextureDef@CSimpleSprite@@AEBQEBD@Z 000000014001ea10 f i Framework:SimpleSprite.obj
 0002:0000da90       ??R?$less@PEBD@std@@QEBA_NAEBQEBD0@Z 000000014001ea90 f i Framework:SimpleSprite.obj
 0002:0000db30       ?CalculateUVs@CSimpleSprite@@AEAAXXZ 000000014001eb30 f   Framework:SimpleSprite.obj
 0002:0000dda0       ?Draw@CSimpleSprite@@QEAAXXZ 000000014001eda0 f   Framework:SimpleSprite.obj
 0002:0000e0b0       ?LoadTexture@CSimpleSprite@@AEAA_NPEBD@Z 000000014001f0b0 f   Framework:SimpleSprite.obj
 0002:0000e440       ?_Adopt@_Iterator_base12@std@@QEAAXPEBU_Container_base12@2@@Z 000000014001f440 f i Framework:SimpleSprite.obj
 0002:0000e5b0       ?_Alloc_sentinel_and_proxy@?$_Tree@V?$_Tmap_traits@PEBDUsTextureDef@CSimpleSprite@@U?$less@PEBD@std@@V?$allocator@U?$pair@QEBDUsTextureDef@CSimpleSprite@@@std@@@4@$0A@@std@@@std@@IEAAXXZ 000000014001f5b0 f i Framework:SimpleSprite.obj
 0002:0000e6d0       ?_Allocate@?$_Alloc_construct_ptr@V?$allocator@U?$_Tree_node@U?$pair@QEBDUsTextureDef@CSimpleSprite@@@std@@PEAX@std@@@std@@@std@@QEAAXXZ 000000014001f6d0 f i Framework:SimpleSprite.obj
 0002:0000e760       ?_Check_grow_by_1@?$_Tree@V?$_Tmap_traits@PEBDUsTextureDef@CSimpleSprite@@U?$less@PEBD@std@@V?$allocator@U?$pair@QEBDUsTextureDef@CSimpleSprite@@@std@@@4@$0A@@std@@@std@@IEAAXXZ 000000014001f760 f i Framework:SimpleSprite.obj
 0002:0000e7f0       ?_Get_first@?$_Compressed_pair@U?$less@PEBD@std@@V?$_Compressed_pair@V?$allocator@U?$_Tree_node@U?$pair@QEBDUsTextureDef@CSimpleSprite@@@std@@PEAX@std@@@std@@V?$_Tree_val@U?$_Tree_simple_types@U?$pair@QEBDUsTextureDef@CSimpleSprite@@@std@@@std@@@2@$00@2@$00@std@@QEBAAEBU?$less@PEBD@2@XZ 000000014001f7f0 f i Framework:SimpleSprite.obj
 0002:0000e850       ?_Get_first@?$_Compressed_pair@V?$allocator@U?$_Tree_node@U?$pair@QEBDUsTextureDef@CSimpleSprite@@@std@@PEAX@std@@@std@@V?$_Tree_val@U?$_Tree_simple_types@U?$pair@QEBDUsTextureDef@CSimpleSprite@@@std@@@std@@@2@$00@std@@QEAAAEAV?$allocator@U?$_Tree_node@U?$pair@QEBDUsTextureDef@CSimpleSprite@@@std@@PEAX@std@@@2@XZ 000000014001f850 f i Framework:SimpleSprite.obj
 0002:0000e8b0       ?_Get_first@?$_Compressed_pair@V?$allocator@U?$_Tree_node@U?$pair@QEBDUsTextureDef@CSimpleSprite@@@std@@PEAX@std@@@std@@V?$_Tree_val@U?$_Tree_simple_types@U?$pair@QEBDUsTextureDef@CSimpleSprite@@@std@@@std@@@2@$00@std@@QEBAAEBV?$allocator@U?$_Tree_node@U?$pair@QEBDUsTextureDef@CSimpleSprite@@@std@@PEAX@std@@@2@XZ 000000014001f8b0 f i Framework:SimpleSprite.obj
 0002:0000e910       ?_Get_scary@?$_Tree@V?$_Tmap_traits@PEBDUsTextureDef@CSimpleSprite@@U?$less@PEBD@std@@V?$allocator@U?$pair@QEBDUsTextureDef@CSimpleSprite@@@std@@@4@$0A@@std@@@std@@IEAAPEAV?$_Tree_val@U?$_Tree_simple_types@U?$pair@QEBDUsTextureDef@CSimpleSprite@@@std@@@std@@@2@XZ 000000014001f910 f i Framework:SimpleSprite.obj
 0002:0000e980       ?_Get_scary@?$_Tree@V?$_Tmap_traits@PEBDUsTextureDef@CSimpleSprite@@U?$less@PEBD@std@@V?$allocator@U?$pair@QEBDUsTextureDef@CSimpleSprite@@@std@@@4@$0A@@std@@@std@@IEBAPEBV?$_Tree_val@U?$_Tree_simple_types@U?$pair@QEBDUsTextureDef@CSimpleSprite@@@std@@@std@@@2@XZ 000000014001f980 f i Framework:SimpleSprite.obj
 0002:0000e9f0       ?_Getal@?$_Tree@V?$_Tmap_traits@PEBDUsTextureDef@CSimpleSprite@@U?$less@PEBD@std@@V?$allocator@U?$pair@QEBDUsTextureDef@CSimpleSprite@@@std@@@4@$0A@@std@@@std@@IEAAAEAV?$allocator@U?$_Tree_node@U?$pair@QEBDUsTextureDef@CSimpleSprite@@@std@@PEAX@std@@@2@XZ 000000014001f9f0 f i Framework:SimpleSprite.obj
 0002:0000ea60       ?_Getal@?$_Tree@V?$_Tmap_traits@PEBDUsTextureDef@CSimpleSprite@@U?$less@PEBD@std@@V?$allocator@U?$pair@QEBDUsTextureDef@CSimpleSprite@@@std@@@4@$0A@@std@@@std@@IEBAAEBV?$allocator@U?$_Tree_node@U?$pair@QEBDUsTextureDef@CSimpleSprite@@@std@@PEAX@std@@@2@XZ 000000014001fa60 f i Framework:SimpleSprite.obj
 0002:0000ead0       ?_Getcomp@?$_Tree@V?$_Tmap_traits@PEBDUsTextureDef@CSimpleSprite@@U?$less@PEBD@std@@V?$allocator@U?$pair@QEBDUsTextureDef@CSimpleSprite@@@std@@@4@$0A@@std@@@std@@IEBAAEBU?$less@PEBD@2@XZ 000000014001fad0 f i Framework:SimpleSprite.obj
 0002:0000eb40       ?_Getcont@_Iterator_base12@std@@QEBAPEBU_Container_base12@2@XZ 000000014001fb40 f i Framework:SimpleSprite.obj
 0002:0000ebe0       ?_Insert_node@?$_Tree_val@U?$_Tree_simple_types@U?$pair@QEBDUsTextureDef@CSimpleSprite@@@std@@@std@@@std@@QEAAPEAU?$_Tree_node@U?$pair@QEBDUsTextureDef@CSimpleSprite@@@std@@PEAX@2@U?$_Tree_id@PEAU?$_Tree_node@U?$pair@QEBDUsTextureDef@CSimpleSprite@@@std@@PEAX@std@@@2@QEAU32@@Z 000000014001fbe0 f i Framework:SimpleSprite.obj
 0002:0000efd0       ?_Lrotate@?$_Tree_val@U?$_Tree_simple_types@U?$pair@QEBDUsTextureDef@CSimpleSprite@@@std@@@std@@@std@@QEAAXPEAU?$_Tree_node@U?$pair@QEBDUsTextureDef@CSimpleSprite@@@std@@PEAX@2@@Z 000000014001ffd0 f i Framework:SimpleSprite.obj
 0002:0000f140       ?_Orphan_me@_Iterator_base12@std@@QEAAXXZ 0000000140020140 f i Framework:SimpleSprite.obj
 0002:0000f2c0       ?_Release@?$_Alloc_construct_ptr@V?$allocator@U?$_Tree_node@U?$pair@QEBDUsTextureDef@CSimpleSprite@@@std@@PEAX@std@@@std@@@std@@QEAAPEAU?$_Tree_node@U?$pair@QEBDUsTextureDef@CSimpleSprite@@@std@@PEAX@2@XZ 00000001400202c0 f i Framework:SimpleSprite.obj
 0002:0000f340       ?_Release@_Basic_container_proxy_ptr12@std@@QEAAXXZ 0000000140020340 f i Framework:SimpleSprite.obj
 0002:0000f3b0       ?_Rrotate@?$_Tree_val@U?$_Tree_simple_types@U?$pair@QEBDUsTextureDef@CSimpleSprite@@@std@@@std@@@std@@QEAAXPEAU?$_Tree_node@U?$pair@QEBDUsTextureDef@CSimpleSprite@@@std@@PEAX@2@@Z 00000001400203b0 f i Framework:SimpleSprite.obj
 0002:0000f520       ?_Throw_tree_length_error@std@@YAXXZ 0000000140020520 f i Framework:SimpleSprite.obj
 0002:0000f570       ?__autoclassinit2@?$map@PEBDUsTextureDef@CSimpleSprite@@U?$less@PEBD@std@@V?$allocator@U?$pair@QEBDUsTextureDef@CSimpleSprite@@@std@@@4@@std@@QEAAX_K@Z 0000000140020570 f i Framework:SimpleSprite.obj
 0002:0000f5d0       ?allocate@?$allocator@U?$_Tree_node@U?$pair@QEBDUsTextureDef@CSimpleSprite@@@std@@PEAX@std@@@std@@QEAAPEAU?$_Tree_node@U?$pair@QEBDUsTextureDef@CSimpleSprite@@@std@@PEAX@2@_K@Z 00000001400205d0 f i Framework:SimpleSprite.obj
 0002:0000f640       ?deallocate@?$_Default_allocator_traits@V?$allocator@U?$_Tree_node@U?$pair@QEBDUsTextureDef@CSimpleSprite@@@std@@PEAX@std@@@std@@@std@@SAXAEAV?$allocator@U?$_Tree_node@U?$pair@QEBDUsTextureDef@CSimpleSprite@@@std@@PEAX@std@@@2@QEAU?$_Tree_node@U?$pair@QEBDUsTextureDef@CSimpleSprite@@@std@@PEAX@2@_K@Z 0000000140020640 f i Framework:SimpleSprite.obj
 0002:0000f6c0       ?deallocate@?$allocator@U?$_Tree_node@U?$pair@QEBDUsTextureDef@CSimpleSprite@@@std@@PEAX@std@@@std@@QEAAXQEAU?$_Tree_node@U?$pair@QEBDUsTextureDef@CSimpleSprite@@@std@@PEAX@2@_K@Z 00000001400206c0 f i Framework:SimpleSprite.obj
 0002:0000f740       ?end@?$_Tree@V?$_Tmap_traits@PEBDUsTextureDef@CSimpleSprite@@U?$less@PEBD@std@@V?$allocator@U?$pair@QEBDUsTextureDef@CSimpleSprite@@@std@@@4@$0A@@std@@@std@@QEAA?AV?$_Tree_iterator@V?$_Tree_val@U?$_Tree_simple_types@U?$pair@QEBDUsTextureDef@CSimpleSprite@@@std@@@std@@@std@@@2@XZ 0000000140020740 f i Framework:SimpleSprite.obj
 0002:0000f7e0       ?find@?$_Tree@V?$_Tmap_traits@PEBDUsTextureDef@CSimpleSprite@@U?$less@PEBD@std@@V?$allocator@U?$pair@QEBDUsTextureDef@CSimpleSprite@@@std@@@4@$0A@@std@@@std@@QEAA?AV?$_Tree_iterator@V?$_Tree_val@U?$_Tree_simple_types@U?$pair@QEBDUsTextureDef@CSimpleSprite@@@std@@@std@@@std@@@2@AEBQEBD@Z 00000001400207e0 f i Framework:SimpleSprite.obj
 0002:0000f8c0       ?max_size@?$_Default_allocator_traits@V?$allocator@U?$_Tree_node@U?$pair@QEBDUsTextureDef@CSimpleSprite@@@std@@PEAX@std@@@std@@@std@@SA_KAEBV?$allocator@U?$_Tree_node@U?$pair@QEBDUsTextureDef@CSimpleSprite@@@std@@PEAX@std@@@2@@Z 00000001400208c0 f i Framework:SimpleSprite.obj
 0002:0000f920       ?max_size@?$_Tree@V?$_Tmap_traits@PEBDUsTextureDef@CSimpleSprite@@U?$less@PEBD@std@@V?$allocator@U?$pair@QEBDUsTextureDef@CSimpleSprite@@@std@@@4@$0A@@std@@@std@@QEBA_KXZ 0000000140020920 f i Framework:SimpleSprite.obj
 0002:0000f9d0       ??0CController@@QEAA@XZ    00000001400209d0 f i Framework:SimpleController.obj
 0002:0000fa80       ??0CSimpleControllers@@QEAA@XZ 0000000140020a80 f i Framework:SimpleController.obj
 0002:0000faf0       ??_H@YAXPEAX_K1P6APEAX0@Z@Z 0000000140020af0 f i Framework:SimpleController.obj
 0002:0000fbe0       ?GetInstance@CSimpleControllers@@SAAEAV1@XZ 0000000140020be0 f   Framework:SimpleController.obj
 0002:0000fca0       ?Update@CSimpleControllers@@QEAAXXZ 0000000140020ca0 f   Framework:SimpleController.obj
 0002:00010580       ??$?0$$V@?$_Compressed_pair@V?$allocator@U?$_Tree_node@U?$pair@QEBDPEAUIDirectSoundBuffer8@@@std@@PEAX@std@@@std@@V?$_Tree_val@U?$_Tree_simple_types@U?$pair@QEBDPEAUIDirectSoundBuffer8@@@std@@@std@@@2@$00@std@@QEAA@U_Zero_then_variadic_args_t@1@@Z 0000000140021580 f i Framework:SimpleSound.obj
 0002:00010600       ??$?0AEBQEAU?$_Tree_node@U?$pair@QEBDPEAUIDirectSoundBuffer8@@@std@@PEAX@std@@_N$0A@@?$pair@PEAU?$_Tree_node@U?$pair@QEBDPEAUIDirectSoundBuffer8@@@std@@PEAX@std@@_N@std@@QEAA@AEBQEAU?$_Tree_node@U?$pair@QEBDPEAUIDirectSoundBuffer8@@@std@@PEAX@1@$$QEA_N@Z 0000000140021600 f i Framework:SimpleSound.obj
 0002:000106b0       ??$?0AEBQEBD$$Z$$V@?$pair@QEBDPEAUIDirectSoundBuffer8@@@std@@QEAA@Upiecewise_construct_t@1@V?$tuple@AEBQEBD@1@V?$tuple@$$V@1@@Z 00000001400216b0 f i Framework:SimpleSound.obj
 0002:00010760       ??$?0AEBU?$less@PEBD@std@@U_Zero_then_variadic_args_t@1@@?$_Compressed_pair@U?$less@PEBD@std@@V?$_Compressed_pair@V?$allocator@U?$_Tree_node@U?$pair@QEBDPEAUIDirectSoundBuffer8@@@std@@PEAX@std@@@std@@V?$_Tree_val@U?$_Tree_simple_types@U?$pair@QEBDPEAUIDirectSoundBuffer8@@@std@@@std@@@2@$00@2@$00@std@@QEAA@U_One_then_variadic_args_t@1@AEBU?$less@PEBD@1@$$QEAU_Zero_then_variadic_args_t@1@@Z 0000000140021760 f i Framework:SimpleSound.obj
 0002:00010800       ??$?0AEBUpiecewise_construct_t@std@@V?$tuple@AEBQEBD@1@V?$tuple@$$V@1@@?$_Tree_temp_node@V?$allocator@U?$_Tree_node@U?$pair@QEBDPEAUIDirectSoundBuffer8@@@std@@PEAX@std@@@std@@@std@@QEAA@AEAV?$allocator@U?$_Tree_node@U?$pair@QEBDPEAUIDirectSoundBuffer8@@@std@@PEAX@std@@@1@PEAU?$_Tree_node@U?$pair@QEBDPEAUIDirectSoundBuffer8@@@std@@PEAX@1@AEBUpiecewise_construct_t@1@$$QEAV?$tuple@AEBQEBD@1@$$QEAV?$tuple@$$V@1@@Z 0000000140021800 f i Framework:SimpleSound.obj
 0002:000109c0       ??$?0PEAU?$_Tree_node@U?$pair@QEBDPEAUIDirectSoundBuffer8@@@std@@PEAX@std@@_N$0A@@?$pair@PEAU?$_Tree_node@U?$pair@QEBDPEAUIDirectSoundBuffer8@@@std@@PEAX@std@@_N@std@@QEAA@$$QEAPEAU?$_Tree_node@U?$pair@QEBDPEAUIDirectSoundBuffer8@@@std@@PEAX@1@$$QEA_N@Z 00000001400219c0 f i Framework:SimpleSound.obj
 0002:00010a70       ??$?0U?$_Tree_node@U?$pair@QEBDPEAUIDirectSoundBuffer8@@@std@@PEAX@std@@@?$allocator@U_Container_proxy@std@@@std@@QEAA@AEBV?$allocator@U?$_Tree_node@U?$pair@QEBDPEAUIDirectSoundBuffer8@@@std@@PEAX@std@@@1@@Z 0000000140021a70 f i Framework:SimpleSound.obj
 0002:00010ad0       ??$?0V?$tuple@AEBQEBD@std@@V?$tuple@$$V@1@$0A@$$Z$S@?$pair@QEBDPEAUIDirectSoundBuffer8@@@std@@QEAA@AEAV?$tuple@AEBQEBD@1@AEAV?$tuple@$$V@1@U?$integer_sequence@_K$0A@@1@U?$integer_sequence@_K$S@1@@Z 0000000140021ad0 f i Framework:SimpleSound.obj
 0002:00010b80       ??$_Buyheadnode@V?$allocator@U?$_Tree_node@U?$pair@QEBDPEAUIDirectSoundBuffer8@@@std@@PEAX@std@@@std@@@?$_Tree_node@U?$pair@QEBDPEAUIDirectSoundBuffer8@@@std@@PEAX@std@@SAPEAU01@AEAV?$allocator@U?$_Tree_node@U?$pair@QEBDPEAUIDirectSoundBuffer8@@@std@@PEAX@std@@@1@@Z 0000000140021b80 f i Framework:SimpleSound.obj
 0002:00010c90       ??$_Construct_in_place@PEAU?$_Tree_node@U?$pair@QEBDPEAUIDirectSoundBuffer8@@@std@@PEAX@std@@AEAPEAU12@@std@@YAXAEAPEAU?$_Tree_node@U?$pair@QEBDPEAUIDirectSoundBuffer8@@@std@@PEAX@0@0@Z 0000000140021c90 f i Framework:SimpleSound.obj
 0002:00010d40       ??$_Construct_in_place@PEAU?$_Tree_node@U?$pair@QEBDPEAUIDirectSoundBuffer8@@@std@@PEAX@std@@AEBQEAU12@@std@@YAXAEAPEAU?$_Tree_node@U?$pair@QEBDPEAUIDirectSoundBuffer8@@@std@@PEAX@0@AEBQEAU10@@Z 0000000140021d40 f i Framework:SimpleSound.obj
 0002:00010df0       ??$_Destroy_in_place@PEAU?$_Tree_node@U?$pair@QEBDPEAUIDirectSoundBuffer8@@@std@@PEAX@std@@@std@@YAXAEAPEAU?$_Tree_node@U?$pair@QEBDPEAUIDirectSoundBuffer8@@@std@@PEAX@0@@Z 0000000140021df0 f i Framework:SimpleSound.obj
 0002:00010e50       ??$_Erase_head@V?$allocator@U?$_Tree_node@U?$pair@QEBDPEAUIDirectSoundBuffer8@@@std@@PEAX@std@@@std@@@?$_Tree_val@U?$_Tree_simple_types@U?$pair@QEBDPEAUIDirectSoundBuffer8@@@std@@@std@@@std@@QEAAXAEAV?$allocator@U?$_Tree_node@U?$pair@QEBDPEAUIDirectSoundBuffer8@@@std@@PEAX@std@@@1@@Z 0000000140021e50 f i Framework:SimpleSound.obj
 0002:00010f10       ??$_Erase_tree@V?$allocator@U?$_Tree_node@U?$pair@QEBDPEAUIDirectSoundBuffer8@@@std@@PEAX@std@@@std@@@?$_Tree_val@U?$_Tree_simple_types@U?$pair@QEBDPEAUIDirectSoundBuffer8@@@std@@@std@@@std@@QEAAXAEAV?$allocator@U?$_Tree_node@U?$pair@QEBDPEAUIDirectSoundBuffer8@@@std@@PEAX@std@@@1@PEAU?$_Tree_node@U?$pair@QEBDPEAUIDirectSoundBuffer8@@@std@@PEAX@1@@Z 0000000140021f10 f i Framework:SimpleSound.obj
 0002:00010fe0       ??$_Find_lower_bound@PEBD@?$_Tree@V?$_Tmap_traits@PEBDPEAUIDirectSoundBuffer8@@U?$less@PEBD@std@@V?$allocator@U?$pair@QEBDPEAUIDirectSoundBuffer8@@@std@@@3@$0A@@std@@@std@@IEBA?AU?$_Tree_find_result@PEAU?$_Tree_node@U?$pair@QEBDPEAUIDirectSoundBuffer8@@@std@@PEAX@std@@@1@AEBQEBD@Z 0000000140021fe0 f i Framework:SimpleSound.obj
 0002:000111a0       ??$_Freenode0@V?$allocator@U?$_Tree_node@U?$pair@QEBDPEAUIDirectSoundBuffer8@@@std@@PEAX@std@@@std@@@?$_Tree_node@U?$pair@QEBDPEAUIDirectSoundBuffer8@@@std@@PEAX@std@@SAXAEAV?$allocator@U?$_Tree_node@U?$pair@QEBDPEAUIDirectSoundBuffer8@@@std@@PEAX@std@@@1@PEAU01@@Z 00000001400221a0 f i Framework:SimpleSound.obj
 0002:00011260       ??$_Freenode@V?$allocator@U?$_Tree_node@U?$pair@QEBDPEAUIDirectSoundBuffer8@@@std@@PEAX@std@@@std@@@?$_Tree_node@U?$pair@QEBDPEAUIDirectSoundBuffer8@@@std@@PEAX@std@@SAXAEAV?$allocator@U?$_Tree_node@U?$pair@QEBDPEAUIDirectSoundBuffer8@@@std@@PEAX@std@@@1@PEAU01@@Z 0000000140022260 f i Framework:SimpleSound.obj
 0002:00011300       ??$_Get_size_of_n@$0DA@@std@@YA_K_K@Z 0000000140022300 f i Framework:SimpleSound.obj
 0002:00011390       ??$_Kfn@QEBDPEAUIDirectSoundBuffer8@@@?$_Tmap_traits@PEBDPEAUIDirectSoundBuffer8@@U?$less@PEBD@std@@V?$allocator@U?$pair@QEBDPEAUIDirectSoundBuffer8@@@std@@@3@$0A@@std@@SAAEBQEBDAEBU?$pair@QEBDPEAUIDirectSoundBuffer8@@@1@@Z 0000000140022390 f i Framework:SimpleSound.obj
 0002:000113f0       ??$_Lower_bound_duplicate@PEBD@?$_Tree@V?$_Tmap_traits@PEBDPEAUIDirectSoundBuffer8@@U?$less@PEBD@std@@V?$allocator@U?$pair@QEBDPEAUIDirectSoundBuffer8@@@std@@@3@$0A@@std@@@std@@IEBA_NQEAU?$_Tree_node@U?$pair@QEBDPEAUIDirectSoundBuffer8@@@std@@PEAX@1@AEBQEBD@Z 00000001400223f0 f i Framework:SimpleSound.obj
 0002:000114e0       ??$_Try_emplace@AEBQEBD$$V@?$map@PEBDPEAUIDirectSoundBuffer8@@U?$less@PEBD@std@@V?$allocator@U?$pair@QEBDPEAUIDirectSoundBuffer8@@@std@@@3@@std@@AEAA?AU?$pair@PEAU?$_Tree_node@U?$pair@QEBDPEAUIDirectSoundBuffer8@@@std@@PEAX@std@@_N@1@AEBQEBD@Z 00000001400224e0 f i Framework:SimpleSound.obj
 0002:00011750       ??$addressof@$$CBV?$_Tree_val@U?$_Tree_simple_types@U?$pair@QEBDPEAUIDirectSoundBuffer8@@@std@@@std@@@std@@@std@@YAPEBV?$_Tree_val@U?$_Tree_simple_types@U?$pair@QEBDPEAUIDirectSoundBuffer8@@@std@@@std@@@0@AEBV10@@Z 0000000140022750 f i Framework:SimpleSound.obj
 0002:000117b0       ??$addressof@PEAU?$_Tree_node@U?$pair@QEBDPEAUIDirectSoundBuffer8@@@std@@PEAX@std@@@std@@YAPEAPEAU?$_Tree_node@U?$pair@QEBDPEAUIDirectSoundBuffer8@@@std@@PEAX@0@AEAPEAU10@@Z 00000001400227b0 f i Framework:SimpleSound.obj
 0002:00011810       ??$addressof@U?$pair@QEBDPEAUIDirectSoundBuffer8@@@std@@@std@@YAPEAU?$pair@QEBDPEAUIDirectSoundBuffer8@@@0@AEAU10@@Z 0000000140022810 f i Framework:SimpleSound.obj
 0002:00011870       ??$addressof@V?$_Tree_val@U?$_Tree_simple_types@U?$pair@QEBDPEAUIDirectSoundBuffer8@@@std@@@std@@@std@@@std@@YAPEAV?$_Tree_val@U?$_Tree_simple_types@U?$pair@QEBDPEAUIDirectSoundBuffer8@@@std@@@std@@@0@AEAV10@@Z 0000000140022870 f i Framework:SimpleSound.obj
 0002:000118d0       ??$construct@U?$pair@QEBDPEAUIDirectSoundBuffer8@@@std@@AEBUpiecewise_construct_t@2@V?$tuple@AEBQEBD@2@V?$tuple@$$V@2@@?$_Default_allocator_traits@V?$allocator@U?$_Tree_node@U?$pair@QEBDPEAUIDirectSoundBuffer8@@@std@@PEAX@std@@@std@@@std@@SAXAEAV?$allocator@U?$_Tree_node@U?$pair@QEBDPEAUIDirectSoundBuffer8@@@std@@PEAX@std@@@1@QEAU?$pair@QEBDPEAUIDirectSoundBuffer8@@@1@AEBUpiecewise_construct_t@1@$$QEAV?$tuple@AEBQEBD@1@$$QEAV?$tuple@$$V@1@@Z 00000001400228d0 f i Framework:SimpleSound.obj
 0002:00011a10       ??$destroy@U?$pair@QEBDPEAUIDirectSoundBuffer8@@@std@@@?$_Default_allocator_traits@V?$allocator@U?$_Tree_node@U?$pair@QEBDPEAUIDirectSoundBuffer8@@@std@@PEAX@std@@@std@@@std@@SAXAEAV?$allocator@U?$_Tree_node@U?$pair@QEBDPEAUIDirectSoundBuffer8@@@std@@PEAX@std@@@1@QEAU?$pair@QEBDPEAUIDirectSoundBuffer8@@@1@@Z 0000000140022a10 f i Framework:SimpleSound.obj
 0002:00011a70       ??$exchange@PEAU?$_Tree_node@U?$pair@QEBDPEAUIDirectSoundBuffer8@@@std@@PEAX@std@@$$T@std@@YAPEAU?$_Tree_node@U?$pair@QEBDPEAUIDirectSoundBuffer8@@@std@@PEAX@0@AEAPEAU10@$$QEA$$T@Z 0000000140022a70 f i Framework:SimpleSound.obj
 0002:00011b00       ??$exchange@PEAU?$_Tree_node@U?$pair@QEBDPEAUIDirectSoundBuffer8@@@std@@PEAX@std@@AEAPEAU12@@std@@YAPEAU?$_Tree_node@U?$pair@QEBDPEAUIDirectSoundBuffer8@@@std@@PEAX@0@AEAPEAU10@0@Z 0000000140022b00 f i Framework:SimpleSound.obj
 0002:00011b90       ??$forward@AEAPEAU?$_Tree_node@U?$pair@QEBDPEAUIDirectSoundBuffer8@@@std@@PEAX@std@@@std@@YAAEAPEAU?$_Tree_node@U?$pair@QEBDPEAUIDirectSoundBuffer8@@@std@@PEAX@0@AEAPEAU10@@Z 0000000140022b90 f i Framework:SimpleSound.obj
 0002:00011bf0       ??$forward@AEBQEAU?$_Tree_node@U?$pair@QEBDPEAUIDirectSoundBuffer8@@@std@@PEAX@std@@@std@@YAAEBQEAU?$_Tree_node@U?$pair@QEBDPEAUIDirectSoundBuffer8@@@std@@PEAX@0@AEBQEAU10@@Z 0000000140022bf0 f i Framework:SimpleSound.obj
 0002:00011c50       ??$forward@PEAU?$_Tree_node@U?$pair@QEBDPEAUIDirectSoundBuffer8@@@std@@PEAX@std@@@std@@YA$$QEAPEAU?$_Tree_node@U?$pair@QEBDPEAUIDirectSoundBuffer8@@@std@@PEAX@0@AEAPEAU10@@Z 0000000140022c50 f i Framework:SimpleSound.obj
 0002:00011cb0       ??0?$_Alloc_construct_ptr@V?$allocator@U?$_Tree_node@U?$pair@QEBDPEAUIDirectSoundBuffer8@@@std@@PEAX@std@@@std@@@std@@QEAA@AEAV?$allocator@U?$_Tree_node@U?$pair@QEBDPEAUIDirectSoundBuffer8@@@std@@PEAX@std@@@1@@Z 0000000140022cb0 f i Framework:SimpleSound.obj
 0002:00011d40       ??0?$_Tree@V?$_Tmap_traits@PEBDPEAUIDirectSoundBuffer8@@U?$less@PEBD@std@@V?$allocator@U?$pair@QEBDPEAUIDirectSoundBuffer8@@@std@@@3@$0A@@std@@@std@@QEAA@AEBU?$less@PEBD@1@@Z 0000000140022d40 f i Framework:SimpleSound.obj
 0002:00011de0       ??0?$_Tree_temp_node_alloc@V?$allocator@U?$_Tree_node@U?$pair@QEBDPEAUIDirectSoundBuffer8@@@std@@PEAX@std@@@std@@@std@@QEAA@AEAV?$allocator@U?$_Tree_node@U?$pair@QEBDPEAUIDirectSoundBuffer8@@@std@@PEAX@std@@@1@@Z 0000000140022de0 f i Framework:SimpleSound.obj
 0002:00011e70       ??0?$_Tree_unchecked_const_iterator@V?$_Tree_val@U?$_Tree_simple_types@U?$pair@QEBDPEAUIDirectSoundBuffer8@@@std@@@std@@@std@@U_Iterator_base0@2@@std@@QEAA@PEAU?$_Tree_node@U?$pair@QEBDPEAUIDirectSoundBuffer8@@@std@@PEAX@1@PEBV?$_Tree_val@U?$_Tree_simple_types@U?$pair@QEBDPEAUIDirectSoundBuffer8@@@std@@@std@@@1@@Z 0000000140022e70 f i Framework:SimpleSound.obj
 0002:00011f10       ??0?$_Tree_unchecked_iterator@V?$_Tree_val@U?$_Tree_simple_types@U?$pair@QEBDPEAUIDirectSoundBuffer8@@@std@@@std@@@std@@@std@@QEAA@PEAU?$_Tree_node@U?$pair@QEBDPEAUIDirectSoundBuffer8@@@std@@PEAX@1@PEBV?$_Tree_val@U?$_Tree_simple_types@U?$pair@QEBDPEAUIDirectSoundBuffer8@@@std@@@std@@@1@@Z 0000000140022f10 f i Framework:SimpleSound.obj
 0002:00011fa0       ??0?$_Tree_val@U?$_Tree_simple_types@U?$pair@QEBDPEAUIDirectSoundBuffer8@@@std@@@std@@@std@@QEAA@XZ 0000000140022fa0 f i Framework:SimpleSound.obj
 0002:00012030       ??0?$allocator@U?$_Tree_node@U?$pair@QEBDPEAUIDirectSoundBuffer8@@@std@@PEAX@std@@@std@@QEAA@XZ 0000000140023030 f i Framework:SimpleSound.obj
 0002:00012090       ??0?$map@PEBDPEAUIDirectSoundBuffer8@@U?$less@PEBD@std@@V?$allocator@U?$pair@QEBDPEAUIDirectSoundBuffer8@@@std@@@3@@std@@QEAA@XZ 0000000140023090 f i Framework:SimpleSound.obj
 0002:00012100       ??0CSimpleSound@@QEAA@XZ   0000000140023100 f   Framework:SimpleSound.obj
 0002:000121a0       ??1?$_Alloc_construct_ptr@V?$allocator@U?$_Tree_node@U?$pair@QEBDPEAUIDirectSoundBuffer8@@@std@@PEAX@std@@@std@@@std@@QEAA@XZ 00000001400231a0 f i Framework:SimpleSound.obj
 0002:00012230       ??1?$_Tree@V?$_Tmap_traits@PEBDPEAUIDirectSoundBuffer8@@U?$less@PEBD@std@@V?$allocator@U?$pair@QEBDPEAUIDirectSoundBuffer8@@@std@@@3@$0A@@std@@@std@@QEAA@XZ 0000000140023230 f i Framework:SimpleSound.obj
 0002:00012340       ??1?$_Tree_temp_node@V?$allocator@U?$_Tree_node@U?$pair@QEBDPEAUIDirectSoundBuffer8@@@std@@PEAX@std@@@std@@@std@@QEAA@XZ 0000000140023340 f i Framework:SimpleSound.obj
 0002:00012440       ??1?$_Tree_temp_node_alloc@V?$allocator@U?$_Tree_node@U?$pair@QEBDPEAUIDirectSoundBuffer8@@@std@@PEAX@std@@@std@@@std@@QEAA@XZ 0000000140023440 f i Framework:SimpleSound.obj
 0002:00012490       ??1?$map@PEBDPEAUIDirectSoundBuffer8@@U?$less@PEBD@std@@V?$allocator@U?$pair@QEBDPEAUIDirectSoundBuffer8@@@std@@@3@@std@@QEAA@XZ 0000000140023490 f i Framework:SimpleSound.obj
 0002:000124e0       ??1CSimpleSound@@QEAA@XZ   00000001400234e0 f   Framework:SimpleSound.obj
 0002:00012560       ??9?$_Tree_unchecked_const_iterator@V?$_Tree_val@U?$_Tree_simple_types@U?$pair@QEBDPEAUIDirectSoundBuffer8@@@std@@@std@@@std@@U_Iterator_base0@2@@std@@QEBA_NU_Default_sentinel@1@@Z 0000000140023560 f i Framework:SimpleSound.obj
 0002:00012600       ??A?$map@PEBDPEAUIDirectSoundBuffer8@@U?$less@PEBD@std@@V?$allocator@U?$pair@QEBDPEAUIDirectSoundBuffer8@@@std@@@3@@std@@QEAAAEAPEAUIDirectSoundBuffer8@@AEBQEBD@Z 0000000140023600 f i Framework:SimpleSound.obj
 0002:00012680       ??D?$_Tree_unchecked_const_iterator@V?$_Tree_val@U?$_Tree_simple_types@U?$pair@QEBDPEAUIDirectSoundBuffer8@@@std@@@std@@@std@@U_Iterator_base0@2@@std@@QEBAAEBU?$pair@QEBDPEAUIDirectSoundBuffer8@@@1@XZ 0000000140023680 f i Framework:SimpleSound.obj
 0002:000126f0       ??D?$_Tree_unchecked_iterator@V?$_Tree_val@U?$_Tree_simple_types@U?$pair@QEBDPEAUIDirectSoundBuffer8@@@std@@@std@@@std@@@std@@QEBAAEAU?$pair@QEBDPEAUIDirectSoundBuffer8@@@1@XZ 00000001400236f0 f i Framework:SimpleSound.obj
 0002:00012750       ??E?$_Tree_unchecked_const_iterator@V?$_Tree_val@U?$_Tree_simple_types@U?$pair@QEBDPEAUIDirectSoundBuffer8@@@std@@@std@@@std@@U_Iterator_base0@2@@std@@QEAAAEAV01@XZ 0000000140023750 f i Framework:SimpleSound.obj
 0002:00012850       ??E?$_Tree_unchecked_iterator@V?$_Tree_val@U?$_Tree_simple_types@U?$pair@QEBDPEAUIDirectSoundBuffer8@@@std@@@std@@@std@@@std@@QEAAAEAV01@XZ 0000000140023850 f i Framework:SimpleSound.obj
 0002:000128c0       ?GetInstance@CSimpleSound@@SAAEAV1@XZ 00000001400238c0 f   Framework:SimpleSound.obj
 0002:000129a0       ?Initialize@CSimpleSound@@QEAA_NPEAUHWND__@@@Z 00000001400239a0 f   Framework:SimpleSound.obj
 0002:00012a10       ?InitializeDirectSound@CSimpleSound@@AEAA_NPEAUHWND__@@@Z 0000000140023a10 f   Framework:SimpleSound.obj
 0002:00012c80       ?IsPlaying@CSimpleSound@@QEAA_NPEBD@Z 0000000140023c80 f   Framework:SimpleSound.obj
 0002:00012dd0       ?LoadWaveFile@CSimpleSound@@AEAA_NPEBD@Z 0000000140023dd0 f   Framework:SimpleSound.obj
 0002:00013490       ?Shutdown@CSimpleSound@@QEAAXXZ 0000000140024490 f   Framework:SimpleSound.obj
 0002:000135f0       ?ShutdownDirectSound@CSimpleSound@@AEAAXXZ 00000001400245f0 f   Framework:SimpleSound.obj
 0002:000136d0       ?StartSound@CSimpleSound@@QEAA_NPEBDK@Z 00000001400246d0 f   Framework:SimpleSound.obj
 0002:000138e0       ?StopSound@CSimpleSound@@QEAA_NPEBD@Z 00000001400248e0 f   Framework:SimpleSound.obj
 0002:00013a10       ?_Adopt@_Iterator_base0@std@@QEAAXPEBX@Z 0000000140024a10 f i Framework:SimpleSound.obj
 0002:00013a70       ?_Alloc_sentinel_and_proxy@?$_Tree@V?$_Tmap_traits@PEBDPEAUIDirectSoundBuffer8@@U?$less@PEBD@std@@V?$allocator@U?$pair@QEBDPEAUIDirectSoundBuffer8@@@std@@@3@$0A@@std@@@std@@IEAAXXZ 0000000140024a70 f i Framework:SimpleSound.obj
 0002:00013b90       ?_Allocate@?$_Alloc_construct_ptr@V?$allocator@U?$_Tree_node@U?$pair@QEBDPEAUIDirectSoundBuffer8@@@std@@PEAX@std@@@std@@@std@@QEAAXXZ 0000000140024b90 f i Framework:SimpleSound.obj
 0002:00013c20       ?_Check_grow_by_1@?$_Tree@V?$_Tmap_traits@PEBDPEAUIDirectSoundBuffer8@@U?$less@PEBD@std@@V?$allocator@U?$pair@QEBDPEAUIDirectSoundBuffer8@@@std@@@3@$0A@@std@@@std@@IEAAXXZ 0000000140024c20 f i Framework:SimpleSound.obj
 0002:00013cb0       ?_Get_first@?$_Compressed_pair@U?$less@PEBD@std@@V?$_Compressed_pair@V?$allocator@U?$_Tree_node@U?$pair@QEBDPEAUIDirectSoundBuffer8@@@std@@PEAX@std@@@std@@V?$_Tree_val@U?$_Tree_simple_types@U?$pair@QEBDPEAUIDirectSoundBuffer8@@@std@@@std@@@2@$00@2@$00@std@@QEBAAEBU?$less@PEBD@2@XZ 0000000140024cb0 f i Framework:SimpleSound.obj
 0002:00013d10       ?_Get_first@?$_Compressed_pair@V?$allocator@U?$_Tree_node@U?$pair@QEBDPEAUIDirectSoundBuffer8@@@std@@PEAX@std@@@std@@V?$_Tree_val@U?$_Tree_simple_types@U?$pair@QEBDPEAUIDirectSoundBuffer8@@@std@@@std@@@2@$00@std@@QEAAAEAV?$allocator@U?$_Tree_node@U?$pair@QEBDPEAUIDirectSoundBuffer8@@@std@@PEAX@std@@@2@XZ 0000000140024d10 f i Framework:SimpleSound.obj
 0002:00013d70       ?_Get_first@?$_Compressed_pair@V?$allocator@U?$_Tree_node@U?$pair@QEBDPEAUIDirectSoundBuffer8@@@std@@PEAX@std@@@std@@V?$_Tree_val@U?$_Tree_simple_types@U?$pair@QEBDPEAUIDirectSoundBuffer8@@@std@@@std@@@2@$00@std@@QEBAAEBV?$allocator@U?$_Tree_node@U?$pair@QEBDPEAUIDirectSoundBuffer8@@@std@@PEAX@std@@@2@XZ 0000000140024d70 f i Framework:SimpleSound.obj
 0002:00013dd0       ?_Get_scary@?$_Tree@V?$_Tmap_traits@PEBDPEAUIDirectSoundBuffer8@@U?$less@PEBD@std@@V?$allocator@U?$pair@QEBDPEAUIDirectSoundBuffer8@@@std@@@3@$0A@@std@@@std@@IEAAPEAV?$_Tree_val@U?$_Tree_simple_types@U?$pair@QEBDPEAUIDirectSoundBuffer8@@@std@@@std@@@2@XZ 0000000140024dd0 f i Framework:SimpleSound.obj
 0002:00013e40       ?_Get_scary@?$_Tree@V?$_Tmap_traits@PEBDPEAUIDirectSoundBuffer8@@U?$less@PEBD@std@@V?$allocator@U?$pair@QEBDPEAUIDirectSoundBuffer8@@@std@@@3@$0A@@std@@@std@@IEBAPEBV?$_Tree_val@U?$_Tree_simple_types@U?$pair@QEBDPEAUIDirectSoundBuffer8@@@std@@@std@@@2@XZ 0000000140024e40 f i Framework:SimpleSound.obj
 0002:00013eb0       ?_Getal@?$_Tree@V?$_Tmap_traits@PEBDPEAUIDirectSoundBuffer8@@U?$less@PEBD@std@@V?$allocator@U?$pair@QEBDPEAUIDirectSoundBuffer8@@@std@@@3@$0A@@std@@@std@@IEAAAEAV?$allocator@U?$_Tree_node@U?$pair@QEBDPEAUIDirectSoundBuffer8@@@std@@PEAX@std@@@2@XZ 0000000140024eb0 f i Framework:SimpleSound.obj
 0002:00013f20       ?_Getal@?$_Tree@V?$_Tmap_traits@PEBDPEAUIDirectSoundBuffer8@@U?$less@PEBD@std@@V?$allocator@U?$pair@QEBDPEAUIDirectSoundBuffer8@@@std@@@3@$0A@@std@@@std@@IEBAAEBV?$allocator@U?$_Tree_node@U?$pair@QEBDPEAUIDirectSoundBuffer8@@@std@@PEAX@std@@@2@XZ 0000000140024f20 f i Framework:SimpleSound.obj
 0002:00013f90       ?_Getcomp@?$_Tree@V?$_Tmap_traits@PEBDPEAUIDirectSoundBuffer8@@U?$less@PEBD@std@@V?$allocator@U?$pair@QEBDPEAUIDirectSoundBuffer8@@@std@@@3@$0A@@std@@@std@@IEBAAEBU?$less@PEBD@2@XZ 0000000140024f90 f i Framework:SimpleSound.obj
 0002:00014000       ?_Insert_node@?$_Tree_val@U?$_Tree_simple_types@U?$pair@QEBDPEAUIDirectSoundBuffer8@@@std@@@std@@@std@@QEAAPEAU?$_Tree_node@U?$pair@QEBDPEAUIDirectSoundBuffer8@@@std@@PEAX@2@U?$_Tree_id@PEAU?$_Tree_node@U?$pair@QEBDPEAUIDirectSoundBuffer8@@@std@@PEAX@std@@@2@QEAU32@@Z 0000000140025000 f i Framework:SimpleSound.obj
 0002:000143f0       ?_Lrotate@?$_Tree_val@U?$_Tree_simple_types@U?$pair@QEBDPEAUIDirectSoundBuffer8@@@std@@@std@@@std@@QEAAXPEAU?$_Tree_node@U?$pair@QEBDPEAUIDirectSoundBuffer8@@@std@@PEAX@2@@Z 00000001400253f0 f i Framework:SimpleSound.obj
 0002:00014560       ?_Min@?$_Tree_val@U?$_Tree_simple_types@U?$pair@QEBDPEAUIDirectSoundBuffer8@@@std@@@std@@@std@@SAPEAU?$_Tree_node@U?$pair@QEBDPEAUIDirectSoundBuffer8@@@std@@PEAX@2@PEAU32@@Z 0000000140025560 f i Framework:SimpleSound.obj
 0002:000145f0       ?_Orphan_ptr@?$_Tree_val@U?$_Tree_simple_types@U?$pair@QEBDPEAUIDirectSoundBuffer8@@@std@@@std@@@std@@QEAAXQEAU?$_Tree_node@U?$pair@QEBDPEAUIDirectSoundBuffer8@@@std@@PEAX@2@@Z 00000001400255f0 f i Framework:SimpleSound.obj
 0002:00014750       ?_Release@?$_Alloc_construct_ptr@V?$allocator@U?$_Tree_node@U?$pair@QEBDPEAUIDirectSoundBuffer8@@@std@@PEAX@std@@@std@@@std@@QEAAPEAU?$_Tree_node@U?$pair@QEBDPEAUIDirectSoundBuffer8@@@std@@PEAX@2@XZ 0000000140025750 f i Framework:SimpleSound.obj
 0002:000147d0       ?_Rrotate@?$_Tree_val@U?$_Tree_simple_types@U?$pair@QEBDPEAUIDirectSoundBuffer8@@@std@@@std@@@std@@QEAAXPEAU?$_Tree_node@U?$pair@QEBDPEAUIDirectSoundBuffer8@@@std@@PEAX@2@@Z 00000001400257d0 f i Framework:SimpleSound.obj
 0002:00014940       ?_Unchecked_begin@?$_Tree@V?$_Tmap_traits@PEBDPEAUIDirectSoundBuffer8@@U?$less@PEBD@std@@V?$allocator@U?$pair@QEBDPEAUIDirectSoundBuffer8@@@std@@@3@$0A@@std@@@std@@QEAA?AV?$_Tree_unchecked_iterator@V?$_Tree_val@U?$_Tree_simple_types@U?$pair@QEBDPEAUIDirectSoundBuffer8@@@std@@@std@@@std@@@2@XZ 0000000140025940 f i Framework:SimpleSound.obj
 0002:000149d0       ?_Unchecked_end@?$_Tree@V?$_Tmap_traits@PEBDPEAUIDirectSoundBuffer8@@U?$less@PEBD@std@@V?$allocator@U?$pair@QEBDPEAUIDirectSoundBuffer8@@@std@@@3@$0A@@std@@@std@@QEBA?AU_Default_sentinel@2@XZ 00000001400259d0 f i Framework:SimpleSound.obj
 0002:00014a50       ?__autoclassinit2@?$_Tree_unchecked_iterator@V?$_Tree_val@U?$_Tree_simple_types@U?$pair@QEBDPEAUIDirectSoundBuffer8@@@std@@@std@@@std@@@std@@QEAAX_K@Z 0000000140025a50 f i Framework:SimpleSound.obj
 0002:00014ab0       ?__autoclassinit2@CSimpleSound@@QEAAX_K@Z 0000000140025ab0 f i Framework:SimpleSound.obj
 0002:00014b10       ?allocate@?$allocator@U?$_Tree_node@U?$pair@QEBDPEAUIDirectSoundBuffer8@@@std@@PEAX@std@@@std@@QEAAPEAU?$_Tree_node@U?$pair@QEBDPEAUIDirectSoundBuffer8@@@std@@PEAX@2@_K@Z 0000000140025b10 f i Framework:SimpleSound.obj
 0002:00014b80       ?clear@?$_Tree@V?$_Tmap_traits@PEBDPEAUIDirectSoundBuffer8@@U?$less@PEBD@std@@V?$allocator@U?$pair@QEBDPEAUIDirectSoundBuffer8@@@std@@@3@$0A@@std@@@std@@QEAAXXZ 0000000140025b80 f i Framework:SimpleSound.obj
 0002:00014c70       ?deallocate@?$_Default_allocator_traits@V?$allocator@U?$_Tree_node@U?$pair@QEBDPEAUIDirectSoundBuffer8@@@std@@PEAX@std@@@std@@@std@@SAXAEAV?$allocator@U?$_Tree_node@U?$pair@QEBDPEAUIDirectSoundBuffer8@@@std@@PEAX@std@@@2@QEAU?$_Tree_node@U?$pair@QEBDPEAUIDirectSoundBuffer8@@@std@@PEAX@2@_K@Z 0000000140025c70 f i Framework:SimpleSound.obj
 0002:00014cf0       ?deallocate@?$allocator@U?$_Tree_node@U?$pair@QEBDPEAUIDirectSoundBuffer8@@@std@@PEAX@std@@@std@@QEAAXQEAU?$_Tree_node@U?$pair@QEBDPEAUIDirectSoundBuffer8@@@std@@PEAX@2@_K@Z 0000000140025cf0 f i Framework:SimpleSound.obj
 0002:00014d70       ?max_size@?$_Default_allocator_traits@V?$allocator@U?$_Tree_node@U?$pair@QEBDPEAUIDirectSoundBuffer8@@@std@@PEAX@std@@@std@@@std@@SA_KAEBV?$allocator@U?$_Tree_node@U?$pair@QEBDPEAUIDirectSoundBuffer8@@@std@@PEAX@std@@@2@@Z 0000000140025d70 f i Framework:SimpleSound.obj
 0002:00014dd0       ?max_size@?$_Tree@V?$_Tmap_traits@PEBDPEAUIDirectSoundBuffer8@@U?$less@PEBD@std@@V?$allocator@U?$pair@QEBDPEAUIDirectSoundBuffer8@@@std@@@3@$0A@@std@@@std@@QEBA_KXZ 0000000140025dd0 f i Framework:SimpleSound.obj
 0002:00014e80       ?loadBMPRaw@@YAPEAEPEBDAEAI1_N@Z 0000000140025e80 f   Framework:TextureLoader.obj
 0002:0001578c       DirectSoundCreate8         000000014002678c f   dsound:DSOUND.dll
 0002:00015792       QueryPerformanceCounter    0000000140026792 f   kernel32:KERNEL32.dll
 0002:00015798       QueryPerformanceFrequency  0000000140026798 f   kernel32:KERNEL32.dll
 0002:0001579e       WindowFromDC               000000014002679e f   user32:USER32.dll
 0002:000157a4       GetClientRect              00000001400267a4 f   user32:USER32.dll
 0002:000157aa       GetAsyncKeyState           00000001400267aa f   user32:USER32.dll
 0002:000157b0       GetCursorPos               00000001400267b0 f   user32:USER32.dll
 0002:000157b6       ScreenToClient             00000001400267b6 f   user32:USER32.dll
 0002:000157c0       _CRT_RTC_INIT              00000001400267c0 f   MSVCRTD:init.obj
 0002:000157d0       _CRT_RTC_INITW             00000001400267d0 f   MSVCRTD:init.obj
 0002:000157e0       _RTC_InitBase              00000001400267e0 f   MSVCRTD:init.obj
 0002:00015830       _RTC_Shutdown              0000000140026830 f   MSVCRTD:init.obj
 0002:00015860       __CheckForDebuggerJustMyCode 0000000140026860 f   MSVCRTD:debugger_jmc.obj
 0002:000158b0       ??2@YAPEAX_K@Z             00000001400268b0 f   MSVCRTD:new_scalar.obj
 0002:00015920       ??3@YAXPEAX_K@Z            0000000140026920 f   MSVCRTD:delete_scalar_size.obj
 0002:00015950       ?configure_argv@__scrt_narrow_argv_policy@@SAHXZ 0000000140026950 f i MSVCRTD:utility.obj
 0002:00015a70       ?initialize_environment@__scrt_narrow_environment_policy@@SAHXZ 0000000140026a70 f i MSVCRTD:utility.obj
 0002:00015b40       NtCurrentTeb               0000000140026b40 f i MSVCRTD:utility.obj
 0002:00015b50       __scrt_acquire_startup_lock 0000000140026b50 f   MSVCRTD:utility.obj
 0002:00015bd0       __scrt_dllmain_after_initialize_c 0000000140026bd0 f   MSVCRTD:utility.obj
 0002:00015c10       __scrt_dllmain_before_initialize_c 0000000140026c10 f   MSVCRTD:utility.obj
 0002:00015c40       __scrt_dllmain_crt_thread_attach 0000000140026c40 f   MSVCRTD:utility.obj
 0002:00015c80       __scrt_dllmain_crt_thread_detach 0000000140026c80 f   MSVCRTD:utility.obj
 0002:00015ca0       __scrt_dllmain_exception_filter 0000000140026ca0 f   MSVCRTD:utility.obj
 0002:00015d20       __scrt_dllmain_uninitialize_c 0000000140026d20 f   MSVCRTD:utility.obj
 0002:00015d60       __scrt_dllmain_uninitialize_critical 0000000140026d60 f   MSVCRTD:utility.obj
 0002:00015d80       __scrt_initialize_crt      0000000140026d80 f   MSVCRTD:utility.obj
 0002:00015de0       __scrt_initialize_onexit_tables 0000000140026de0 f   MSVCRTD:utility.obj
 0002:00015f30       __scrt_is_nonwritable_in_current_image 0000000140026f30 f   MSVCRTD:utility.obj
 0002:00015fe0       __scrt_release_startup_lock 0000000140026fe0 f   MSVCRTD:utility.obj
 0002:00016020       __scrt_uninitialize_crt    0000000140027020 f   MSVCRTD:utility.obj
 0002:00016070       _onexit                    0000000140027070 f   MSVCRTD:utility.obj
 0002:00016110       at_quick_exit              0000000140027110 f   MSVCRTD:utility.obj
 0002:00016170       atexit                     0000000140027170 f   MSVCRTD:utility.obj
 0002:000161b0       _RTC_AllocaHelper          00000001400271b0 f   MSVCRTD:stack.obj
 0002:00016200       _RTC_CheckStackVars        0000000140027200 f   MSVCRTD:stack.obj
 0002:000162b0       _RTC_CheckStackVars2       00000001400272b0 f   MSVCRTD:stack.obj
 0002:00016400       __GSHandlerCheck           0000000140027400 f   MSVCRTD:gshandler.obj
 0002:00016450       __GSHandlerCheckCommon     0000000140027450 f   MSVCRTD:gshandler.obj
 0002:00016590       __GSHandlerCheck_EH4       0000000140027590 f   MSVCRTD:gshandlereh4.obj
 0002:00016670       __security_check_cookie    0000000140027670 f   MSVCRTD:amdsecgs.obj
 0002:000166a0       ??1type_info@@UEAA@XZ      00000001400276a0 f   MSVCRTD:std_type_info_static.obj
 0002:000166c0       ??_Etype_info@@UEAAPEAXI@Z 00000001400276c0 f i MSVCRTD:std_type_info_static.obj
 0002:000166c0       ??_Gtype_info@@UEAAPEAXI@Z 00000001400276c0 f i MSVCRTD:std_type_info_static.obj
 0002:00016a60       ?configure_argv@__scrt_wide_argv_policy@@SAHXZ 0000000140027a60 f i MSVCRTD:exe_wwinmain.obj
 0002:00016a80       ?initialize_environment@__scrt_wide_environment_policy@@SAHXZ 0000000140027a80 f i MSVCRTD:exe_wwinmain.obj
 0002:00016af0       ?set_app_type@__scrt_winmain_policy@@SAXXZ 0000000140027af0 f i MSVCRTD:exe_wwinmain.obj
 0002:00016b10       ?set_commode@__scrt_file_policy@@SAXXZ 0000000140027b10 f i MSVCRTD:exe_wwinmain.obj
 0002:00016b40       ?set_fmode@__scrt_file_policy@@SAXXZ 0000000140027b40 f i MSVCRTD:exe_wwinmain.obj
 0002:00016b60       wWinMainCRTStartup         0000000140027b60 f   MSVCRTD:exe_wwinmain.obj
 0002:00016d30       _Init_thread_abort         0000000140027d30 f   MSVCRTD:thread_safe_statics.obj
 0002:00016d70       _Init_thread_footer        0000000140027d70 f   MSVCRTD:thread_safe_statics.obj
 0002:00016df0       _Init_thread_header        0000000140027df0 f   MSVCRTD:thread_safe_statics.obj
 0002:00016ea0       _Init_thread_lock          0000000140027ea0 f   MSVCRTD:thread_safe_statics.obj
 0002:00016ec0       _Init_thread_notify        0000000140027ec0 f   MSVCRTD:thread_safe_statics.obj
 0002:00016f30       _Init_thread_unlock        0000000140027f30 f   MSVCRTD:thread_safe_statics.obj
 0002:00016f50       _Init_thread_wait          0000000140027f50 f   MSVCRTD:thread_safe_statics.obj
 0002:00017030       ??_U@YAPEAX_K@Z            0000000140028030 f   MSVCRTD:new_array.obj
 0002:00017050       ??_V@YAXPEAX@Z             0000000140028050 f   MSVCRTD:delete_array.obj
 0002:00017070       ?_RTC_GetErrorFunc@@YAP6AHHPEBDH00ZZPEBX@Z 0000000140028070 f   MSVCRTD:userapi.obj
 0002:00017080       ?_RTC_GetErrorFuncW@@YAP6AHHPEB_WH00ZZPEBX@Z 0000000140028080 f   MSVCRTD:userapi.obj
 0002:00017090       _RTC_GetErrDesc            0000000140028090 f   MSVCRTD:userapi.obj
 0002:000170b0       _RTC_NumErrors             00000001400280b0 f   MSVCRTD:userapi.obj
 0002:000170c0       _RTC_SetErrorFunc          00000001400280c0 f   MSVCRTD:userapi.obj
 0002:000170e0       _RTC_SetErrorFuncW         00000001400280e0 f   MSVCRTD:userapi.obj
 0002:00017100       _RTC_SetErrorType          0000000140028100 f   MSVCRTD:userapi.obj
 0002:00017130       ??0bad_alloc@std@@QEAA@XZ  0000000140028130 f i MSVCRTD:throw_bad_alloc.obj
 0002:00017180       ?__scrt_throw_std_bad_alloc@@YAXXZ 0000000140028180 f   MSVCRTD:throw_bad_alloc.obj
 0002:000171b0       ?__scrt_throw_std_bad_array_new_length@@YAXXZ 00000001400281b0 f   MSVCRTD:throw_bad_alloc.obj
 0002:000171e0       ??3@YAXPEAX@Z              00000001400281e0 f   MSVCRTD:delete_scalar.obj
 0002:00017210       __isa_available_init       0000000140028210 f   MSVCRTD:cpu_disp.obj
 0002:00017670       _get_startup_argv_mode     0000000140028670 f   MSVCRTD:argv_mode.obj
 0002:00017680       __scrt_is_ucrt_dll_in_use  0000000140028680 f   MSVCRTD:ucrt_detection.obj
 0002:000176b0       __crt_debugger_hook        00000001400286b0 f   MSVCRTD:utility_desktop.obj
 0002:000176d0       __scrt_fastfail            00000001400286d0 f   MSVCRTD:utility_desktop.obj
 0002:000178d0       __scrt_get_show_window_mode 00000001400288d0 f   MSVCRTD:utility_desktop.obj
 0002:00017940       __scrt_initialize_mta      0000000140028940 f   MSVCRTD:utility_desktop.obj
 0002:00017960       __scrt_initialize_winrt    0000000140028960 f   MSVCRTD:utility_desktop.obj
 0002:00017970       __scrt_is_managed_app      0000000140028970 f   MSVCRTD:utility_desktop.obj
 0002:00017a40       __scrt_set_unhandled_exception_filter 0000000140028a40 f   MSVCRTD:utility_desktop.obj
 0002:00017a60       __scrt_exe_initialize_mta  0000000140028a60 f   MSVCRTD:utility_desktop.obj
 0002:00017a60       __scrt_stub_for_initialize_mta 0000000140028a60 f   MSVCRTD:utility_desktop.obj
 0002:00017a70       __scrt_unhandled_exception_filter 0000000140028a70 f   MSVCRTD:utility_desktop.obj
 0002:00017b30       _guard_check_icall_nop     0000000140028b30 f i MSVCRTD:guard_support.obj
 0002:00017b40       ReadNoFence64              0000000140028b40 f i MSVCRTD:guard_support.obj
 0002:00017b70       ReadPointerNoFence         0000000140028b70 f i MSVCRTD:guard_support.obj
 0002:00017b90       _guard_icall_checks_enforced 0000000140028b90 f i MSVCRTD:guard_support.obj
 0002:00017be0       _guard_rf_checks_enforced  0000000140028be0 f i MSVCRTD:guard_support.obj
 0002:00017ca0       ?_RTC_AllocaFailure@@YAXPEAXPEAU_RTC_ALLOCA_NODE@@H@Z 0000000140028ca0 f   MSVCRTD:error.obj
 0002:00017e50       ?_RTC_Failure@@YAXPEAXH@Z  0000000140028e50 f   MSVCRTD:error.obj
 0002:00017ec0       ?_RTC_StackFailure@@YAXPEAXPEBD@Z 0000000140028ec0 f   MSVCRTD:error.obj
 0002:00018400       _RTC_UninitUse             0000000140029400 f   MSVCRTD:error.obj
 0002:00018500       _vsprintf_s_l              0000000140029500 f i MSVCRTD:error.obj
 0002:00018580       sprintf_s                  0000000140029580 f i MSVCRTD:error.obj
 0002:000185b0       __raise_securityfailure    00000001400295b0 f   MSVCRTD:gs_report.obj
 0002:00018600       __report_gsfailure         0000000140029600 f   MSVCRTD:gs_report.obj
 0002:00018710       __report_rangecheckfailure 0000000140029710 f   MSVCRTD:gs_report.obj
 0002:00018730       __report_securityfailure   0000000140029730 f   MSVCRTD:gs_report.obj
 0002:00018800       __report_securityfailureEx 0000000140029800 f   MSVCRTD:gs_report.obj
 0002:00018bf0       __security_init_cookie     0000000140029bf0 f   MSVCRTD:gs_support.obj
 0002:00018c90       _matherr                   0000000140029c90 f   MSVCRTD:matherr.obj
 0002:00018ca0       _get_startup_commit_mode   0000000140029ca0 f   MSVCRTD:commit_mode.obj
 0002:00018cb0       _get_startup_file_mode     0000000140029cb0 f   MSVCRTD:file_mode.obj
 0002:00018cc0       _get_startup_new_mode      0000000140029cc0 f   MSVCRTD:new_mode.obj
 0002:00018cd0       _get_startup_thread_locale_mode 0000000140029cd0 f   MSVCRTD:thread_locale.obj
 0002:00018ce0       ?__scrt_initialize_type_info@@YAXXZ 0000000140029ce0 f   MSVCRTD:tncleanup.obj
 0002:00018d00       ?__scrt_uninitialize_type_info@@YAXXZ 0000000140029d00 f   MSVCRTD:tncleanup.obj
 0002:00018d20       _should_initialize_environment 0000000140029d20 f   MSVCRTD:env_mode.obj
 0002:00018d30       _initialize_invalid_parameter_handler 0000000140029d30 f   MSVCRTD:invalid_parameter_handler.obj
 0002:00018d40       _initialize_denormal_control 0000000140029d40 f   MSVCRTD:denormal_control.obj
 0002:00018d50       __local_stdio_scanf_options 0000000140029d50 f i MSVCRTD:default_local_stdio_options.obj
 0002:00018d60       __scrt_initialize_default_local_stdio_options 0000000140029d60 f   MSVCRTD:default_local_stdio_options.obj
 0002:00018dc0       __scrt_is_user_matherr_present 0000000140029dc0 f   MSVCRTD:matherr_detection.obj
 0002:00018df0       __scrt_get_dyn_tls_init_callback 0000000140029df0 f   MSVCRTD:dyn_tls_init.obj
 0002:00018e00       __scrt_get_dyn_tls_dtor_callback 0000000140029e00 f   MSVCRTD:dyn_tls_dtor.obj
 0002:00018e10       _RTC_Initialize            0000000140029e10 f   MSVCRTD:initsect.obj
 0002:00018e70       _RTC_Terminate             0000000140029e70 f   MSVCRTD:initsect.obj
 0002:00019520       ?_RTC_GetSrcLine@@YAHPEAEPEA_WKPEAH1K@Z 000000014002a520 f   MSVCRTD:pdblkup.obj
 0002:000199d6       glutInitWindowPosition     000000014002a9d6 f   freeglut:freeglut.dll
 0002:000199dc       glutInitWindowSize         000000014002a9dc f   freeglut:freeglut.dll
 0002:000199e2       glutMainLoop               000000014002a9e2 f   freeglut:freeglut.dll
 0002:000199e8       glutPostRedisplay          000000014002a9e8 f   freeglut:freeglut.dll
 0002:000199ee       glutIdleFunc               000000014002a9ee f   freeglut:freeglut.dll
 0002:000199f4       glutDisplayFunc            000000014002a9f4 f   freeglut:freeglut.dll
 0002:000199fa       __glutInitWithExit         000000014002a9fa f   freeglut:freeglut.dll
 0002:00019a00       __glutCreateWindowWithExit 000000014002aa00 f   freeglut:freeglut.dll
 0002:00019a06       glutSetOption              000000014002aa06 f   freeglut:freeglut.dll
 0002:00019a0c       glutBitmapCharacter        000000014002aa0c f   freeglut:freeglut.dll
 0002:00019a12       gluBuild2DMipmaps          000000014002aa12 f   glu32:GLU32.dll
 0002:00019a18       wglGetCurrentDC            000000014002aa18 f   opengl32:OPENGL32.dll
 0002:00019a1e       glClear                    000000014002aa1e f   opengl32:OPENGL32.dll
 0002:00019a24       glClearColor               000000014002aa24 f   opengl32:OPENGL32.dll
 0002:00019a2a       glFlush                    000000014002aa2a f   opengl32:OPENGL32.dll
 0002:00019a30       glBegin                    000000014002aa30 f   opengl32:OPENGL32.dll
 0002:00019a36       glColor3f                  000000014002aa36 f   opengl32:OPENGL32.dll
 0002:00019a3c       glEnd                      000000014002aa3c f   opengl32:OPENGL32.dll
 0002:00019a42       glRasterPos2f              000000014002aa42 f   opengl32:OPENGL32.dll
 0002:00019a48       glVertex2f                 000000014002aa48 f   opengl32:OPENGL32.dll
 0002:00019a4e       glBindTexture              000000014002aa4e f   opengl32:OPENGL32.dll
 0002:00019a54       glBlendFunc                000000014002aa54 f   opengl32:OPENGL32.dll
 0002:00019a5a       glColor4f                  000000014002aa5a f   opengl32:OPENGL32.dll
 0002:00019a60       glDisable                  000000014002aa60 f   opengl32:OPENGL32.dll
 0002:00019a66       glEnable                   000000014002aa66 f   opengl32:OPENGL32.dll
 0002:00019a6c       glGenTextures              000000014002aa6c f   opengl32:OPENGL32.dll
 0002:00019a72       glPopMatrix                000000014002aa72 f   opengl32:OPENGL32.dll
 0002:00019a78       glPushMatrix               000000014002aa78 f   opengl32:OPENGL32.dll
 0002:00019a7e       glRotatef                  000000014002aa7e f   opengl32:OPENGL32.dll
 0002:00019a84       glScalef                   000000014002aa84 f   opengl32:OPENGL32.dll
 0002:00019a8a       glTexCoord2f               000000014002aa8a f   opengl32:OPENGL32.dll
 0002:00019a90       glTexEnvf                  000000014002aa90 f   opengl32:OPENGL32.dll
 0002:00019a96       glTexParameterf            000000014002aa96 f   opengl32:OPENGL32.dll
 0002:00019a9c       glTranslatef               000000014002aa9c f   opengl32:OPENGL32.dll
 0002:00019aa2       XInputGetState             000000014002aaa2 f   xinput:XINPUT1_4.dll
 0002:00019aa8       ??0_Lockit@std@@QEAA@H@Z   000000014002aaa8 f   msvcprtd:MSVCP140D.dll
 0002:00019aae       ??1_Lockit@std@@QEAA@XZ    000000014002aaae f   msvcprtd:MSVCP140D.dll
 0002:00019ab4       ?_Xlength_error@std@@YAXPEBD@Z 000000014002aab4 f   msvcprtd:MSVCP140D.dll
 0002:00019aba       __CxxFrameHandler4         000000014002aaba f   vcruntimed:VCRUNTIME140_1D.dll
 0002:00019ac0       __std_exception_copy       000000014002aac0 f   vcruntimed:VCRUNTIME140D.dll
 0002:00019ac6       __std_exception_destroy    000000014002aac6 f   vcruntimed:VCRUNTIME140D.dll
 0002:00019acc       _CxxThrowException         000000014002aacc f   vcruntimed:VCRUNTIME140D.dll
 0002:00019ad2       memset                     000000014002aad2 f   vcruntimed:VCRUNTIME140D.dll
 0002:00019ad8       memcpy                     000000014002aad8 f   vcruntimed:VCRUNTIME140D.dll
 0002:00019ade       __C_specific_handler       000000014002aade f   vcruntimed:VCRUNTIME140D.dll
 0002:00019ae4       __current_exception        000000014002aae4 f   vcruntimed:VCRUNTIME140D.dll
 0002:00019aea       __current_exception_context 000000014002aaea f   vcruntimed:VCRUNTIME140D.dll
 0002:00019af0       __C_specific_handler_noexcept 000000014002aaf0 f   vcruntimed:VCRUNTIME140D.dll
 0002:00019af6       __std_type_info_destroy_list 000000014002aaf6 f   vcruntimed:VCRUNTIME140D.dll
 0002:00019afc       __vcrt_GetModuleFileNameW  000000014002aafc f   vcruntimed:VCRUNTIME140D.dll
 0002:00019b02       __vcrt_GetModuleHandleW    000000014002ab02 f   vcruntimed:VCRUNTIME140D.dll
 0002:00019b08       __vcrt_LoadLibraryExW      000000014002ab08 f   vcruntimed:VCRUNTIME140D.dll
 0002:00019b0e       fmodf                      000000014002ab0e f   ucrtd:ucrtbased.dll
 0002:00019b14       _invalid_parameter         000000014002ab14 f   ucrtd:ucrtbased.dll
 0002:00019b1a       _CrtDbgReport              000000014002ab1a f   ucrtd:ucrtbased.dll
 0002:00019b20       __acrt_iob_func            000000014002ab20 f   ucrtd:ucrtbased.dll
 0002:00019b26       __stdio_common_vfprintf    000000014002ab26 f   ucrtd:ucrtbased.dll
 0002:00019b2c       __stdio_common_vsprintf    000000014002ab2c f   ucrtd:ucrtbased.dll
 0002:00019b32       exit                       000000014002ab32 f   ucrtd:ucrtbased.dll
 0002:00019b38       strlen                     000000014002ab38 f   ucrtd:ucrtbased.dll
 0002:00019b3e       free                       000000014002ab3e f   ucrtd:ucrtbased.dll
 0002:00019b44       fopen_s                    000000014002ab44 f   ucrtd:ucrtbased.dll
 0002:00019b4a       fclose                     000000014002ab4a f   ucrtd:ucrtbased.dll
 0002:00019b50       fread                      000000014002ab50 f   ucrtd:ucrtbased.dll
 0002:00019b56       fseek                      000000014002ab56 f   ucrtd:ucrtbased.dll
 0002:00019b5c       _invalid_parameter_noinfo  000000014002ab5c f   ucrtd:ucrtbased.dll
 0002:00019b62       fopen                      000000014002ab62 f   ucrtd:ucrtbased.dll
 0002:00019b68       _errno                     000000014002ab68 f   ucrtd:ucrtbased.dll
 0002:00019b6e       _wassert                   000000014002ab6e f   ucrtd:ucrtbased.dll
 0002:00019b74       _CrtDbgReportW             000000014002ab74 f   ucrtd:ucrtbased.dll
 0002:00019b7a       _callnewh                  000000014002ab7a f   ucrtd:ucrtbased.dll
 0002:00019b80       malloc                     000000014002ab80 f   ucrtd:ucrtbased.dll
 0002:00019b86       _seh_filter_dll            000000014002ab86 f   ucrtd:ucrtbased.dll
 0002:00019b8c       _configure_narrow_argv     000000014002ab8c f   ucrtd:ucrtbased.dll
 0002:00019b92       _initialize_narrow_environment 000000014002ab92 f   ucrtd:ucrtbased.dll
 0002:00019b98       _initialize_onexit_table   000000014002ab98 f   ucrtd:ucrtbased.dll
 0002:00019b9e       _register_onexit_function  000000014002ab9e f   ucrtd:ucrtbased.dll
 0002:00019ba4       _execute_onexit_table      000000014002aba4 f   ucrtd:ucrtbased.dll
 0002:00019baa       _crt_atexit                000000014002abaa f   ucrtd:ucrtbased.dll
 0002:00019bb0       _crt_at_quick_exit         000000014002abb0 f   ucrtd:ucrtbased.dll
 0002:00019bb6       _cexit                     000000014002abb6 f   ucrtd:ucrtbased.dll
 0002:00019bbc       _seh_filter_exe            000000014002abbc f   ucrtd:ucrtbased.dll
 0002:00019bc2       _set_app_type              000000014002abc2 f   ucrtd:ucrtbased.dll
 0002:00019bc8       __setusermatherr           000000014002abc8 f   ucrtd:ucrtbased.dll
 0002:00019bce       _configure_wide_argv       000000014002abce f   ucrtd:ucrtbased.dll
 0002:00019bd4       _initialize_wide_environment 000000014002abd4 f   ucrtd:ucrtbased.dll
 0002:00019bda       _get_wide_winmain_command_line 000000014002abda f   ucrtd:ucrtbased.dll
 0002:00019be0       _initterm                  000000014002abe0 f   ucrtd:ucrtbased.dll
 0002:00019be6       _initterm_e                000000014002abe6 f   ucrtd:ucrtbased.dll
 0002:00019bec       _exit                      000000014002abec f   ucrtd:ucrtbased.dll
 0002:00019bf2       _set_fmode                 000000014002abf2 f   ucrtd:ucrtbased.dll
 0002:00019bf8       _c_exit                    000000014002abf8 f   ucrtd:ucrtbased.dll
 0002:00019bfe       _register_thread_local_exe_atexit_callback 000000014002abfe f   ucrtd:ucrtbased.dll
 0002:00019c04       _configthreadlocale        000000014002ac04 f   ucrtd:ucrtbased.dll
 0002:00019c0a       _set_new_mode              000000014002ac0a f   ucrtd:ucrtbased.dll
 0002:00019c10       __p__commode               000000014002ac10 f   ucrtd:ucrtbased.dll
 0002:00019c16       _free_dbg                  000000014002ac16 f   ucrtd:ucrtbased.dll
 0002:00019c1c       terminate                  000000014002ac1c f   ucrtd:ucrtbased.dll
 0002:00019c22       strcpy_s                   000000014002ac22 f   ucrtd:ucrtbased.dll
 0002:00019c28       strcat_s                   000000014002ac28 f   ucrtd:ucrtbased.dll
 0002:00019c2e       __stdio_common_vsprintf_s  000000014002ac2e f   ucrtd:ucrtbased.dll
 0002:00019c34       _wmakepath_s               000000014002ac34 f   ucrtd:ucrtbased.dll
 0002:00019c3a       _wsplitpath_s              000000014002ac3a f   ucrtd:ucrtbased.dll
 0002:00019c40       wcscpy_s                   000000014002ac40 f   ucrtd:ucrtbased.dll
 0002:00019c46       GetCurrentThreadId         000000014002ac46 f   kernel32:KERNEL32.dll
 0002:00019c4c       CloseHandle                000000014002ac4c f   kernel32:KERNEL32.dll
 0002:00019c52       EnterCriticalSection       000000014002ac52 f   kernel32:KERNEL32.dll
 0002:00019c58       LeaveCriticalSection       000000014002ac58 f   kernel32:KERNEL32.dll
 0002:00019c5e       InitializeCriticalSectionAndSpinCount 000000014002ac5e f   kernel32:KERNEL32.dll
 0002:00019c64       DeleteCriticalSection      000000014002ac64 f   kernel32:KERNEL32.dll
 0002:00019c6a       SetEvent                   000000014002ac6a f   kernel32:KERNEL32.dll
 0002:00019c70       ResetEvent                 000000014002ac70 f   kernel32:KERNEL32.dll
 0002:00019c76       WaitForSingleObjectEx      000000014002ac76 f   kernel32:KERNEL32.dll
 0002:00019c7c       CreateEventW               000000014002ac7c f   kernel32:KERNEL32.dll
 0002:00019c82       GetModuleHandleW           000000014002ac82 f   kernel32:KERNEL32.dll
 0002:00019c88       GetProcAddress             000000014002ac88 f   kernel32:KERNEL32.dll
 0002:00019c8e       RtlCaptureContext          000000014002ac8e f   kernel32:KERNEL32.dll
 0002:00019c94       RtlLookupFunctionEntry     000000014002ac94 f   kernel32:KERNEL32.dll
 0002:00019c9a       RtlVirtualUnwind           000000014002ac9a f   kernel32:KERNEL32.dll
 0002:00019ca0       IsDebuggerPresent          000000014002aca0 f   kernel32:KERNEL32.dll
 0002:00019ca6       UnhandledExceptionFilter   000000014002aca6 f   kernel32:KERNEL32.dll
 0002:00019cac       SetUnhandledExceptionFilter 000000014002acac f   kernel32:KERNEL32.dll
 0002:00019cb2       GetStartupInfoW            000000014002acb2 f   kernel32:KERNEL32.dll
 0002:00019cb8       IsProcessorFeaturePresent  000000014002acb8 f   kernel32:KERNEL32.dll
 0002:00019cbe       RaiseException             000000014002acbe f   kernel32:KERNEL32.dll
 0002:00019cc4       MultiByteToWideChar        000000014002acc4 f   kernel32:KERNEL32.dll
 0002:00019cca       WideCharToMultiByte        000000014002acca f   kernel32:KERNEL32.dll
 0002:00019cd0       GetCurrentProcess          000000014002acd0 f   kernel32:KERNEL32.dll
 0002:00019cd6       TerminateProcess           000000014002acd6 f   kernel32:KERNEL32.dll
 0002:00019cdc       GetCurrentProcessId        000000014002acdc f   kernel32:KERNEL32.dll
 0002:00019ce2       GetSystemTimeAsFileTime    000000014002ace2 f   kernel32:KERNEL32.dll
 0002:00019ce8       InitializeSListHead        000000014002ace8 f   kernel32:KERNEL32.dll
 0002:00019cee       GetLastError               000000014002acee f   kernel32:KERNEL32.dll
 0002:00019cf4       HeapAlloc                  000000014002acf4 f   kernel32:KERNEL32.dll
 0002:00019cfa       HeapFree                   000000014002acfa f   kernel32:KERNEL32.dll
 0002:00019d00       GetProcessHeap             000000014002ad00 f   kernel32:KERNEL32.dll
 0002:00019d06       VirtualQuery               000000014002ad06 f   kernel32:KERNEL32.dll
 0002:00019d0c       FreeLibrary                000000014002ad0c f   kernel32:KERNEL32.dll
 0002:00019d20       __acrt_initialize          000000014002ad20 f   MSVCRTD:ucrt_stubs.obj
 0002:00019d20       __scrt_stub_for_acrt_initialize 000000014002ad20 f   MSVCRTD:ucrt_stubs.obj
 0002:00019d20       __vcrt_initialize          000000014002ad20 f   MSVCRTD:ucrt_stubs.obj
 0002:00019d30       __acrt_thread_attach       000000014002ad30 f   MSVCRTD:ucrt_stubs.obj
 0002:00019d30       __vcrt_thread_attach       000000014002ad30 f   MSVCRTD:ucrt_stubs.obj
 0002:00019d30       __scrt_stub_for_acrt_thread_attach 000000014002ad30 f   MSVCRTD:ucrt_stubs.obj
 0002:00019d40       __scrt_stub_for_acrt_thread_detach 000000014002ad40 f   MSVCRTD:ucrt_stubs.obj
 0002:00019d40       __vcrt_thread_detach       000000014002ad40 f   MSVCRTD:ucrt_stubs.obj
 0002:00019d40       __acrt_thread_detach       000000014002ad40 f   MSVCRTD:ucrt_stubs.obj
 0002:00019d50       __acrt_uninitialize        000000014002ad50 f   MSVCRTD:ucrt_stubs.obj
 0002:00019d50       __scrt_stub_for_acrt_uninitialize 000000014002ad50 f   MSVCRTD:ucrt_stubs.obj
 0002:00019d50       __vcrt_uninitialize        000000014002ad50 f   MSVCRTD:ucrt_stubs.obj
 0002:00019d60       __scrt_stub_for_acrt_uninitialize_critical 000000014002ad60 f   MSVCRTD:ucrt_stubs.obj
 0002:00019d60       __vcrt_uninitialize_critical 000000014002ad60 f   MSVCRTD:ucrt_stubs.obj
 0002:00019d60       __acrt_uninitialize_critical 000000014002ad60 f   MSVCRTD:ucrt_stubs.obj
 0002:00019d70       _is_c_termination_complete 000000014002ad70 f   MSVCRTD:ucrt_stubs.obj
 0002:00019d70       __scrt_stub_for_is_c_termination_complete 000000014002ad70 f   MSVCRTD:ucrt_stubs.obj
 0002:0001b2b0       _guard_dispatch_icall_nop  000000014002c2b0 f   MSVCRTD:guard_dispatch.obj
 0003:00000000       __xc_a                     0000000140030000     MSVCRTD:initializers.obj
 0003:00000360       __xc_z                     0000000140030360     MSVCRTD:initializers.obj
 0003:00000470       __xi_a                     0000000140030470     MSVCRTD:initializers.obj
 0003:000008b0       __xi_z                     00000001400308b0     MSVCRTD:initializers.obj
 0003:000009c0       __xl_a                     00000001400309c0     MSVCRTD:tlssup.obj
 0003:000009c8       __xl_z                     00000001400309c8     MSVCRTD:tlssup.obj
 0003:000009d0       __xp_a                     00000001400309d0     MSVCRTD:initializers.obj
 0003:00000ae0       __xp_z                     0000000140030ae0     MSVCRTD:initializers.obj
 0003:00000bf0       __xt_a                     0000000140030bf0     MSVCRTD:initializers.obj
 0003:00000d00       __xt_z                     0000000140030d00     MSVCRTD:initializers.obj
 0003:00000e10       __real@3e4ccccd            0000000140030e10     Door.obj
 0003:00000e14       __real@3e800000            0000000140030e14     Door.obj
 0003:00000e18       __real@3f000000            0000000140030e18     Door.obj
 0003:00000e1c       __real@3f400000            0000000140030e1c     Door.obj
 0003:00000e20       __real@3f800000            0000000140030e20     Door.obj
 0003:00000e24       __real@447a0000            0000000140030e24     Door.obj
 0003:00001350       ??_7exception@std@@6B@     0000000140031350     GameTest.obj
 0003:00001368       ??_C@_0BC@EOODALEL@Unknown?5exception@ 0000000140031368     GameTest.obj
 0003:00001388       ??_7bad_alloc@std@@6B@     0000000140031388     GameTest.obj
 0003:000013a8       ??_7bad_array_new_length@std@@6B@ 00000001400313a8     GameTest.obj
 0003:000013c0       ??_C@_0BF@KINCDENJ@bad?5array?5new?5length@ 00000001400313c0     GameTest.obj
 0003:000013e0       ??_C@_0BB@FCMFBGOM@invalid?5argument@ 00000001400313e0     GameTest.obj
 0003:000013f4       ??_C@_02DKCKIIND@?$CFs@    00000001400313f4     GameTest.obj
 0003:00001400       ??_C@_0GI@FJIKDGOA@C?3?2Program?5Files?5?$CIx86?$CJ?2Microsof@ 0000000140031400     GameTest.obj
 0003:00001480       ??_C@_1NA@CDBIFGMM@?$AAC?$AA?3?$AA?2?$AAP?$AAr?$AAo?$AAg?$AAr?$AAa?$AAm?$AA?5?$AAF?$AAi?$AAl?$AAe@ 0000000140031480     GameTest.obj
 0003:00001580       ??_C@_1EK@NIFDJFDG@?$AAs?$AAt?$AAd?$AA?3?$AA?3?$AA_?$AAA?$AAd?$AAj?$AAu?$AAs?$AAt?$AA_?$AAm?$AAa@ 0000000140031580     GameTest.obj
 0003:000015d8       ??_C@_1CG@JNLFBNGN@?$AA?$CC?$AAi?$AAn?$AAv?$AAa?$AAl?$AAi?$AAd?$AA?5?$AAa?$AAr?$AAg?$AAu?$AAm?$AAe@ 00000001400315d8     GameTest.obj
 0003:00001608       ??_C@_0BE@PDEPODOE@?4?2TestData?2Test?4wav@ 0000000140031608     GameTest.obj
 0003:00001620       ??_C@_0M@LFLPGLFP@?$CB?$CB?$CB?5WIN?5?$CB?$CB?$CB@ 0000000140031620     GameTest.obj
 0003:00001630       ??_C@_0N@DENOKIKP@?$CB?$CB?$CB?5LOST?5?$CB?$CB?$CB@ 0000000140031630     GameTest.obj
 0003:00001640       ??_C@_0BD@OLBABOEK@vector?$DMT?$DO?5too?5long@ 0000000140031640     GameTest.obj
 0003:00001660       ??_C@_1EO@GFNCMDLA@?$AAs?$AAt?$AAd?$AA?3?$AA?3?$AA_?$AAA?$AAl?$AAl?$AAo?$AAc?$AAa?$AAt?$AAe?$AA_@ 0000000140031660     GameTest.obj
 0003:000016c0       __real@41200000            00000001400316c0     GameTest.obj
 0003:000016c4       __real@42c80000            00000001400316c4     GameTest.obj
 0003:000016c8       __real@43480000            00000001400316c8     GameTest.obj
 0003:000016cc       __real@43960000            00000001400316cc     GameTest.obj
 0003:000016d0       __real@43c80000            00000001400316d0     GameTest.obj
 0003:000016d4       __real@43fa0000            00000001400316d4     GameTest.obj
 0003:000016d8       __real@44160000            00000001400316d8     GameTest.obj
 0003:000016dc       __real@443b8000            00000001400316dc     GameTest.obj
 0003:000016e0       __real@44610000            00000001400316e0     GameTest.obj
 0003:00001b10       ??_C@_0BI@EDABPCFH@?4?2TestData?2red_ball?4bmp@ 0000000140031b10     MainCharacter.obj
 0003:00001b2c       __real@3e19999a            0000000140031b2c     MainCharacter.obj
 0003:00001b30       __real@42480000            0000000140031b30     MainCharacter.obj
 0003:00001b34       __real@47000000            0000000140031b34     MainCharacter.obj
 0003:00001b38       __real@bf000000            0000000140031b38     MainCharacter.obj
 0003:00001ef3       ??_C@_00CNPNBAHC@@         0000000140031ef3     Framework:main.obj
 0003:00001ef8       ??_C@_0CF@MKHKCPCJ@Failed?5to?5init?5performance?5coun@ 0000000140031ef8     Framework:main.obj
 0003:00001f28       ??_C@_0N@DHAJMOKJ@?$CFs?3?5?$CF0?44f?5ms@ 0000000140031f28     Framework:main.obj
 0003:00001f38       ??_C@_06LMAGPFNF@Update@   0000000140031f38     Framework:main.obj
 0003:00001f40       ??_C@_0M@HKPPLLPP@User?5Render@ 0000000140031f40     Framework:main.obj
 0003:00001f50       ??_C@_0M@IJEKLDBL@User?5Update@ 0000000140031f50     Framework:main.obj
 0003:00001f60       ??_C@_04IBBNLEM@Game@      0000000140031f60     Framework:main.obj
 0003:00001f68       __real@4030aaaaaaaaaaab    0000000140031f68     Framework:main.obj
 0003:00001f78       __real@408f400000000000    0000000140031f78     Framework:main.obj
 0003:00001f84       __real@41c80000            0000000140031f84     Framework:main.obj
 0003:00001f88       __real@42200000            0000000140031f88     Framework:main.obj
 0003:00002004       __real@40000000            0000000140032004     Framework:app.obj
 0003:00002008       __real@44400000            0000000140032008     Framework:app.obj
 0003:0000200c       __real@44800000            000000014003200c     Framework:app.obj
 0003:00002010       __xmm@80000000800000008000000080000000 0000000140032010     Framework:app.obj
 0003:00002588       ??_C@_0BJ@LFDBABJJ@ITERATOR?5LIST?5CORRUPTED?$CB@ 0000000140032588     Framework:SimpleSprite.obj
 0003:000025b0       ??_C@_1EE@KLDMFDFL@?$AAs?$AAt?$AAd?$AA?3?$AA?3?$AA_?$AAI?$AAt?$AAe?$AAr?$AAa?$AAt?$AAo?$AAr?$AA_@ 00000001400325b0     Framework:SimpleSprite.obj
 0003:00002608       ??_C@_1DG@PLBPCAEM@?$AA?$CC?$AAI?$AAT?$AAE?$AAR?$AAA?$AAT?$AAO?$AAR?$AA?5?$AAL?$AAI?$AAS?$AAT?$AA?5@ 0000000140032608     Framework:SimpleSprite.obj
 0003:00002648       ??_C@_0BB@GCADKGJO@map?1set?5too?5long@ 0000000140032648     Framework:SimpleSprite.obj
 0003:00002660       ??_C@_0BP@OLDKBHLM@map?1set?5iterators?5incompatible@ 0000000140032660     Framework:SimpleSprite.obj
 0003:00002690       ??_C@_0GG@OCININGN@C?3?2Program?5Files?5?$CIx86?$CJ?2Microsof@ 0000000140032690     Framework:SimpleSprite.obj
 0003:00002710       ??_C@_1MM@HFHBGPEE@?$AAC?$AA?3?$AA?2?$AAP?$AAr?$AAo?$AAg?$AAr?$AAa?$AAm?$AA?5?$AAF?$AAi?$AAl?$AAe@ 0000000140032710     Framework:SimpleSprite.obj
 0003:00002810       ??_C@_1BFA@LHKHIJBL@?$AAs?$AAt?$AAd?$AA?3?$AA?3?$AA_?$AAT?$AAr?$AAe?$AAe?$AA_?$AAc?$AAo?$AAn?$AAs@ 0000000140032810     Framework:SimpleSprite.obj
 0003:000029b0       ??_C@_1EC@JLIDLCDH@?$AA?$CC?$AAm?$AAa?$AAp?$AA?1?$AAs?$AAe?$AAt?$AA?5?$AAi?$AAt?$AAe?$AAr?$AAa?$AAt@ 00000001400329b0     Framework:SimpleSprite.obj
 0003:00002a00       ??_C@_0BD@FEEMDEPI@invalid?5comparator@ 0000000140032a00     Framework:SimpleSprite.obj
 0003:00002a20       ??_C@_0GJ@GDKIGMBO@C?3?2Program?5Files?5?$CIx86?$CJ?2Microsof@ 0000000140032a20     Framework:SimpleSprite.obj
 0003:00002aa0       ??_C@_1NC@OIIHGCJJ@?$AAC?$AA?3?$AA?2?$AAP?$AAr?$AAo?$AAg?$AAr?$AAa?$AAm?$AA?5?$AAF?$AAi?$AAl?$AAe@ 0000000140032aa0     Framework:SimpleSprite.obj
 0003:00002ba0       ??_C@_1CI@JONCLBEJ@?$AAs?$AAt?$AAd?$AA?3?$AA?3?$AA_?$AAD?$AAe?$AAb?$AAu?$AAg?$AA_?$AAl?$AAt?$AA_@ 0000000140032ba0     Framework:SimpleSprite.obj
 0003:00002bd0       ??_C@_1CK@NDNHPKPI@?$AA?$CC?$AAi?$AAn?$AAv?$AAa?$AAl?$AAi?$AAd?$AA?5?$AAc?$AAo?$AAm?$AAp?$AAa?$AAr@ 0000000140032bd0     Framework:SimpleSprite.obj
 0003:00002c04       __real@3dcccccd            0000000140032c04     Framework:SimpleSprite.obj
 0003:00002c08       __real@40490fdb            0000000140032c08     Framework:SimpleSprite.obj
 0003:00002c0c       __real@43340000            0000000140032c0c     Framework:SimpleSprite.obj
 0003:00002c10       __real@46040000            0000000140032c10     Framework:SimpleSprite.obj
 0003:00002c14       __real@46180400            0000000140032c14     Framework:SimpleSprite.obj
 0003:00002c18       __real@461c0400            0000000140032c18     Framework:SimpleSprite.obj
 0003:00002c1c       __real@46240400            0000000140032c1c     Framework:SimpleSprite.obj
 0003:00002c20       __real@454ccb33            0000000140032c20     Framework:SimpleController.obj
 0003:00002c24       __real@c54ccb33            0000000140032c24     Framework:SimpleController.obj
 0003:000034c4       ??_C@_02JDPG@rb@           00000001400334c4     Framework:SimpleSound.obj
 0003:00003548       ??_C@_0BC@KNDEBHOP@Reading?5image?5?$CFs?6@ 0000000140033548     Framework:TextureLoader.obj
 0003:00003560       ??_C@_0BL@CCEDHKF@Image?5could?5not?5be?5opened?6@ 0000000140033560     Framework:TextureLoader.obj
 0003:00003580       ??_C@_0BI@NBHBNIEG@Not?5a?5correct?5BMP?5file?6@ 0000000140033580     Framework:TextureLoader.obj
 0003:000035a0       ??_C@_0BP@FGPPHBPI@Not?5a?5correct?532bits?5BMP?5file?6@ 00000001400335a0     Framework:TextureLoader.obj
 0003:000035d0       ??_C@_1JG@BHIDPIMC@?$AAC?$AA?3?$AA?2?$AAU?$AAs?$AAe?$AAr?$AAs?$AA?2?$AAS?$AAe?$AA7?$AAe?$AAn?$AA?2@ 00000001400335d0     Framework:TextureLoader.obj
 0003:00003684       ??_C@_13COJANIEC@?$AA0@    0000000140033684     Framework:TextureLoader.obj
 0003:00003688       CLSID_DirectPlay8Client    0000000140033688     dxguid:dxguid.obj
 0003:000036a0       CLSID_DirectPlay8Server    00000001400336a0     dxguid:dxguid.obj
 0003:000036b8       CLSID_DirectPlay8Peer      00000001400336b8     dxguid:dxguid.obj
 0003:000036d0       CLSID_DirectPlay8ThreadPool 00000001400336d0     dxguid:dxguid.obj
 0003:000036e8       CLSID_DirectPlay8NATResolver 00000001400336e8     dxguid:dxguid.obj
 0003:00003700       CLSID_DirectPlay8Multicast 0000000140033700     dxguid:dxguid.obj
 0003:00003718       CLSID_DirectPlay8Diagnostics 0000000140033718     dxguid:dxguid.obj
 0003:00003730       IID_IDirectPlay8Client     0000000140033730     dxguid:dxguid.obj
 0003:00003748       IID_IDirectPlay8Server     0000000140033748     dxguid:dxguid.obj
 0003:00003760       IID_IDirectPlay8Peer       0000000140033760     dxguid:dxguid.obj
 0003:00003778       IID_IDirectPlay8ThreadPool 0000000140033778     dxguid:dxguid.obj
 0003:00003790       IID_IDirectPlay8NATResolver 0000000140033790     dxguid:dxguid.obj
 0003:000037a8       IID_IDirectPlay8Diagnostics 00000001400337a8     dxguid:dxguid.obj
 0003:000037c0       IID_IDirectPlay8Multicast  00000001400337c0     dxguid:dxguid.obj
 0003:000037d8       IID_IDirectPlay8ThreadPoolWork 00000001400337d8     dxguid:dxguid.obj
 0003:000037f0       CLSID_DP8SP_IPX            00000001400337f0     dxguid:dxguid.obj
 0003:00003808       CLSID_DP8SP_MODEM          0000000140033808     dxguid:dxguid.obj
 0003:00003820       CLSID_DP8SP_SERIAL         0000000140033820     dxguid:dxguid.obj
 0003:00003838       CLSID_DP8SP_TCPIP          0000000140033838     dxguid:dxguid.obj
 0003:00003850       CLSID_DP8SP_BLUETOOTH      0000000140033850     dxguid:dxguid.obj
 0003:00003868       GUID_DP8MULTICASTSCOPE_PRIVATE 0000000140033868     dxguid:dxguid.obj
 0003:00003880       GUID_DP8MULTICASTSCOPE_LOCAL 0000000140033880     dxguid:dxguid.obj
 0003:00003898       GUID_DP8MULTICASTSCOPE_GLOBAL 0000000140033898     dxguid:dxguid.obj
 0003:000038b0       IID_IDirectSoundFXChorus   00000001400338b0     dxguid:dxguid.obj
 0003:000038c8       IID_IDirectSoundFXFlanger  00000001400338c8     dxguid:dxguid.obj
 0003:000038e0       IID_IDirectSoundFXEcho     00000001400338e0     dxguid:dxguid.obj
 0003:000038f8       IID_IDirectSoundFXDistortion 00000001400338f8     dxguid:dxguid.obj
 0003:00003910       IID_IDirectSoundFXCompressor 0000000140033910     dxguid:dxguid.obj
 0003:00003928       IID_IDirectSoundFXParamEq  0000000140033928     dxguid:dxguid.obj
 0003:00003940       IID_IDirectSoundFXI3DL2Reverb 0000000140033940     dxguid:dxguid.obj
 0003:00003958       PPM_PERFSTATE_CHANGE_GUID  0000000140033958     dxguid:dxguid.obj
 0003:00003970       PPM_PERFSTATE_DOMAIN_CHANGE_GUID 0000000140033970     dxguid:dxguid.obj
 0003:00003988       PPM_IDLESTATE_CHANGE_GUID  0000000140033988     dxguid:dxguid.obj
 0003:000039a0       PPM_PERFSTATES_DATA_GUID   00000001400339a0     dxguid:dxguid.obj
 0003:000039b8       PPM_IDLESTATES_DATA_GUID   00000001400339b8     dxguid:dxguid.obj
 0003:000039d0       PPM_IDLE_ACCOUNTING_GUID   00000001400339d0     dxguid:dxguid.obj
 0003:000039e8       PPM_IDLE_ACCOUNTING_EX_GUID 00000001400339e8     dxguid:dxguid.obj
 0003:00003a00       PPM_THERMALCONSTRAINT_GUID 0000000140033a00     dxguid:dxguid.obj
 0003:00003a18       PPM_PERFMON_PERFSTATE_GUID 0000000140033a18     dxguid:dxguid.obj
 0003:00003a30       PPM_THERMAL_POLICY_CHANGE_GUID 0000000140033a30     dxguid:dxguid.obj
 0003:00003a48       IID_IDirectSoundFXWavesReverb 0000000140033a48     dxguid:dxguid.obj
 0003:00003a60       IID_IDirectSoundCaptureFXAec 0000000140033a60     dxguid:dxguid.obj
 0003:00003a78       IID_IDirectSoundCaptureFXNoiseSuppress 0000000140033a78     dxguid:dxguid.obj
 0003:00003a90       IID_IDirectSoundFullDuplex 0000000140033a90     dxguid:dxguid.obj
 0003:00003aa8       DS3DALG_NO_VIRTUALIZATION  0000000140033aa8     dxguid:dxguid.obj
 0003:00003ac0       DS3DALG_HRTF_FULL          0000000140033ac0     dxguid:dxguid.obj
 0003:00003ad8       DS3DALG_HRTF_LIGHT         0000000140033ad8     dxguid:dxguid.obj
 0003:00003af0       GUID_DSFX_STANDARD_GARGLE  0000000140033af0     dxguid:dxguid.obj
 0003:00003b08       GUID_DSFX_STANDARD_CHORUS  0000000140033b08     dxguid:dxguid.obj
 0003:00003b20       GUID_DSFX_STANDARD_FLANGER 0000000140033b20     dxguid:dxguid.obj
 0003:00003b38       GUID_DSFX_STANDARD_ECHO    0000000140033b38     dxguid:dxguid.obj
 0003:00003b50       GUID_DSFX_STANDARD_DISTORTION 0000000140033b50     dxguid:dxguid.obj
 0003:00003b68       GUID_DSFX_STANDARD_COMPRESSOR 0000000140033b68     dxguid:dxguid.obj
 0003:00003b80       GUID_DSFX_STANDARD_PARAMEQ 0000000140033b80     dxguid:dxguid.obj
 0003:00003b98       GUID_DSFX_STANDARD_I3DL2REVERB 0000000140033b98     dxguid:dxguid.obj
 0003:00003bb0       GUID_DSFX_WAVES_REVERB     0000000140033bb0     dxguid:dxguid.obj
 0003:00003bc8       GUID_DSCFX_CLASS_AEC       0000000140033bc8     dxguid:dxguid.obj
 0003:00003be0       GUID_DSCFX_MS_AEC          0000000140033be0     dxguid:dxguid.obj
 0003:00003bf8       GUID_DSCFX_SYSTEM_AEC      0000000140033bf8     dxguid:dxguid.obj
 0003:00003c10       GUID_DSCFX_CLASS_NS        0000000140033c10     dxguid:dxguid.obj
 0003:00003c28       GUID_DSCFX_MS_NS           0000000140033c28     dxguid:dxguid.obj
 0003:00003c40       GUID_DSCFX_SYSTEM_NS       0000000140033c40     dxguid:dxguid.obj
 0003:00003c58       CLSID_DirectMusic          0000000140033c58     dxguid:dxguid.obj
 0003:00003c70       CLSID_DirectMusicCollection 0000000140033c70     dxguid:dxguid.obj
 0003:00003c88       CLSID_DirectMusicSynth     0000000140033c88     dxguid:dxguid.obj
 0003:00003ca0       IID_IDirectMusic           0000000140033ca0     dxguid:dxguid.obj
 0003:00003cb8       IID_IDirectMusicBuffer     0000000140033cb8     dxguid:dxguid.obj
 0003:00003cd0       IID_IDirectMusicPort       0000000140033cd0     dxguid:dxguid.obj
 0003:00003ce8       IID_IDirectMusicThru       0000000140033ce8     dxguid:dxguid.obj
 0003:00003d00       IID_IDirectMusicPortDownload 0000000140033d00     dxguid:dxguid.obj
 0003:00003d18       IID_IDirectMusicDownload   0000000140033d18     dxguid:dxguid.obj
 0003:00003d30       IID_IDirectMusicCollection 0000000140033d30     dxguid:dxguid.obj
 0003:00003d48       IID_IDirectMusicInstrument 0000000140033d48     dxguid:dxguid.obj
 0003:00003d60       IID_IDirectMusicDownloadedInstrument 0000000140033d60     dxguid:dxguid.obj
 0003:00003d78       IID_IDirectMusic2          0000000140033d78     dxguid:dxguid.obj
 0003:00003d90       IID_IDirectMusic8          0000000140033d90     dxguid:dxguid.obj
 0003:00003da8       GUID_DMUS_PROP_GM_Hardware 0000000140033da8     dxguid:dxguid.obj
 0003:00003dc0       GUID_DMUS_PROP_GS_Hardware 0000000140033dc0     dxguid:dxguid.obj
 0003:00003dd8       GUID_DMUS_PROP_XG_Hardware 0000000140033dd8     dxguid:dxguid.obj
 0003:00003df0       GUID_DMUS_PROP_XG_Capable  0000000140033df0     dxguid:dxguid.obj
 0003:00003e08       GUID_DMUS_PROP_GS_Capable  0000000140033e08     dxguid:dxguid.obj
 0003:00003e20       GUID_DMUS_PROP_DLS1        0000000140033e20     dxguid:dxguid.obj
 0003:00003e38       GUID_DMUS_PROP_DLS2        0000000140033e38     dxguid:dxguid.obj
 0003:00003e50       GUID_DMUS_PROP_INSTRUMENT2 0000000140033e50     dxguid:dxguid.obj
 0003:00003e68       GUID_DMUS_PROP_SynthSink_DSOUND 0000000140033e68     dxguid:dxguid.obj
 0003:00003e80       GUID_DMUS_PROP_SynthSink_WAVE 0000000140033e80     dxguid:dxguid.obj
 0003:00003e98       GUID_DMUS_PROP_SampleMemorySize 0000000140033e98     dxguid:dxguid.obj
 0003:00003eb0       GUID_DMUS_PROP_SamplePlaybackRate 0000000140033eb0     dxguid:dxguid.obj
 0003:00003ec8       GUID_DMUS_PROP_WriteLatency 0000000140033ec8     dxguid:dxguid.obj
 0003:00003ee0       GUID_DMUS_PROP_WritePeriod 0000000140033ee0     dxguid:dxguid.obj
 0003:00003ef8       GUID_DMUS_PROP_MemorySize  0000000140033ef8     dxguid:dxguid.obj
 0003:00003f10       GUID_DMUS_PROP_WavesReverb 0000000140033f10     dxguid:dxguid.obj
 0003:00003f28       GUID_DMUS_PROP_Effects     0000000140033f28     dxguid:dxguid.obj
 0003:00003f40       GUID_DMUS_PROP_LegacyCaps  0000000140033f40     dxguid:dxguid.obj
 0003:00003f58       GUID_DMUS_PROP_Volume      0000000140033f58     dxguid:dxguid.obj
 0003:00003f70       NETWORK_MANAGER_FIRST_IP_ADDRESS_ARRIVAL_GUID 0000000140033f70     dxguid:dxguid.obj
 0003:00003f88       NETWORK_MANAGER_LAST_IP_ADDRESS_REMOVAL_GUID 0000000140033f88     dxguid:dxguid.obj
 0003:00003fa0       DOMAIN_JOIN_GUID           0000000140033fa0     dxguid:dxguid.obj
 0003:00003fb8       DOMAIN_LEAVE_GUID          0000000140033fb8     dxguid:dxguid.obj
 0003:00003fd0       FIREWALL_PORT_OPEN_GUID    0000000140033fd0     dxguid:dxguid.obj
 0003:00003fe8       FIREWALL_PORT_CLOSE_GUID   0000000140033fe8     dxguid:dxguid.obj
 0003:00004000       MACHINE_POLICY_PRESENT_GUID 0000000140034000     dxguid:dxguid.obj
 0003:00004018       USER_POLICY_PRESENT_GUID   0000000140034018     dxguid:dxguid.obj
 0003:00004030       RPC_INTERFACE_EVENT_GUID   0000000140034030     dxguid:dxguid.obj
 0003:00004048       NAMED_PIPE_EVENT_GUID      0000000140034048     dxguid:dxguid.obj
 0003:00004060       CUSTOM_SYSTEM_STATE_CHANGE_EVENT_GUID 0000000140034060     dxguid:dxguid.obj
 0003:00004078       IID_IKsControl             0000000140034078     dxguid:dxguid.obj
 0003:00004090       KSDATAFORMAT_SUBTYPE_MIDI  0000000140034090     dxguid:dxguid.obj
 0003:000040a8       KSDATAFORMAT_SUBTYPE_DIRECTMUSIC 00000001400340a8     dxguid:dxguid.obj
 0003:000040c0       IID_IDirect3D8             00000001400340c0     dxguid:dxguid.obj
 0003:000040d8       IID_IDirect3DDevice8       00000001400340d8     dxguid:dxguid.obj
 0003:000040f0       IID_IDirect3DResource8     00000001400340f0     dxguid:dxguid.obj
 0003:00004108       IID_IDirect3DBaseTexture8  0000000140034108     dxguid:dxguid.obj
 0003:00004120       IID_IDirect3DTexture8      0000000140034120     dxguid:dxguid.obj
 0003:00004138       IID_IDirect3DCubeTexture8  0000000140034138     dxguid:dxguid.obj
 0003:00004150       IID_IDirect3DVolumeTexture8 0000000140034150     dxguid:dxguid.obj
 0003:00004168       IID_IDirect3DVertexBuffer8 0000000140034168     dxguid:dxguid.obj
 0003:00004180       IID_IDirect3DIndexBuffer8  0000000140034180     dxguid:dxguid.obj
 0003:00004198       IID_IDirect3DSurface8      0000000140034198     dxguid:dxguid.obj
 0003:000041b0       IID_IDirect3DVolume8       00000001400341b0     dxguid:dxguid.obj
 0003:000041c8       IID_IDirect3DSwapChain8    00000001400341c8     dxguid:dxguid.obj
 0003:000041e0       TID_D3DRMInfo              00000001400341e0     dxguid:dxguid.obj
 0003:000041f8       TID_D3DRMMesh              00000001400341f8     dxguid:dxguid.obj
 0003:00004210       TID_D3DRMVector            0000000140034210     dxguid:dxguid.obj
 0003:00004228       TID_D3DRMMeshFace          0000000140034228     dxguid:dxguid.obj
 0003:00004240       TID_D3DRMMaterial          0000000140034240     dxguid:dxguid.obj
 0003:00004258       TID_D3DRMMaterialArray     0000000140034258     dxguid:dxguid.obj
 0003:00004270       TID_D3DRMFrame             0000000140034270     dxguid:dxguid.obj
 0003:00004288       TID_D3DRMFrameTransformMatrix 0000000140034288     dxguid:dxguid.obj
 0003:000042a0       TID_D3DRMMeshMaterialList  00000001400342a0     dxguid:dxguid.obj
 0003:000042b8       TID_D3DRMMeshTextureCoords 00000001400342b8     dxguid:dxguid.obj
 0003:000042d0       TID_D3DRMMeshNormals       00000001400342d0     dxguid:dxguid.obj
 0003:000042e8       TID_D3DRMCoords2d          00000001400342e8     dxguid:dxguid.obj
 0003:00004300       TID_D3DRMMatrix4x4         0000000140034300     dxguid:dxguid.obj
 0003:00004318       TID_D3DRMAnimation         0000000140034318     dxguid:dxguid.obj
 0003:00004330       TID_D3DRMAnimationSet      0000000140034330     dxguid:dxguid.obj
 0003:00004348       TID_D3DRMAnimationKey      0000000140034348     dxguid:dxguid.obj
 0003:00004360       TID_D3DRMFloatKeys         0000000140034360     dxguid:dxguid.obj
 0003:00004378       TID_D3DRMMaterialAmbientColor 0000000140034378     dxguid:dxguid.obj
 0003:00004390       TID_D3DRMMaterialDiffuseColor 0000000140034390     dxguid:dxguid.obj
 0003:000043a8       TID_D3DRMMaterialSpecularColor 00000001400343a8     dxguid:dxguid.obj
 0003:000043c0       TID_D3DRMMaterialEmissiveColor 00000001400343c0     dxguid:dxguid.obj
 0003:000043d8       TID_D3DRMMaterialPower     00000001400343d8     dxguid:dxguid.obj
 0003:000043f0       TID_D3DRMColorRGBA         00000001400343f0     dxguid:dxguid.obj
 0003:00004408       TID_D3DRMColorRGB          0000000140034408     dxguid:dxguid.obj
 0003:00004420       TID_D3DRMGuid              0000000140034420     dxguid:dxguid.obj
 0003:00004438       TID_D3DRMTextureFilename   0000000140034438     dxguid:dxguid.obj
 0003:00004450       TID_D3DRMTextureReference  0000000140034450     dxguid:dxguid.obj
 0003:00004468       TID_D3DRMIndexedColor      0000000140034468     dxguid:dxguid.obj
 0003:00004480       TID_D3DRMMeshVertexColors  0000000140034480     dxguid:dxguid.obj
 0003:00004498       TID_D3DRMMaterialWrap      0000000140034498     dxguid:dxguid.obj
 0003:000044b0       TID_D3DRMBoolean           00000001400344b0     dxguid:dxguid.obj
 0003:000044c8       TID_D3DRMMeshFaceWraps     00000001400344c8     dxguid:dxguid.obj
 0003:000044e0       TID_D3DRMBoolean2d         00000001400344e0     dxguid:dxguid.obj
 0003:000044f8       TID_D3DRMTimedFloatKeys    00000001400344f8     dxguid:dxguid.obj
 0003:00004510       TID_D3DRMAnimationOptions  0000000140034510     dxguid:dxguid.obj
 0003:00004528       TID_D3DRMFramePosition     0000000140034528     dxguid:dxguid.obj
 0003:00004540       TID_D3DRMFrameVelocity     0000000140034540     dxguid:dxguid.obj
 0003:00004558       TID_D3DRMFrameRotation     0000000140034558     dxguid:dxguid.obj
 0003:00004570       TID_D3DRMLight             0000000140034570     dxguid:dxguid.obj
 0003:00004588       TID_D3DRMCamera            0000000140034588     dxguid:dxguid.obj
 0003:000045a0       TID_D3DRMAppData           00000001400345a0     dxguid:dxguid.obj
 0003:000045b8       TID_D3DRMLightUmbra        00000001400345b8     dxguid:dxguid.obj
 0003:000045d0       TID_D3DRMLightRange        00000001400345d0     dxguid:dxguid.obj
 0003:000045e8       TID_D3DRMLightPenumbra     00000001400345e8     dxguid:dxguid.obj
 0003:00004600       TID_D3DRMLightAttenuation  0000000140034600     dxguid:dxguid.obj
 0003:00004618       TID_D3DRMInlineData        0000000140034618     dxguid:dxguid.obj
 0003:00004630       TID_D3DRMUrl               0000000140034630     dxguid:dxguid.obj
 0003:00004648       TID_D3DRMProgressiveMesh   0000000140034648     dxguid:dxguid.obj
 0003:00004660       TID_D3DRMExternalVisual    0000000140034660     dxguid:dxguid.obj
 0003:00004678       TID_D3DRMStringProperty    0000000140034678     dxguid:dxguid.obj
 0003:00004690       TID_D3DRMPropertyBag       0000000140034690     dxguid:dxguid.obj
 0003:000046a8       TID_D3DRMRightHanded       00000001400346a8     dxguid:dxguid.obj
 0003:000046c0       CLSID_DirectDraw           00000001400346c0     dxguid:dxguid.obj
 0003:000046d8       CLSID_DirectDraw7          00000001400346d8     dxguid:dxguid.obj
 0003:000046f0       CLSID_DirectDrawClipper    00000001400346f0     dxguid:dxguid.obj
 0003:00004708       IID_IDirectDraw            0000000140034708     dxguid:dxguid.obj
 0003:00004720       IID_IDirectDraw2           0000000140034720     dxguid:dxguid.obj
 0003:00004738       IID_IDirectDraw4           0000000140034738     dxguid:dxguid.obj
 0003:00004750       IID_IDirectDraw7           0000000140034750     dxguid:dxguid.obj
 0003:00004768       CLSID_DirectSound          0000000140034768     dxguid:dxguid.obj
 0003:00004780       IID_IDirectDrawSurface     0000000140034780     dxguid:dxguid.obj
 0003:00004798       CLSID_DirectSound8         0000000140034798     dxguid:dxguid.obj
 0003:000047b0       CLSID_DirectSoundCapture   00000001400347b0     dxguid:dxguid.obj
 0003:000047c8       IID_IDirectDrawSurface2    00000001400347c8     dxguid:dxguid.obj
 0003:000047e0       IID_IDirectDrawSurface3    00000001400347e0     dxguid:dxguid.obj
 0003:000047f8       CLSID_DirectSoundCapture8  00000001400347f8     dxguid:dxguid.obj
 0003:00004810       IID_IDirectDrawSurface4    0000000140034810     dxguid:dxguid.obj
 0003:00004828       CLSID_DirectSoundFullDuplex 0000000140034828     dxguid:dxguid.obj
 0003:00004840       IID_IDirectDrawSurface7    0000000140034840     dxguid:dxguid.obj
 0003:00004858       DSDEVID_DefaultPlayback    0000000140034858     dxguid:dxguid.obj
 0003:00004870       IID_IDirectDrawSurfaceNew  0000000140034870     dxguid:dxguid.obj
 0003:00004888       DSDEVID_DefaultCapture     0000000140034888     dxguid:dxguid.obj
 0003:000048a0       DSDEVID_DefaultVoicePlayback 00000001400348a0     dxguid:dxguid.obj
 0003:000048b8       CLSID_DirectDrawFactory2   00000001400348b8     dxguid:dxguid.obj
 0003:000048d0       IID_IDirectDrawFactory2    00000001400348d0     dxguid:dxguid.obj
 0003:000048e8       DSDEVID_DefaultVoiceCapture 00000001400348e8     dxguid:dxguid.obj
 0003:00004900       GUID_DirectDrawSurfaceStream 0000000140034900     dxguid:dxguid.obj
 0003:00004918       GUID_DirectDrawPaletteStream 0000000140034918     dxguid:dxguid.obj
 0003:00004930       IID_IDirectDrawOptSurface  0000000140034930     dxguid:dxguid.obj
 0003:00004948       IID_IDirectDrawPalette2    0000000140034948     dxguid:dxguid.obj
 0003:00004960       IID_IDirectDrawPalette     0000000140034960     dxguid:dxguid.obj
 0003:00004978       IID_IDirectDrawClipper     0000000140034978     dxguid:dxguid.obj
 0003:00004990       IID_IDirectDrawColorControl 0000000140034990     dxguid:dxguid.obj
 0003:000049a8       IID_IDirectDrawGammaControl 00000001400349a8     dxguid:dxguid.obj
 0003:000049c0       IID_IDirectPlay            00000001400349c0     dxguid:dxguid.obj
 0003:000049d8       IID_IDirectPlayLobby       00000001400349d8     dxguid:dxguid.obj
 0003:000049f0       IID_IDirectPlayLobbyA      00000001400349f0     dxguid:dxguid.obj
 0003:00004a08       IID_IDirectPlayLobby2      0000000140034a08     dxguid:dxguid.obj
 0003:00004a20       IID_IDirectPlayLobby2A     0000000140034a20     dxguid:dxguid.obj
 0003:00004a38       IID_IDirectPlayLobby3      0000000140034a38     dxguid:dxguid.obj
 0003:00004a50       IID_IDirectPlayLobby3A     0000000140034a50     dxguid:dxguid.obj
 0003:00004a68       CLSID_DirectPlayLobby      0000000140034a68     dxguid:dxguid.obj
 0003:00004a80       CLSID_CDirectXFile         0000000140034a80     dxguid:dxguid.obj
 0003:00004a98       IID_IDirectXFile           0000000140034a98     dxguid:dxguid.obj
 0003:00004ab0       IID_IDirectXFileEnumObject 0000000140034ab0     dxguid:dxguid.obj
 0003:00004ac8       IID_IDirectXFileSaveObject 0000000140034ac8     dxguid:dxguid.obj
 0003:00004ae0       IID_IDirectXFileObject     0000000140034ae0     dxguid:dxguid.obj
 0003:00004af8       IID_IDirectXFileData       0000000140034af8     dxguid:dxguid.obj
 0003:00004b10       IID_IDirectXFileDataReference 0000000140034b10     dxguid:dxguid.obj
 0003:00004b28       IID_IDirectXFileBinary     0000000140034b28     dxguid:dxguid.obj
 0003:00004b40       TID_DXFILEHeader           0000000140034b40     dxguid:dxguid.obj
 0003:00004b58       CLSID_DirectInput          0000000140034b58     dxguid:dxguid.obj
 0003:00004b70       CLSID_DirectInputDevice    0000000140034b70     dxguid:dxguid.obj
 0003:00004b88       CLSID_DirectInput8         0000000140034b88     dxguid:dxguid.obj
 0003:00004ba0       CLSID_DirectInputDevice8   0000000140034ba0     dxguid:dxguid.obj
 0003:00004bb8       IID_IDirectInputA          0000000140034bb8     dxguid:dxguid.obj
 0003:00004bd0       IID_IDirectInputW          0000000140034bd0     dxguid:dxguid.obj
 0003:00004be8       IID_IDirectInput2A         0000000140034be8     dxguid:dxguid.obj
 0003:00004c00       IID_IDirectInput2W         0000000140034c00     dxguid:dxguid.obj
 0003:00004c18       IID_IDirectInput7A         0000000140034c18     dxguid:dxguid.obj
 0003:00004c30       IID_IDirectInput7W         0000000140034c30     dxguid:dxguid.obj
 0003:00004c48       IID_IDirectInput8A         0000000140034c48     dxguid:dxguid.obj
 0003:00004c60       IID_IDirectInput8W         0000000140034c60     dxguid:dxguid.obj
 0003:00004c78       IID_IDirectInputDeviceA    0000000140034c78     dxguid:dxguid.obj
 0003:00004c90       IID_IDirectInputDeviceW    0000000140034c90     dxguid:dxguid.obj
 0003:00004ca8       IID_IDirectInputDevice2A   0000000140034ca8     dxguid:dxguid.obj
 0003:00004cc0       IID_IDirectInputDevice2W   0000000140034cc0     dxguid:dxguid.obj
 0003:00004cd8       IID_IDirectInputDevice7A   0000000140034cd8     dxguid:dxguid.obj
 0003:00004cf0       IID_IDirectInputDevice7W   0000000140034cf0     dxguid:dxguid.obj
 0003:00004d08       IID_IDirectInputDevice8A   0000000140034d08     dxguid:dxguid.obj
 0003:00004d20       IID_IDirectInputDevice8W   0000000140034d20     dxguid:dxguid.obj
 0003:00004d38       IID_IDirectInputEffect     0000000140034d38     dxguid:dxguid.obj
 0003:00004d50       GUID_XAxis                 0000000140034d50     dxguid:dxguid.obj
 0003:00004d68       GUID_YAxis                 0000000140034d68     dxguid:dxguid.obj
 0003:00004d80       GUID_ZAxis                 0000000140034d80     dxguid:dxguid.obj
 0003:00004d98       GUID_RxAxis                0000000140034d98     dxguid:dxguid.obj
 0003:00004db0       GUID_RyAxis                0000000140034db0     dxguid:dxguid.obj
 0003:00004dc8       GUID_RzAxis                0000000140034dc8     dxguid:dxguid.obj
 0003:00004de0       GUID_Slider                0000000140034de0     dxguid:dxguid.obj
 0003:00004df8       GUID_Button                0000000140034df8     dxguid:dxguid.obj
 0003:00004e10       GUID_Key                   0000000140034e10     dxguid:dxguid.obj
 0003:00004e28       GUID_POV                   0000000140034e28     dxguid:dxguid.obj
 0003:00004e40       GUID_Unknown               0000000140034e40     dxguid:dxguid.obj
 0003:00004e58       GUID_SysMouse              0000000140034e58     dxguid:dxguid.obj
 0003:00004e70       GUID_SysKeyboard           0000000140034e70     dxguid:dxguid.obj
 0003:00004e88       GUID_Joystick              0000000140034e88     dxguid:dxguid.obj
 0003:00004ea0       GUID_SysMouseEm            0000000140034ea0     dxguid:dxguid.obj
 0003:00004eb8       GUID_SysMouseEm2           0000000140034eb8     dxguid:dxguid.obj
 0003:00004ed0       GUID_SysKeyboardEm         0000000140034ed0     dxguid:dxguid.obj
 0003:00004ee8       GUID_SysKeyboardEm2        0000000140034ee8     dxguid:dxguid.obj
 0003:00004f00       GUID_ConstantForce         0000000140034f00     dxguid:dxguid.obj
 0003:00004f18       GUID_RampForce             0000000140034f18     dxguid:dxguid.obj
 0003:00004f30       GUID_Square                0000000140034f30     dxguid:dxguid.obj
 0003:00004f48       GUID_Sine                  0000000140034f48     dxguid:dxguid.obj
 0003:00004f60       GUID_Triangle              0000000140034f60     dxguid:dxguid.obj
 0003:00004f78       GUID_SawtoothUp            0000000140034f78     dxguid:dxguid.obj
 0003:00004f90       GUID_SawtoothDown          0000000140034f90     dxguid:dxguid.obj
 0003:00004fa8       GUID_Spring                0000000140034fa8     dxguid:dxguid.obj
 0003:00004fc0       GUID_Damper                0000000140034fc0     dxguid:dxguid.obj
 0003:00004fd8       GUID_Inertia               0000000140034fd8     dxguid:dxguid.obj
 0003:00004ff0       GUID_Friction              0000000140034ff0     dxguid:dxguid.obj
 0003:00005008       GUID_CustomForce           0000000140035008     dxguid:dxguid.obj
 0003:00005020       GUID_MiscellaneousCallbacks 0000000140035020     dxguid:dxguid.obj
 0003:00005038       GUID_VideoPortCallbacks    0000000140035038     dxguid:dxguid.obj
 0003:00005050       GUID_ColorControlCallbacks 0000000140035050     dxguid:dxguid.obj
 0003:00005068       GUID_VideoPortCaps         0000000140035068     dxguid:dxguid.obj
 0003:00005080       GUID_D3DCallbacks2         0000000140035080     dxguid:dxguid.obj
 0003:00005098       GUID_D3DCallbacks3         0000000140035098     dxguid:dxguid.obj
 0003:000050b0       GUID_NonLocalVidMemCaps    00000001400350b0     dxguid:dxguid.obj
 0003:000050c8       GUID_KernelCallbacks       00000001400350c8     dxguid:dxguid.obj
 0003:000050e0       GUID_KernelCaps            00000001400350e0     dxguid:dxguid.obj
 0003:000050f8       GUID_D3DExtendedCaps       00000001400350f8     dxguid:dxguid.obj
 0003:00005110       GUID_ZPixelFormats         0000000140035110     dxguid:dxguid.obj
 0003:00005128       GUID_DDMoreSurfaceCaps     0000000140035128     dxguid:dxguid.obj
 0003:00005140       GUID_DDStereoMode          0000000140035140     dxguid:dxguid.obj
 0003:00005158       GUID_OptSurfaceKmodeInfo   0000000140035158     dxguid:dxguid.obj
 0003:00005170       GUID_OptSurfaceUmodeInfo   0000000140035170     dxguid:dxguid.obj
 0003:00005188       GUID_UserModeDriverInfo    0000000140035188     dxguid:dxguid.obj
 0003:000051a0       GUID_UserModeDriverPassword 00000001400351a0     dxguid:dxguid.obj
 0003:000051b8       GUID_D3DParseUnknownCommandCallback 00000001400351b8     dxguid:dxguid.obj
 0003:000051d0       GUID_MotionCompCallbacks   00000001400351d0     dxguid:dxguid.obj
 0003:000051e8       GUID_NTCallbacks           00000001400351e8     dxguid:dxguid.obj
 0003:00005200       GUID_Miscellaneous2Callbacks 0000000140035200     dxguid:dxguid.obj
 0003:00005218       GUID_DDMoreCaps            0000000140035218     dxguid:dxguid.obj
 0003:00005230       IID_IDDVideoPortContainer  0000000140035230     dxguid:dxguid.obj
 0003:00005248       IID_IDirectDrawVideoPort   0000000140035248     dxguid:dxguid.obj
 0003:00005260       IID_IDirectDrawVideoPortNotify 0000000140035260     dxguid:dxguid.obj
 0003:00005278       DDVPTYPE_E_HREFH_VREFH     0000000140035278     dxguid:dxguid.obj
 0003:00005290       DDVPTYPE_E_HREFH_VREFL     0000000140035290     dxguid:dxguid.obj
 0003:000052a8       DDVPTYPE_E_HREFL_VREFH     00000001400352a8     dxguid:dxguid.obj
 0003:000052c0       DDVPTYPE_E_HREFL_VREFL     00000001400352c0     dxguid:dxguid.obj
 0003:000052d8       DDVPTYPE_CCIR656           00000001400352d8     dxguid:dxguid.obj
 0003:000052f0       DDVPTYPE_BROOKTREE         00000001400352f0     dxguid:dxguid.obj
 0003:00005308       DDVPTYPE_PHILIPS           0000000140035308     dxguid:dxguid.obj
 0003:00005320       IID_IReferenceClock        0000000140035320     dxguid:dxguid.obj
 0003:00005338       GUID_MAX_POWER_SAVINGS     0000000140035338     dxguid:dxguid.obj
 0003:00005350       GUID_MIN_POWER_SAVINGS     0000000140035350     dxguid:dxguid.obj
 0003:00005368       GUID_TYPICAL_POWER_SAVINGS 0000000140035368     dxguid:dxguid.obj
 0003:00005380       NO_SUBGROUP_GUID           0000000140035380     dxguid:dxguid.obj
 0003:00005398       ALL_POWERSCHEMES_GUID      0000000140035398     dxguid:dxguid.obj
 0003:000053b0       GUID_POWERSCHEME_PERSONALITY 00000001400353b0     dxguid:dxguid.obj
 0003:000053c8       GUID_ACTIVE_POWERSCHEME    00000001400353c8     dxguid:dxguid.obj
 0003:000053e0       GUID_IDLE_RESILIENCY_SUBGROUP 00000001400353e0     dxguid:dxguid.obj
 0003:000053f8       GUID_IDLE_RESILIENCY_PERIOD 00000001400353f8     dxguid:dxguid.obj
 0003:00005410       GUID_DEEP_SLEEP_ENABLED    0000000140035410     dxguid:dxguid.obj
 0003:00005428       GUID_DEEP_SLEEP_PLATFORM_STATE 0000000140035428     dxguid:dxguid.obj
 0003:00005440       GUID_DISK_COALESCING_POWERDOWN_TIMEOUT 0000000140035440     dxguid:dxguid.obj
 0003:00005458       GUID_EXECUTION_REQUIRED_REQUEST_TIMEOUT 0000000140035458     dxguid:dxguid.obj
 0003:00005470       GUID_VIDEO_SUBGROUP        0000000140035470     dxguid:dxguid.obj
 0003:00005488       GUID_VIDEO_POWERDOWN_TIMEOUT 0000000140035488     dxguid:dxguid.obj
 0003:000054a0       GUID_VIDEO_ANNOYANCE_TIMEOUT 00000001400354a0     dxguid:dxguid.obj
 0003:000054b8       GUID_VIDEO_ADAPTIVE_PERCENT_INCREASE 00000001400354b8     dxguid:dxguid.obj
 0003:000054d0       GUID_VIDEO_DIM_TIMEOUT     00000001400354d0     dxguid:dxguid.obj
 0003:000054e8       GUID_VIDEO_ADAPTIVE_POWERDOWN 00000001400354e8     dxguid:dxguid.obj
 0003:00005500       GUID_MONITOR_POWER_ON      0000000140035500     dxguid:dxguid.obj
 0003:00005518       GUID_DEVICE_POWER_POLICY_VIDEO_BRIGHTNESS 0000000140035518     dxguid:dxguid.obj
 0003:00005530       GUID_DEVICE_POWER_POLICY_VIDEO_DIM_BRIGHTNESS 0000000140035530     dxguid:dxguid.obj
 0003:00005548       GUID_VIDEO_CURRENT_MONITOR_BRIGHTNESS 0000000140035548     dxguid:dxguid.obj
 0003:00005560       GUID_VIDEO_ADAPTIVE_DISPLAY_BRIGHTNESS 0000000140035560     dxguid:dxguid.obj
 0003:00005578       GUID_CONSOLE_DISPLAY_STATE 0000000140035578     dxguid:dxguid.obj
 0003:00005590       GUID_ALLOW_DISPLAY_REQUIRED 0000000140035590     dxguid:dxguid.obj
 0003:000055a8       IID_IDirectSound           00000001400355a8     dxguid:dxguid.obj
 0003:000055c0       GUID_VIDEO_CONSOLE_LOCK_TIMEOUT 00000001400355c0     dxguid:dxguid.obj
 0003:000055d8       GUID_ADVANCED_COLOR_QUALITY_BIAS 00000001400355d8     dxguid:dxguid.obj
 0003:000055f0       GUID_ADAPTIVE_POWER_BEHAVIOR_SUBGROUP 00000001400355f0     dxguid:dxguid.obj
 0003:00005608       GUID_NON_ADAPTIVE_INPUT_TIMEOUT 0000000140035608     dxguid:dxguid.obj
 0003:00005620       GUID_ADAPTIVE_INPUT_CONTROLLER_STATE 0000000140035620     dxguid:dxguid.obj
 0003:00005638       GUID_DISK_SUBGROUP         0000000140035638     dxguid:dxguid.obj
 0003:00005650       GUID_DISK_MAX_POWER        0000000140035650     dxguid:dxguid.obj
 0003:00005668       GUID_DISK_POWERDOWN_TIMEOUT 0000000140035668     dxguid:dxguid.obj
 0003:00005680       GUID_DISK_IDLE_TIMEOUT     0000000140035680     dxguid:dxguid.obj
 0003:00005698       GUID_DISK_BURST_IGNORE_THRESHOLD 0000000140035698     dxguid:dxguid.obj
 0003:000056b0       GUID_DISK_ADAPTIVE_POWERDOWN 00000001400356b0     dxguid:dxguid.obj
 0003:000056c8       GUID_SLEEP_SUBGROUP        00000001400356c8     dxguid:dxguid.obj
 0003:000056e0       GUID_SLEEP_IDLE_THRESHOLD  00000001400356e0     dxguid:dxguid.obj
 0003:000056f8       GUID_STANDBY_TIMEOUT       00000001400356f8     dxguid:dxguid.obj
 0003:00005710       GUID_UNATTEND_SLEEP_TIMEOUT 0000000140035710     dxguid:dxguid.obj
 0003:00005728       GUID_HIBERNATE_TIMEOUT     0000000140035728     dxguid:dxguid.obj
 0003:00005740       GUID_HIBERNATE_FASTS4_POLICY 0000000140035740     dxguid:dxguid.obj
 0003:00005758       GUID_CRITICAL_POWER_TRANSITION 0000000140035758     dxguid:dxguid.obj
 0003:00005770       GUID_SYSTEM_AWAYMODE       0000000140035770     dxguid:dxguid.obj
 0003:00005788       GUID_ALLOW_AWAYMODE        0000000140035788     dxguid:dxguid.obj
 0003:000057a0       GUID_USER_PRESENCE_PREDICTION 00000001400357a0     dxguid:dxguid.obj
 0003:000057b8       GUID_STANDBY_BUDGET_GRACE_PERIOD 00000001400357b8     dxguid:dxguid.obj
 0003:000057d0       GUID_STANDBY_BUDGET_PERCENT 00000001400357d0     dxguid:dxguid.obj
 0003:000057e8       GUID_STANDBY_RESERVE_GRACE_PERIOD 00000001400357e8     dxguid:dxguid.obj
 0003:00005800       GUID_STANDBY_RESERVE_TIME  0000000140035800     dxguid:dxguid.obj
 0003:00005818       GUID_STANDBY_RESET_PERCENT 0000000140035818     dxguid:dxguid.obj
 0003:00005830       GUID_ALLOW_STANDBY_STATES  0000000140035830     dxguid:dxguid.obj
 0003:00005848       GUID_ALLOW_RTC_WAKE        0000000140035848     dxguid:dxguid.obj
 0003:00005860       GUID_LEGACY_RTC_MITIGATION 0000000140035860     dxguid:dxguid.obj
 0003:00005878       GUID_ALLOW_SYSTEM_REQUIRED 0000000140035878     dxguid:dxguid.obj
 0003:00005890       GUID_POWER_SAVING_STATUS   0000000140035890     dxguid:dxguid.obj
 0003:000058a8       GUID_ENERGY_SAVER_SUBGROUP 00000001400358a8     dxguid:dxguid.obj
 0003:000058c0       GUID_ENERGY_SAVER_BATTERY_THRESHOLD 00000001400358c0     dxguid:dxguid.obj
 0003:000058d8       GUID_ENERGY_SAVER_BRIGHTNESS 00000001400358d8     dxguid:dxguid.obj
 0003:000058f0       GUID_ENERGY_SAVER_POLICY   00000001400358f0     dxguid:dxguid.obj
 0003:00005908       GUID_SYSTEM_BUTTON_SUBGROUP 0000000140035908     dxguid:dxguid.obj
 0003:00005920       GUID_POWERBUTTON_ACTION    0000000140035920     dxguid:dxguid.obj
 0003:00005938       GUID_SLEEPBUTTON_ACTION    0000000140035938     dxguid:dxguid.obj
 0003:00005950       GUID_USERINTERFACEBUTTON_ACTION 0000000140035950     dxguid:dxguid.obj
 0003:00005968       GUID_LIDCLOSE_ACTION       0000000140035968     dxguid:dxguid.obj
 0003:00005980       IID_IDirectSound8          0000000140035980     dxguid:dxguid.obj
 0003:00005998       GUID_LIDOPEN_POWERSTATE    0000000140035998     dxguid:dxguid.obj
 0003:000059b0       GUID_BATTERY_SUBGROUP      00000001400359b0     dxguid:dxguid.obj
 0003:000059c8       GUID_BATTERY_DISCHARGE_ACTION_0 00000001400359c8     dxguid:dxguid.obj
 0003:000059e0       GUID_BATTERY_DISCHARGE_LEVEL_0 00000001400359e0     dxguid:dxguid.obj
 0003:000059f8       GUID_BATTERY_DISCHARGE_FLAGS_0 00000001400359f8     dxguid:dxguid.obj
 0003:00005a10       GUID_BATTERY_DISCHARGE_ACTION_1 0000000140035a10     dxguid:dxguid.obj
 0003:00005a28       GUID_BATTERY_DISCHARGE_LEVEL_1 0000000140035a28     dxguid:dxguid.obj
 0003:00005a40       GUID_BATTERY_DISCHARGE_FLAGS_1 0000000140035a40     dxguid:dxguid.obj
 0003:00005a58       GUID_BATTERY_DISCHARGE_ACTION_2 0000000140035a58     dxguid:dxguid.obj
 0003:00005a70       GUID_BATTERY_DISCHARGE_LEVEL_2 0000000140035a70     dxguid:dxguid.obj
 0003:00005a88       GUID_BATTERY_DISCHARGE_FLAGS_2 0000000140035a88     dxguid:dxguid.obj
 0003:00005aa0       GUID_BATTERY_DISCHARGE_ACTION_3 0000000140035aa0     dxguid:dxguid.obj
 0003:00005ab8       GUID_BATTERY_DISCHARGE_LEVEL_3 0000000140035ab8     dxguid:dxguid.obj
 0003:00005ad0       GUID_BATTERY_DISCHARGE_FLAGS_3 0000000140035ad0     dxguid:dxguid.obj
 0003:00005ae8       GUID_PROCESSOR_SETTINGS_SUBGROUP 0000000140035ae8     dxguid:dxguid.obj
 0003:00005b00       GUID_PROCESSOR_THROTTLE_POLICY 0000000140035b00     dxguid:dxguid.obj
 0003:00005b18       GUID_PROCESSOR_THROTTLE_MAXIMUM 0000000140035b18     dxguid:dxguid.obj
 0003:00005b30       GUID_PROCESSOR_THROTTLE_MAXIMUM_1 0000000140035b30     dxguid:dxguid.obj
 0003:00005b48       GUID_PROCESSOR_THROTTLE_MINIMUM 0000000140035b48     dxguid:dxguid.obj
 0003:00005b60       GUID_PROCESSOR_THROTTLE_MINIMUM_1 0000000140035b60     dxguid:dxguid.obj
 0003:00005b78       GUID_PROCESSOR_FREQUENCY_LIMIT 0000000140035b78     dxguid:dxguid.obj
 0003:00005b90       GUID_PROCESSOR_FREQUENCY_LIMIT_1 0000000140035b90     dxguid:dxguid.obj
 0003:00005ba8       GUID_PROCESSOR_ALLOW_THROTTLING 0000000140035ba8     dxguid:dxguid.obj
 0003:00005bc0       GUID_PROCESSOR_IDLESTATE_POLICY 0000000140035bc0     dxguid:dxguid.obj
 0003:00005bd8       GUID_PROCESSOR_PERFSTATE_POLICY 0000000140035bd8     dxguid:dxguid.obj
 0003:00005bf0       GUID_PROCESSOR_PERF_INCREASE_THRESHOLD 0000000140035bf0     dxguid:dxguid.obj
 0003:00005c08       GUID_PROCESSOR_PERF_INCREASE_THRESHOLD_1 0000000140035c08     dxguid:dxguid.obj
 0003:00005c20       GUID_PROCESSOR_PERF_DECREASE_THRESHOLD 0000000140035c20     dxguid:dxguid.obj
 0003:00005c38       GUID_PROCESSOR_PERF_DECREASE_THRESHOLD_1 0000000140035c38     dxguid:dxguid.obj
 0003:00005c50       GUID_PROCESSOR_PERF_INCREASE_POLICY 0000000140035c50     dxguid:dxguid.obj
 0003:00005c68       GUID_PROCESSOR_PERF_INCREASE_POLICY_1 0000000140035c68     dxguid:dxguid.obj
 0003:00005c80       GUID_PROCESSOR_PERF_DECREASE_POLICY 0000000140035c80     dxguid:dxguid.obj
 0003:00005c98       GUID_PROCESSOR_PERF_DECREASE_POLICY_1 0000000140035c98     dxguid:dxguid.obj
 0003:00005cb0       GUID_PROCESSOR_PERF_INCREASE_TIME 0000000140035cb0     dxguid:dxguid.obj
 0003:00005cc8       GUID_PROCESSOR_PERF_INCREASE_TIME_1 0000000140035cc8     dxguid:dxguid.obj
 0003:00005ce0       GUID_PROCESSOR_PERF_DECREASE_TIME 0000000140035ce0     dxguid:dxguid.obj
 0003:00005cf8       GUID_PROCESSOR_PERF_DECREASE_TIME_1 0000000140035cf8     dxguid:dxguid.obj
 0003:00005d10       GUID_PROCESSOR_PERF_TIME_CHECK 0000000140035d10     dxguid:dxguid.obj
 0003:00005d28       GUID_PROCESSOR_PERF_BOOST_POLICY 0000000140035d28     dxguid:dxguid.obj
 0003:00005d40       GUID_PROCESSOR_PERF_BOOST_MODE 0000000140035d40     dxguid:dxguid.obj
 0003:00005d58       GUID_PROCESSOR_PERF_AUTONOMOUS_MODE 0000000140035d58     dxguid:dxguid.obj
 0003:00005d70       GUID_PROCESSOR_PERF_ENERGY_PERFORMANCE_PREFERENCE 0000000140035d70     dxguid:dxguid.obj
 0003:00005d88       IID_IDirectSoundBuffer     0000000140035d88     dxguid:dxguid.obj
 0003:00005da0       GUID_PROCESSOR_PERF_ENERGY_PERFORMANCE_PREFERENCE_1 0000000140035da0     dxguid:dxguid.obj
 0003:00005db8       GUID_PROCESSOR_PERF_AUTONOMOUS_ACTIVITY_WINDOW 0000000140035db8     dxguid:dxguid.obj
 0003:00005dd0       GUID_PROCESSOR_DUTY_CYCLING 0000000140035dd0     dxguid:dxguid.obj
 0003:00005de8       GUID_PROCESSOR_IDLE_ALLOW_SCALING 0000000140035de8     dxguid:dxguid.obj
 0003:00005e00       GUID_PROCESSOR_IDLE_DISABLE 0000000140035e00     dxguid:dxguid.obj
 0003:00005e18       GUID_PROCESSOR_IDLE_STATE_MAXIMUM 0000000140035e18     dxguid:dxguid.obj
 0003:00005e30       GUID_PROCESSOR_IDLE_TIME_CHECK 0000000140035e30     dxguid:dxguid.obj
 0003:00005e48       GUID_PROCESSOR_IDLE_DEMOTE_THRESHOLD 0000000140035e48     dxguid:dxguid.obj
 0003:00005e60       GUID_PROCESSOR_IDLE_PROMOTE_THRESHOLD 0000000140035e60     dxguid:dxguid.obj
 0003:00005e78       GUID_PROCESSOR_CORE_PARKING_INCREASE_THRESHOLD 0000000140035e78     dxguid:dxguid.obj
 0003:00005e90       GUID_PROCESSOR_CORE_PARKING_DECREASE_THRESHOLD 0000000140035e90     dxguid:dxguid.obj
 0003:00005ea8       GUID_PROCESSOR_CORE_PARKING_INCREASE_POLICY 0000000140035ea8     dxguid:dxguid.obj
 0003:00005ec0       GUID_PROCESSOR_CORE_PARKING_DECREASE_POLICY 0000000140035ec0     dxguid:dxguid.obj
 0003:00005ed8       GUID_PROCESSOR_CORE_PARKING_MAX_CORES 0000000140035ed8     dxguid:dxguid.obj
 0003:00005ef0       GUID_PROCESSOR_CORE_PARKING_MAX_CORES_1 0000000140035ef0     dxguid:dxguid.obj
 0003:00005f08       GUID_PROCESSOR_CORE_PARKING_MIN_CORES 0000000140035f08     dxguid:dxguid.obj
 0003:00005f20       GUID_PROCESSOR_CORE_PARKING_MIN_CORES_1 0000000140035f20     dxguid:dxguid.obj
 0003:00005f38       GUID_PROCESSOR_CORE_PARKING_INCREASE_TIME 0000000140035f38     dxguid:dxguid.obj
 0003:00005f50       GUID_PROCESSOR_CORE_PARKING_DECREASE_TIME 0000000140035f50     dxguid:dxguid.obj
 0003:00005f68       GUID_PROCESSOR_CORE_PARKING_AFFINITY_HISTORY_DECREASE_FACTOR 0000000140035f68     dxguid:dxguid.obj
 0003:00005f80       GUID_PROCESSOR_CORE_PARKING_AFFINITY_HISTORY_THRESHOLD 0000000140035f80     dxguid:dxguid.obj
 0003:00005f98       GUID_PROCESSOR_CORE_PARKING_AFFINITY_WEIGHTING 0000000140035f98     dxguid:dxguid.obj
 0003:00005fb0       GUID_PROCESSOR_CORE_PARKING_OVER_UTILIZATION_HISTORY_DECREASE_FACTOR 0000000140035fb0     dxguid:dxguid.obj
 0003:00005fc8       GUID_PROCESSOR_CORE_PARKING_OVER_UTILIZATION_HISTORY_THRESHOLD 0000000140035fc8     dxguid:dxguid.obj
 0003:00005fe0       GUID_PROCESSOR_CORE_PARKING_OVER_UTILIZATION_WEIGHTING 0000000140035fe0     dxguid:dxguid.obj
 0003:00005ff8       GUID_PROCESSOR_CORE_PARKING_OVER_UTILIZATION_THRESHOLD 0000000140035ff8     dxguid:dxguid.obj
 0003:00006010       GUID_PROCESSOR_PARKING_CORE_OVERRIDE 0000000140036010     dxguid:dxguid.obj
 0003:00006028       GUID_PROCESSOR_PARKING_PERF_STATE 0000000140036028     dxguid:dxguid.obj
 0003:00006040       GUID_PROCESSOR_PARKING_PERF_STATE_1 0000000140036040     dxguid:dxguid.obj
 0003:00006058       GUID_PROCESSOR_PARKING_CONCURRENCY_THRESHOLD 0000000140036058     dxguid:dxguid.obj
 0003:00006070       GUID_PROCESSOR_PARKING_HEADROOM_THRESHOLD 0000000140036070     dxguid:dxguid.obj
 0003:00006088       GUID_PROCESSOR_PARKING_DISTRIBUTION_THRESHOLD 0000000140036088     dxguid:dxguid.obj
 0003:000060a0       GUID_PROCESSOR_PERF_HISTORY 00000001400360a0     dxguid:dxguid.obj
 0003:000060b8       GUID_PROCESSOR_PERF_HISTORY_1 00000001400360b8     dxguid:dxguid.obj
 0003:000060d0       GUID_PROCESSOR_PERF_INCREASE_HISTORY 00000001400360d0     dxguid:dxguid.obj
 0003:000060e8       GUID_PROCESSOR_PERF_DECREASE_HISTORY 00000001400360e8     dxguid:dxguid.obj
 0003:00006100       GUID_PROCESSOR_PERF_CORE_PARKING_HISTORY 0000000140036100     dxguid:dxguid.obj
 0003:00006118       GUID_PROCESSOR_PERF_LATENCY_HINT 0000000140036118     dxguid:dxguid.obj
 0003:00006130       GUID_PROCESSOR_PERF_LATENCY_HINT_PERF 0000000140036130     dxguid:dxguid.obj
 0003:00006148       GUID_PROCESSOR_PERF_LATENCY_HINT_PERF_1 0000000140036148     dxguid:dxguid.obj
 0003:00006160       GUID_PROCESSOR_LATENCY_HINT_MIN_UNPARK 0000000140036160     dxguid:dxguid.obj
 0003:00006178       GUID_PROCESSOR_LATENCY_HINT_MIN_UNPARK_1 0000000140036178     dxguid:dxguid.obj
 0003:00006190       IID_IDirectInputEffectDriver 0000000140036190     dxguid:dxguid.obj
 0003:000061a8       GUID_PROCESSOR_DISTRIBUTE_UTILITY 00000001400361a8     dxguid:dxguid.obj
 0003:000061c0       IID_IDirectInputJoyConfig  00000001400361c0     dxguid:dxguid.obj
 0003:000061d8       GUID_PROCESSOR_HETEROGENEOUS_POLICY 00000001400361d8     dxguid:dxguid.obj
 0003:000061f0       IID_IDirectInputPIDDriver  00000001400361f0     dxguid:dxguid.obj
 0003:00006208       GUID_PROCESSOR_HETERO_DECREASE_TIME 0000000140036208     dxguid:dxguid.obj
 0003:00006220       IID_IDirectInputJoyConfig8 0000000140036220     dxguid:dxguid.obj
 0003:00006238       GUID_PROCESSOR_HETERO_INCREASE_TIME 0000000140036238     dxguid:dxguid.obj
 0003:00006250       GUID_PROCESSOR_HETERO_DECREASE_THRESHOLD 0000000140036250     dxguid:dxguid.obj
 0003:00006268       GUID_PROCESSOR_HETERO_INCREASE_THRESHOLD 0000000140036268     dxguid:dxguid.obj
 0003:00006280       GUID_PROCESSOR_CLASS0_FLOOR_PERF 0000000140036280     dxguid:dxguid.obj
 0003:00006298       GUID_PROCESSOR_CLASS1_INITIAL_PERF 0000000140036298     dxguid:dxguid.obj
 0003:000062b0       GUID_PROCESSOR_THREAD_SCHEDULING_POLICY 00000001400362b0     dxguid:dxguid.obj
 0003:000062c8       GUID_PROCESSOR_SHORT_THREAD_SCHEDULING_POLICY 00000001400362c8     dxguid:dxguid.obj
 0003:000062e0       GUID_SYSTEM_COOLING_POLICY 00000001400362e0     dxguid:dxguid.obj
 0003:000062f8       GUID_PROCESSOR_RESPONSIVENESS_DISABLE_THRESHOLD 00000001400362f8     dxguid:dxguid.obj
 0003:00006310       GUID_PROCESSOR_RESPONSIVENESS_DISABLE_THRESHOLD_1 0000000140036310     dxguid:dxguid.obj
 0003:00006328       GUID_PROCESSOR_RESPONSIVENESS_ENABLE_THRESHOLD 0000000140036328     dxguid:dxguid.obj
 0003:00006340       GUID_PROCESSOR_RESPONSIVENESS_ENABLE_THRESHOLD_1 0000000140036340     dxguid:dxguid.obj
 0003:00006358       GUID_PROCESSOR_RESPONSIVENESS_DISABLE_TIME 0000000140036358     dxguid:dxguid.obj
 0003:00006370       GUID_PROCESSOR_RESPONSIVENESS_DISABLE_TIME_1 0000000140036370     dxguid:dxguid.obj
 0003:00006388       GUID_PROCESSOR_RESPONSIVENESS_ENABLE_TIME 0000000140036388     dxguid:dxguid.obj
 0003:000063a0       GUID_PROCESSOR_RESPONSIVENESS_ENABLE_TIME_1 00000001400363a0     dxguid:dxguid.obj
 0003:000063b8       GUID_PROCESSOR_RESPONSIVENESS_EPP_CEILING 00000001400363b8     dxguid:dxguid.obj
 0003:000063d0       GUID_PROCESSOR_RESPONSIVENESS_EPP_CEILING_1 00000001400363d0     dxguid:dxguid.obj
 0003:000063e8       GUID_PROCESSOR_RESPONSIVENESS_PERF_FLOOR 00000001400363e8     dxguid:dxguid.obj
 0003:00006400       GUID_PROCESSOR_RESPONSIVENESS_PERF_FLOOR_1 0000000140036400     dxguid:dxguid.obj
 0003:00006418       GUID_LOCK_CONSOLE_ON_WAKE  0000000140036418     dxguid:dxguid.obj
 0003:00006430       GUID_DEVICE_IDLE_POLICY    0000000140036430     dxguid:dxguid.obj
 0003:00006448       GUID_CONNECTIVITY_IN_STANDBY 0000000140036448     dxguid:dxguid.obj
 0003:00006460       GUID_DISCONNECTED_STANDBY_MODE 0000000140036460     dxguid:dxguid.obj
 0003:00006478       GUID_ACDC_POWER_SOURCE     0000000140036478     dxguid:dxguid.obj
 0003:00006490       GUID_LIDSWITCH_STATE_CHANGE 0000000140036490     dxguid:dxguid.obj
 0003:000064a8       IID_IDirectSoundBuffer8    00000001400364a8     dxguid:dxguid.obj
 0003:000064c0       GUID_BATTERY_PERCENTAGE_REMAINING 00000001400364c0     dxguid:dxguid.obj
 0003:000064d8       GUID_BATTERY_COUNT         00000001400364d8     dxguid:dxguid.obj
 0003:000064f0       GUID_GLOBAL_USER_PRESENCE  00000001400364f0     dxguid:dxguid.obj
 0003:00006508       GUID_SESSION_DISPLAY_STATUS 0000000140036508     dxguid:dxguid.obj
 0003:00006520       GUID_SESSION_USER_PRESENCE 0000000140036520     dxguid:dxguid.obj
 0003:00006538       GUID_IDLE_BACKGROUND_TASK  0000000140036538     dxguid:dxguid.obj
 0003:00006550       GUID_BACKGROUND_TASK_NOTIFICATION 0000000140036550     dxguid:dxguid.obj
 0003:00006568       GUID_APPLAUNCH_BUTTON      0000000140036568     dxguid:dxguid.obj
 0003:00006580       GUID_PCIEXPRESS_SETTINGS_SUBGROUP 0000000140036580     dxguid:dxguid.obj
 0003:00006598       GUID_PCIEXPRESS_ASPM_POLICY 0000000140036598     dxguid:dxguid.obj
 0003:000065b0       GUID_ENABLE_SWITCH_FORCED_SHUTDOWN 00000001400365b0     dxguid:dxguid.obj
 0003:000065c8       GUID_INTSTEER_SUBGROUP     00000001400365c8     dxguid:dxguid.obj
 0003:000065e0       GUID_INTSTEER_MODE         00000001400365e0     dxguid:dxguid.obj
 0003:000065f8       GUID_INTSTEER_LOAD_PER_PROC_TRIGGER 00000001400365f8     dxguid:dxguid.obj
 0003:00006610       GUID_INTSTEER_TIME_UNPARK_TRIGGER 0000000140036610     dxguid:dxguid.obj
 0003:00006628       GUID_GRAPHICS_SUBGROUP     0000000140036628     dxguid:dxguid.obj
 0003:00006640       GUID_GPU_PREFERENCE_POLICY 0000000140036640     dxguid:dxguid.obj
 0003:00006658       GUID_MIXED_REALITY_MODE    0000000140036658     dxguid:dxguid.obj
 0003:00006670       GUID_SPR_ACTIVE_SESSION_CHANGE 0000000140036670     dxguid:dxguid.obj
 0003:00006688       GUID_All_Objects           0000000140036688     dxguid:dxguid.obj
 0003:000066a0       IID_IDirectSound3DListener 00000001400366a0     dxguid:dxguid.obj
 0003:000066b8       IID_IDirect3D              00000001400366b8     dxguid:dxguid.obj
 0003:000066d0       IID_IDirect3D2             00000001400366d0     dxguid:dxguid.obj
 0003:000066e8       IID_IDirect3D3             00000001400366e8     dxguid:dxguid.obj
 0003:00006700       IID_IDirect3D7             0000000140036700     dxguid:dxguid.obj
 0003:00006718       IID_IDirect3DRampDevice    0000000140036718     dxguid:dxguid.obj
 0003:00006730       IID_IDirect3DRGBDevice     0000000140036730     dxguid:dxguid.obj
 0003:00006748       IID_IDirect3DHALDevice     0000000140036748     dxguid:dxguid.obj
 0003:00006760       IID_IDirect3DMMXDevice     0000000140036760     dxguid:dxguid.obj
 0003:00006778       IID_IDirect3DRefDevice     0000000140036778     dxguid:dxguid.obj
 0003:00006790       IID_IDirect3DNullDevice    0000000140036790     dxguid:dxguid.obj
 0003:000067a8       IID_IDirect3DTnLHalDevice  00000001400367a8     dxguid:dxguid.obj
 0003:000067c0       IID_IDirect3DDevice        00000001400367c0     dxguid:dxguid.obj
 0003:000067d8       IID_IDirect3DDevice2       00000001400367d8     dxguid:dxguid.obj
 0003:000067f0       IID_IDirect3DDevice3       00000001400367f0     dxguid:dxguid.obj
 0003:00006808       IID_IDirect3DDevice7       0000000140036808     dxguid:dxguid.obj
 0003:00006820       IID_IDirect3DTexture       0000000140036820     dxguid:dxguid.obj
 0003:00006838       IID_IDirect3DTexture2      0000000140036838     dxguid:dxguid.obj
 0003:00006850       IID_IDirect3DLight         0000000140036850     dxguid:dxguid.obj
 0003:00006868       IID_IDirect3DMaterial      0000000140036868     dxguid:dxguid.obj
 0003:00006880       IID_IDirect3DMaterial2     0000000140036880     dxguid:dxguid.obj
 0003:00006898       IID_IDirect3DMaterial3     0000000140036898     dxguid:dxguid.obj
 0003:000068b0       IID_IDirect3DExecuteBuffer 00000001400368b0     dxguid:dxguid.obj
 0003:000068c8       IID_IDirect3DViewport      00000001400368c8     dxguid:dxguid.obj
 0003:000068e0       IID_IDirect3DViewport2     00000001400368e0     dxguid:dxguid.obj
 0003:000068f8       IID_IDirect3DViewport3     00000001400368f8     dxguid:dxguid.obj
 0003:00006910       IID_IDirect3DVertexBuffer  0000000140036910     dxguid:dxguid.obj
 0003:00006928       IID_IDirect3DVertexBuffer7 0000000140036928     dxguid:dxguid.obj
 0003:00006940       IID_IDirectSound3DBuffer   0000000140036940     dxguid:dxguid.obj
 0003:00006958       CLSID_DirectPlay8LobbiedApplication 0000000140036958     dxguid:dxguid.obj
 0003:00006970       CLSID_DirectPlay8LobbyClient 0000000140036970     dxguid:dxguid.obj
 0003:00006988       IID_IDirectPlay8LobbiedApplication 0000000140036988     dxguid:dxguid.obj
 0003:000069a0       IID_IDirectPlay8LobbyClient 00000001400369a0     dxguid:dxguid.obj
 0003:000069b8       IID_IDirectSoundCapture    00000001400369b8     dxguid:dxguid.obj
 0003:000069d0       DPLPROPERTY_MessagesSupported 00000001400369d0     dxguid:dxguid.obj
 0003:000069e8       DPLPROPERTY_LobbyGuid      00000001400369e8     dxguid:dxguid.obj
 0003:00006a00       DPLPROPERTY_PlayerGuid     0000000140036a00     dxguid:dxguid.obj
 0003:00006a18       DPLPROPERTY_PlayerScore    0000000140036a18     dxguid:dxguid.obj
 0003:00006a30       IID_IDirectSoundCaptureBuffer 0000000140036a30     dxguid:dxguid.obj
 0003:00006a48       IID_IDirectPlay2           0000000140036a48     dxguid:dxguid.obj
 0003:00006a60       IID_IDirectPlay2A          0000000140036a60     dxguid:dxguid.obj
 0003:00006a78       IID_IDirectPlay3           0000000140036a78     dxguid:dxguid.obj
 0003:00006a90       DPAID_TotalSize            0000000140036a90     dxguid:dxguid.obj
 0003:00006aa8       IID_IDirectPlay3A          0000000140036aa8     dxguid:dxguid.obj
 0003:00006ac0       IID_IDirectPlay4           0000000140036ac0     dxguid:dxguid.obj
 0003:00006ad8       DPAID_ServiceProvider      0000000140036ad8     dxguid:dxguid.obj
 0003:00006af0       IID_IDirectPlay4A          0000000140036af0     dxguid:dxguid.obj
 0003:00006b08       DPAID_LobbyProvider        0000000140036b08     dxguid:dxguid.obj
 0003:00006b20       CLSID_DirectPlay           0000000140036b20     dxguid:dxguid.obj
 0003:00006b38       DPAID_Phone                0000000140036b38     dxguid:dxguid.obj
 0003:00006b50       DPAID_PhoneW               0000000140036b50     dxguid:dxguid.obj
 0003:00006b68       DPSPGUID_IPX               0000000140036b68     dxguid:dxguid.obj
 0003:00006b80       DPSPGUID_TCPIP             0000000140036b80     dxguid:dxguid.obj
 0003:00006b98       DPAID_Modem                0000000140036b98     dxguid:dxguid.obj
 0003:00006bb0       DPAID_ModemW               0000000140036bb0     dxguid:dxguid.obj
 0003:00006bc8       DPSPGUID_SERIAL            0000000140036bc8     dxguid:dxguid.obj
 0003:00006be0       DPSPGUID_MODEM             0000000140036be0     dxguid:dxguid.obj
 0003:00006bf8       DPAID_INet                 0000000140036bf8     dxguid:dxguid.obj
 0003:00006c10       DPAID_INetW                0000000140036c10     dxguid:dxguid.obj
 0003:00006c28       DPAID_INetPort             0000000140036c28     dxguid:dxguid.obj
 0003:00006c40       IID_IDirectSoundCaptureBuffer8 0000000140036c40     dxguid:dxguid.obj
 0003:00006c58       DPAID_ComPort              0000000140036c58     dxguid:dxguid.obj
 0003:00006c70       CLSID_DirectPlay8Address   0000000140036c70     dxguid:dxguid.obj
 0003:00006c88       IID_IDirectPlay8Address    0000000140036c88     dxguid:dxguid.obj
 0003:00006ca0       IID_IDirectPlay8AddressIP  0000000140036ca0     dxguid:dxguid.obj
 0003:00006cb8       IID_IDirectSoundNotify     0000000140036cb8     dxguid:dxguid.obj
 0003:00006cd0       IID_IKsPropertySet         0000000140036cd0     dxguid:dxguid.obj
 0003:00006ce8       GUID_KeyboardClass         0000000140036ce8     dxguid:dxguid.obj
 0003:00006d00       GUID_MediaClass            0000000140036d00     dxguid:dxguid.obj
 0003:00006d18       GUID_MouseClass            0000000140036d18     dxguid:dxguid.obj
 0003:00006d30       GUID_HIDClass              0000000140036d30     dxguid:dxguid.obj
 0003:00006d48       IID_IDirectSoundFXGargle   0000000140036d48     dxguid:dxguid.obj
 0003:00006d60       GUID_NULL                  0000000140036d60     uuid:cguid_i.obj
 0003:00006d78       CATID_MARSHALER            0000000140036d78     uuid:cguid_i.obj
 0003:00006d90       IID_IRpcChannel            0000000140036d90     uuid:cguid_i.obj
 0003:00006da8       IID_IRpcStub               0000000140036da8     uuid:cguid_i.obj
 0003:00006dc0       IID_IStubManager           0000000140036dc0     uuid:cguid_i.obj
 0003:00006dd8       IID_IRpcProxy              0000000140036dd8     uuid:cguid_i.obj
 0003:00006df0       IID_IProxyManager          0000000140036df0     uuid:cguid_i.obj
 0003:00006e08       IID_IPSFactory             0000000140036e08     uuid:cguid_i.obj
 0003:00006e20       IID_IInternalMoniker       0000000140036e20     uuid:cguid_i.obj
 0003:00006e38       IID_IDfReserved1           0000000140036e38     uuid:cguid_i.obj
 0003:00006e50       IID_IDfReserved2           0000000140036e50     uuid:cguid_i.obj
 0003:00006e68       IID_IDfReserved3           0000000140036e68     uuid:cguid_i.obj
 0003:00006e80       CLSID_StdMarshal           0000000140036e80     uuid:cguid_i.obj
 0003:00006e98       IID_IStub                  0000000140036e98     uuid:cguid_i.obj
 0003:00006eb0       IID_IProxy                 0000000140036eb0     uuid:cguid_i.obj
 0003:00006ec8       IID_IEnumGeneric           0000000140036ec8     uuid:cguid_i.obj
 0003:00006ee0       IID_IEnumHolder            0000000140036ee0     uuid:cguid_i.obj
 0003:00006ef8       IID_IEnumCallback          0000000140036ef8     uuid:cguid_i.obj
 0003:00006f10       IID_IOleManager            0000000140036f10     uuid:cguid_i.obj
 0003:00006f28       IID_IOlePresObj            0000000140036f28     uuid:cguid_i.obj
 0003:00006f40       IID_IDebug                 0000000140036f40     uuid:cguid_i.obj
 0003:00006f58       IID_IDebugStream           0000000140036f58     uuid:cguid_i.obj
 0003:00006f70       CLSID_PSGenObject          0000000140036f70     uuid:cguid_i.obj
 0003:00006f88       CLSID_PSClientSite         0000000140036f88     uuid:cguid_i.obj
 0003:00006fa0       CLSID_PSClassObject        0000000140036fa0     uuid:cguid_i.obj
 0003:00006fb8       CLSID_PSInPlaceActive      0000000140036fb8     uuid:cguid_i.obj
 0003:00006fd0       CLSID_PSInPlaceFrame       0000000140036fd0     uuid:cguid_i.obj
 0003:00006fe8       CLSID_PSDragDrop           0000000140036fe8     uuid:cguid_i.obj
 0003:00007000       CLSID_PSBindCtx            0000000140037000     uuid:cguid_i.obj
 0003:00007018       CLSID_PSEnumerators        0000000140037018     uuid:cguid_i.obj
 0003:00007030       CLSID_StaticMetafile       0000000140037030     uuid:cguid_i.obj
 0003:00007048       CLSID_StaticDib            0000000140037048     uuid:cguid_i.obj
 0003:00007060       CLSID_Picture_Metafile     0000000140037060     uuid:cguid_i.obj
 0003:00007078       CLSID_Picture_EnhMetafile  0000000140037078     uuid:cguid_i.obj
 0003:00007090       CLSID_Picture_Dib          0000000140037090     uuid:cguid_i.obj
 0003:000070a8       CLSID_DCOMAccessControl    00000001400370a8     uuid:cguid_i.obj
 0003:000070c0       CLSID_StdGlobalInterfaceTable 00000001400370c0     uuid:cguid_i.obj
 0003:000070d8       CLSID_ManualResetEvent     00000001400370d8     uuid:cguid_i.obj
 0003:000070f0       CLSID_StdEvent             00000001400370f0     uuid:cguid_i.obj
 0003:00007108       CLSID_SynchronizeContainer 0000000140037108     uuid:cguid_i.obj
 0003:00007120       CLSID_ComBinding           0000000140037120     uuid:cguid_i.obj
 0003:00007138       CLSID_StdAsyncActManager   0000000140037138     uuid:cguid_i.obj
 0003:00007150       CLSID_InProcFreeMarshaler  0000000140037150     uuid:cguid_i.obj
 0003:00007168       CLSID_RemoteUnknownPSFactory 0000000140037168     uuid:cguid_i.obj
 0003:00007180       IID_IRichEditOle           0000000140037180     uuid:cguid_i.obj
 0003:00007198       IID_IRichEditOleCallback   0000000140037198     uuid:cguid_i.obj
 0003:000071b0       CLSID_AllClasses           00000001400371b0     uuid:cguid_i.obj
 0003:000071c8       CLSID_LocalMachineClasses  00000001400371c8     uuid:cguid_i.obj
 0003:000071e0       CLSID_CurrentUserClasses   00000001400371e0     uuid:cguid_i.obj
 0003:000071f8       CLSID_AddrControl          00000001400371f8     uuid:cguid_i.obj
 0003:00007210       CLSID_GlobalOptions        0000000140037210     uuid:cguid_i.obj
 0003:00007228       CLSID_SurrogateManager     0000000140037228     uuid:cguid_i.obj
 0003:00007240       CLSID_ContextSwitcher      0000000140037240     uuid:cguid_i.obj
 0003:00007258       CLSID_ActivationStore      0000000140037258     uuid:cguid_i.obj
 0003:00007270       IID_IPropertyFrame         0000000140037270     uuid:cguid_i.obj
 0003:00007288       CLSID_CFontPropPage        0000000140037288     uuid:cguid_i.obj
 0003:000072a0       CLSID_CColorPropPage       00000001400372a0     uuid:cguid_i.obj
 0003:000072b8       CLSID_CPicturePropPage     00000001400372b8     uuid:cguid_i.obj
 0003:000072d0       CLSID_StockFontPage        00000001400372d0     uuid:cguid_i.obj
 0003:000072e8       CLSID_StockColorPage       00000001400372e8     uuid:cguid_i.obj
 0003:00007300       CLSID_StockPicturePage     0000000140037300     uuid:cguid_i.obj
 0003:00007318       CLSID_PersistPropset       0000000140037318     uuid:cguid_i.obj
 0003:00007330       CLSID_ConvertVBX           0000000140037330     uuid:cguid_i.obj
 0003:00007348       CLSID_StdFont              0000000140037348     uuid:cguid_i.obj
 0003:00007360       CLSID_StdPicture           0000000140037360     uuid:cguid_i.obj
 0003:00007378       GUID_HIMETRIC              0000000140037378     uuid:cguid_i.obj
 0003:00007390       GUID_COLOR                 0000000140037390     uuid:cguid_i.obj
 0003:000073a8       GUID_XPOSPIXEL             00000001400373a8     uuid:cguid_i.obj
 0003:000073c0       GUID_YPOSPIXEL             00000001400373c0     uuid:cguid_i.obj
 0003:000073d8       GUID_XSIZEPIXEL            00000001400373d8     uuid:cguid_i.obj
 0003:000073f0       GUID_YSIZEPIXEL            00000001400373f0     uuid:cguid_i.obj
 0003:00007408       GUID_XPOS                  0000000140037408     uuid:cguid_i.obj
 0003:00007420       GUID_YPOS                  0000000140037420     uuid:cguid_i.obj
 0003:00007438       GUID_XSIZE                 0000000140037438     uuid:cguid_i.obj
 0003:00007450       GUID_YSIZE                 0000000140037450     uuid:cguid_i.obj
 0003:00007468       GUID_TRISTATE              0000000140037468     uuid:cguid_i.obj
 0003:00007480       GUID_OPTIONVALUEEXCLUSIVE  0000000140037480     uuid:cguid_i.obj
 0003:00007498       GUID_CHECKVALUEEXCLUSIVE   0000000140037498     uuid:cguid_i.obj
 0003:000074b0       GUID_FONTNAME              00000001400374b0     uuid:cguid_i.obj
 0003:000074c8       GUID_FONTSIZE              00000001400374c8     uuid:cguid_i.obj
 0003:000074e0       GUID_FONTBOLD              00000001400374e0     uuid:cguid_i.obj
 0003:000074f8       GUID_FONTITALIC            00000001400374f8     uuid:cguid_i.obj
 0003:00007510       GUID_FONTUNDERSCORE        0000000140037510     uuid:cguid_i.obj
 0003:00007528       GUID_FONTSTRIKETHROUGH     0000000140037528     uuid:cguid_i.obj
 0003:00007540       GUID_HANDLE                0000000140037540     uuid:cguid_i.obj
 0003:00007558       IID_StdOle                 0000000140037558     uuid:cguid_i.obj
 0003:00007570       IID_ICursor                0000000140037570     uuid:cguid_i.obj
 0003:00007588       IID_ICursorMove            0000000140037588     uuid:cguid_i.obj
 0003:000075a0       IID_ICursorScroll          00000001400375a0     uuid:cguid_i.obj
 0003:000075b8       IID_ICursorUpdateARow      00000001400375b8     uuid:cguid_i.obj
 0003:000075d0       IID_INotifyDBEvents        00000001400375d0     uuid:cguid_i.obj
 0003:000075e8       IID_ICursorFind            00000001400375e8     uuid:cguid_i.obj
 0003:00007600       IID_IEntryID               0000000140037600     uuid:cguid_i.obj
 0003:00007618       _GUID_NAMEONLY             0000000140037618     uuid:cguid_i.obj
 0003:00007630       _DBBMKGUID                 0000000140037630     uuid:cguid_i.obj
 0003:00007648       _DBCIDGUID                 0000000140037648     uuid:cguid_i.obj
 0003:00007660       IID_IBoundObject           0000000140037660     uuid:cguid_i.obj
 0003:00007678       IID_IBoundObjectSite       0000000140037678     uuid:cguid_i.obj
 0003:00007690       CLSID_GblComponentCategoriesMgr 0000000140037690     uuid:cguid_i.obj
 0003:000076a8       CLSID_ThumbnailFCNHandler  00000001400376a8     uuid:cguid_i.obj
 0003:000076c0       CLSID_ThumbnailUpdater     00000001400376c0     uuid:cguid_i.obj
 0003:000076d8       IID_ICallbackWithNoReentrancyToApplicationSTA 00000001400376d8     uuid:cguid_i.obj
 0003:000076f0       CLSID_TypeLibRegistrationReader 00000001400376f0     uuid:cguid_i.obj
 0003:00007708       GUID_DEVCLASS_1394         0000000140037708     uuid:cguid_i.obj
 0003:00007720       GUID_DEVCLASS_1394DEBUG    0000000140037720     uuid:cguid_i.obj
 0003:00007738       GUID_DEVCLASS_61883        0000000140037738     uuid:cguid_i.obj
 0003:00007750       GUID_DEVCLASS_ADAPTER      0000000140037750     uuid:cguid_i.obj
 0003:00007768       GUID_DEVCLASS_APMSUPPORT   0000000140037768     uuid:cguid_i.obj
 0003:00007780       GUID_DEVCLASS_AVC          0000000140037780     uuid:cguid_i.obj
 0003:00007798       GUID_DEVCLASS_BATTERY      0000000140037798     uuid:cguid_i.obj
 0003:000077b0       GUID_DEVCLASS_BIOMETRIC    00000001400377b0     uuid:cguid_i.obj
 0003:000077c8       GUID_DEVCLASS_BLUETOOTH    00000001400377c8     uuid:cguid_i.obj
 0003:000077e0       GUID_DEVCLASS_CAMERA       00000001400377e0     uuid:cguid_i.obj
 0003:000077f8       GUID_DEVCLASS_CDROM        00000001400377f8     uuid:cguid_i.obj
 0003:00007810       GUID_DEVCLASS_COMPUTER     0000000140037810     uuid:cguid_i.obj
 0003:00007828       GUID_DEVCLASS_DECODER      0000000140037828     uuid:cguid_i.obj
 0003:00007840       GUID_DEVCLASS_DISKDRIVE    0000000140037840     uuid:cguid_i.obj
 0003:00007858       GUID_DEVCLASS_DISPLAY      0000000140037858     uuid:cguid_i.obj
 0003:00007870       GUID_DEVCLASS_DOT4         0000000140037870     uuid:cguid_i.obj
 0003:00007888       GUID_DEVCLASS_DOT4PRINT    0000000140037888     uuid:cguid_i.obj
 0003:000078a0       GUID_DEVCLASS_EHSTORAGESILO 00000001400378a0     uuid:cguid_i.obj
 0003:000078b8       GUID_DEVCLASS_ENUM1394     00000001400378b8     uuid:cguid_i.obj
 0003:000078d0       GUID_DEVCLASS_EXTENSION    00000001400378d0     uuid:cguid_i.obj
 0003:000078e8       GUID_DEVCLASS_FDC          00000001400378e8     uuid:cguid_i.obj
 0003:00007900       GUID_DEVCLASS_FIRMWARE     0000000140037900     uuid:cguid_i.obj
 0003:00007918       GUID_DEVCLASS_FLOPPYDISK   0000000140037918     uuid:cguid_i.obj
 0003:00007930       GUID_DEVCLASS_GPS          0000000140037930     uuid:cguid_i.obj
 0003:00007948       GUID_DEVCLASS_HDC          0000000140037948     uuid:cguid_i.obj
 0003:00007960       GUID_DEVCLASS_HIDCLASS     0000000140037960     uuid:cguid_i.obj
 0003:00007978       GUID_DEVCLASS_HOLOGRAPHIC  0000000140037978     uuid:cguid_i.obj
 0003:00007990       GUID_DEVCLASS_IMAGE        0000000140037990     uuid:cguid_i.obj
 0003:000079a8       GUID_DEVCLASS_INFINIBAND   00000001400379a8     uuid:cguid_i.obj
 0003:000079c0       GUID_DEVCLASS_INFRARED     00000001400379c0     uuid:cguid_i.obj
 0003:000079d8       GUID_DEVCLASS_KEYBOARD     00000001400379d8     uuid:cguid_i.obj
 0003:000079f0       GUID_DEVCLASS_LEGACYDRIVER 00000001400379f0     uuid:cguid_i.obj
 0003:00007a08       GUID_DEVCLASS_MEDIA        0000000140037a08     uuid:cguid_i.obj
 0003:00007a20       GUID_DEVCLASS_MEDIUM_CHANGER 0000000140037a20     uuid:cguid_i.obj
 0003:00007a38       GUID_DEVCLASS_MEMORY       0000000140037a38     uuid:cguid_i.obj
 0003:00007a50       GUID_DEVCLASS_MODEM        0000000140037a50     uuid:cguid_i.obj
 0003:00007a68       GUID_DEVCLASS_MONITOR      0000000140037a68     uuid:cguid_i.obj
 0003:00007a80       GUID_DEVCLASS_MOUSE        0000000140037a80     uuid:cguid_i.obj
 0003:00007a98       GUID_DEVCLASS_MTD          0000000140037a98     uuid:cguid_i.obj
 0003:00007ab0       GUID_DEVCLASS_MULTIFUNCTION 0000000140037ab0     uuid:cguid_i.obj
 0003:00007ac8       GUID_DEVCLASS_MULTIPORTSERIAL 0000000140037ac8     uuid:cguid_i.obj
 0003:00007ae0       GUID_DEVCLASS_NET          0000000140037ae0     uuid:cguid_i.obj
 0003:00007af8       GUID_DEVCLASS_NETCLIENT    0000000140037af8     uuid:cguid_i.obj
 0003:00007b10       GUID_DEVCLASS_NETDRIVER    0000000140037b10     uuid:cguid_i.obj
 0003:00007b28       GUID_DEVCLASS_NETSERVICE   0000000140037b28     uuid:cguid_i.obj
 0003:00007b40       GUID_DEVCLASS_NETTRANS     0000000140037b40     uuid:cguid_i.obj
 0003:00007b58       GUID_DEVCLASS_NODRIVER     0000000140037b58     uuid:cguid_i.obj
 0003:00007b70       GUID_DEVCLASS_PCMCIA       0000000140037b70     uuid:cguid_i.obj
 0003:00007b88       GUID_DEVCLASS_PNPPRINTERS  0000000140037b88     uuid:cguid_i.obj
 0003:00007ba0       GUID_DEVCLASS_PORTS        0000000140037ba0     uuid:cguid_i.obj
 0003:00007bb8       GUID_DEVCLASS_PRINTER      0000000140037bb8     uuid:cguid_i.obj
 0003:00007bd0       GUID_DEVCLASS_PRINTERUPGRADE 0000000140037bd0     uuid:cguid_i.obj
 0003:00007be8       GUID_DEVCLASS_PRINTQUEUE   0000000140037be8     uuid:cguid_i.obj
 0003:00007c00       GUID_DEVCLASS_PROCESSOR    0000000140037c00     uuid:cguid_i.obj
 0003:00007c18       GUID_DEVCLASS_SBP2         0000000140037c18     uuid:cguid_i.obj
 0003:00007c30       GUID_DEVCLASS_SCMDISK      0000000140037c30     uuid:cguid_i.obj
 0003:00007c48       GUID_DEVCLASS_SCMVOLUME    0000000140037c48     uuid:cguid_i.obj
 0003:00007c60       GUID_DEVCLASS_SCSIADAPTER  0000000140037c60     uuid:cguid_i.obj
 0003:00007c78       GUID_DEVCLASS_SECURITYACCELERATOR 0000000140037c78     uuid:cguid_i.obj
 0003:00007c90       GUID_DEVCLASS_SENSOR       0000000140037c90     uuid:cguid_i.obj
 0003:00007ca8       GUID_DEVCLASS_SIDESHOW     0000000140037ca8     uuid:cguid_i.obj
 0003:00007cc0       GUID_DEVCLASS_SMARTCARDREADER 0000000140037cc0     uuid:cguid_i.obj
 0003:00007cd8       GUID_DEVCLASS_SMRDISK      0000000140037cd8     uuid:cguid_i.obj
 0003:00007cf0       GUID_DEVCLASS_SMRVOLUME    0000000140037cf0     uuid:cguid_i.obj
 0003:00007d08       GUID_DEVCLASS_SOFTWARECOMPONENT 0000000140037d08     uuid:cguid_i.obj
 0003:00007d20       GUID_DEVCLASS_SOUND        0000000140037d20     uuid:cguid_i.obj
 0003:00007d38       GUID_DEVCLASS_SYSTEM       0000000140037d38     uuid:cguid_i.obj
 0003:00007d50       GUID_DEVCLASS_TAPEDRIVE    0000000140037d50     uuid:cguid_i.obj
 0003:00007d68       GUID_DEVCLASS_UNKNOWN      0000000140037d68     uuid:cguid_i.obj
 0003:00007d80       GUID_DEVCLASS_UCM          0000000140037d80     uuid:cguid_i.obj
 0003:00007d98       GUID_DEVCLASS_USB          0000000140037d98     uuid:cguid_i.obj
 0003:00007db0       GUID_DEVCLASS_VOLUME       0000000140037db0     uuid:cguid_i.obj
 0003:00007dc8       GUID_DEVCLASS_VOLUMESNAPSHOT 0000000140037dc8     uuid:cguid_i.obj
 0003:00007de0       GUID_DEVCLASS_WCEUSBS      0000000140037de0     uuid:cguid_i.obj
 0003:00007df8       GUID_DEVCLASS_WPD          0000000140037df8     uuid:cguid_i.obj
 0003:00007e10       GUID_DEVCLASS_FSFILTER_TOP 0000000140037e10     uuid:cguid_i.obj
 0003:00007e28       GUID_DEVCLASS_FSFILTER_ACTIVITYMONITOR 0000000140037e28     uuid:cguid_i.obj
 0003:00007e40       GUID_DEVCLASS_FSFILTER_UNDELETE 0000000140037e40     uuid:cguid_i.obj
 0003:00007e58       GUID_DEVCLASS_FSFILTER_ANTIVIRUS 0000000140037e58     uuid:cguid_i.obj
 0003:00007e70       GUID_DEVCLASS_FSFILTER_REPLICATION 0000000140037e70     uuid:cguid_i.obj
 0003:00007e88       GUID_DEVCLASS_FSFILTER_CONTINUOUSBACKUP 0000000140037e88     uuid:cguid_i.obj
 0003:00007ea0       GUID_DEVCLASS_FSFILTER_CONTENTSCREENER 0000000140037ea0     uuid:cguid_i.obj
 0003:00007eb8       GUID_DEVCLASS_FSFILTER_QUOTAMANAGEMENT 0000000140037eb8     uuid:cguid_i.obj
 0003:00007ed0       GUID_DEVCLASS_FSFILTER_SYSTEMRECOVERY 0000000140037ed0     uuid:cguid_i.obj
 0003:00007ee8       GUID_DEVCLASS_FSFILTER_CFSMETADATASERVER 0000000140037ee8     uuid:cguid_i.obj
 0003:00007f00       GUID_DEVCLASS_FSFILTER_HSM 0000000140037f00     uuid:cguid_i.obj
 0003:00007f18       GUID_DEVCLASS_FSFILTER_COMPRESSION 0000000140037f18     uuid:cguid_i.obj
 0003:00007f30       GUID_DEVCLASS_FSFILTER_ENCRYPTION 0000000140037f30     uuid:cguid_i.obj
 0003:00007f48       GUID_DEVCLASS_FSFILTER_VIRTUALIZATION 0000000140037f48     uuid:cguid_i.obj
 0003:00007f60       GUID_DEVCLASS_FSFILTER_PHYSICALQUOTAMANAGEMENT 0000000140037f60     uuid:cguid_i.obj
 0003:00007f78       GUID_DEVCLASS_FSFILTER_OPENFILEBACKUP 0000000140037f78     uuid:cguid_i.obj
 0003:00007f90       GUID_DEVCLASS_FSFILTER_SECURITYENHANCER 0000000140037f90     uuid:cguid_i.obj
 0003:00007fa8       GUID_DEVCLASS_FSFILTER_COPYPROTECTION 0000000140037fa8     uuid:cguid_i.obj
 0003:00007fc0       GUID_DEVCLASS_FSFILTER_BOTTOM 0000000140037fc0     uuid:cguid_i.obj
 0003:00007fd8       GUID_DEVCLASS_FSFILTER_SYSTEM 0000000140037fd8     uuid:cguid_i.obj
 0003:00007ff0       GUID_DEVCLASS_FSFILTER_INFRASTRUCTURE 0000000140037ff0     uuid:cguid_i.obj
 0003:00008008       GUID_DEVINTERFACE_DISK     0000000140038008     uuid:cguid_i.obj
 0003:00008020       GUID_DEVINTERFACE_CDROM    0000000140038020     uuid:cguid_i.obj
 0003:00008038       GUID_DEVINTERFACE_PARTITION 0000000140038038     uuid:cguid_i.obj
 0003:00008050       GUID_DEVINTERFACE_TAPE     0000000140038050     uuid:cguid_i.obj
 0003:00008068       GUID_DEVINTERFACE_WRITEONCEDISK 0000000140038068     uuid:cguid_i.obj
 0003:00008080       GUID_DEVINTERFACE_VOLUME   0000000140038080     uuid:cguid_i.obj
 0003:00008098       GUID_DEVINTERFACE_MEDIUMCHANGER 0000000140038098     uuid:cguid_i.obj
 0003:000080b0       GUID_DEVINTERFACE_FLOPPY   00000001400380b0     uuid:cguid_i.obj
 0003:000080c8       GUID_DEVINTERFACE_CDCHANGER 00000001400380c8     uuid:cguid_i.obj
 0003:000080e0       GUID_DEVINTERFACE_STORAGEPORT 00000001400380e0     uuid:cguid_i.obj
 0003:000080f8       GUID_DEVINTERFACE_VMLUN    00000001400380f8     uuid:cguid_i.obj
 0003:00008110       GUID_DEVINTERFACE_SES      0000000140038110     uuid:cguid_i.obj
 0003:00008128       GUID_DEVINTERFACE_SERVICE_VOLUME 0000000140038128     uuid:cguid_i.obj
 0003:00008140       GUID_DEVINTERFACE_HIDDEN_VOLUME 0000000140038140     uuid:cguid_i.obj
 0003:00008158       GUID_DEVINTERFACE_UNIFIED_ACCESS_RPMB 0000000140038158     uuid:cguid_i.obj
 0003:00008170       GUID_DEVINTERFACE_SCM_PHYSICAL_DEVICE 0000000140038170     uuid:cguid_i.obj
 0003:00008188       GUID_SCM_PD_HEALTH_NOTIFICATION 0000000140038188     uuid:cguid_i.obj
 0003:000081a0       GUID_SCM_PD_PASSTHROUGH_INVDIMM 00000001400381a0     uuid:cguid_i.obj
 0003:000081b8       GUID_DEVINTERFACE_COMPORT  00000001400381b8     uuid:cguid_i.obj
 0003:000081d0       GUID_DEVINTERFACE_SERENUM_BUS_ENUMERATOR 00000001400381d0     uuid:cguid_i.obj
 0003:000081f0       ??_7type_info@@6B@         00000001400381f0     MSVCRTD:std_type_info_static.obj
 0003:00008200       ??_C@_17CNPHIMPH@?$AA?$CF?$AAl?$AAs@ 0000000140038200     MSVCRTD:thread_safe_statics.obj
 0003:00008210       ??_C@_1EC@JIJBPKFM@?$AAa?$AAp?$AAi?$AA?9?$AAm?$AAs?$AA?9?$AAw?$AAi?$AAn?$AA?9?$AAc?$AAo?$AAr?$AAe@ 0000000140038210     MSVCRTD:thread_safe_statics.obj
 0003:00008260       ??_C@_1BK@MGMFAEKH@?$AAk?$AAe?$AAr?$AAn?$AAe?$AAl?$AA3?$AA2?$AA?4?$AAd?$AAl?$AAl@ 0000000140038260     MSVCRTD:thread_safe_statics.obj
 0003:00008280       ??_C@_0BJ@JEBJOJFJ@SleepConditionVariableCS@ 0000000140038280     MSVCRTD:thread_safe_statics.obj
 0003:000082a0       ??_C@_0BJ@PGPPEPCC@WakeAllConditionVariable@ 00000001400382a0     MSVCRTD:thread_safe_statics.obj
 0003:000082c0       ??_C@_1JM@MEGLFHBK@?$AAd?$AA?3?$AA?2?$AAa?$AAg?$AAe?$AAn?$AAt?$AA?2?$AA_?$AAw?$AAo?$AAr?$AAk?$AA?2@ 00000001400382c0     MSVCRTD:thread_safe_statics.obj
 0003:000083b0       ??_C@_0BJ@HEGAHDFO@Stack?5pointer?5corruption@ 00000001400383b0     MSVCRTD:userapi.obj
 0003:000083d0       ??_C@_0CK@FEGOIOPB@Cast?5to?5smaller?5type?5causing?5lo@ 00000001400383d0     MSVCRTD:userapi.obj
 0003:00008408       ??_C@_0BI@CIGMDCBH@Stack?5memory?5corruption@ 0000000140038408     MSVCRTD:userapi.obj
 0003:00008428       ??_C@_0CK@CNLNOEPB@Local?5variable?5used?5before?5init@ 0000000140038428     MSVCRTD:userapi.obj
 0003:00008460       ??_C@_0BP@OGBCLIBO@Stack?5around?5_alloca?5corrupted@ 0000000140038460     MSVCRTD:userapi.obj
 0003:00008488       ??_C@_0P@GHFPNOJB@bad?5allocation@ 0000000140038488     MSVCRTD:throw_bad_alloc.obj
 0003:00008580       ??_C@_0NN@JMPELKLB@The?5value?5of?5ESP?5was?5not?5proper@ 0000000140038580     MSVCRTD:error.obj
 0003:00008690       ??_C@_0BBN@ELNNILBE@A?5cast?5to?5a?5smaller?5data?5type?5h@ 0000000140038690     MSVCRTD:error.obj
 0003:000087e8       ??_C@_0BN@BPOGFMJL@Stack?5memory?5was?5corrupted?$AN?6@ 00000001400387e8     MSVCRTD:error.obj
 0003:00008810       ??_C@_0DG@DAJCDLPN@A?5local?5variable?5was?5used?5befor@ 0000000140038810     MSVCRTD:error.obj
 0003:00008850       ??_C@_0CM@JMIDGKLA@Stack?5memory?5around?5_alloca?5was@ 0000000140038850     MSVCRTD:error.obj
 0003:00008888       ??_C@_0BO@CHIONIOI@Unknown?5Runtime?5Check?5Error?$AN?6@ 0000000140038888     MSVCRTD:error.obj
 0003:000088b0       ??_C@_1GM@CNOOJIHC@?$AAR?$AAu?$AAn?$AAt?$AAi?$AAm?$AAe?$AA?5?$AAC?$AAh?$AAe?$AAc?$AAk?$AA?5?$AAE@ 00000001400388b0     MSVCRTD:error.obj
 0003:00008940       ??_C@_1EA@NFKNIFJP@?$AAR?$AAu?$AAn?$AA?9?$AAT?$AAi?$AAm?$AAe?$AA?5?$AAC?$AAh?$AAe?$AAc?$AAk?$AA?5@ 0000000140038940     MSVCRTD:error.obj
 0003:00008990       ??_C@_0BB@PFFGGCJP@Unknown?5Filename@ 0000000140038990     MSVCRTD:error.obj
 0003:000089a8       ??_C@_0BE@GNBOBNCK@Unknown?5Module?5Name@ 00000001400389a8     MSVCRTD:error.obj
 0003:000089c0       ??_C@_0CA@IODNCDPG@Run?9Time?5Check?5Failure?5?$CD?$CFd?5?9?5?$CFs@ 00000001400389c0     MSVCRTD:error.obj
 0003:000089e8       ??_C@_0CG@IAFNJNEE@Stack?5corrupted?5near?5unknown?5va@ 00000001400389e8     MSVCRTD:error.obj
 0003:00008a18       ??_C@_05MKKEDADM@?$CF?42X?5@ 0000000140038a18     MSVCRTD:error.obj
 0003:00008a20       ??_C@_0EJ@LJKNEOLN@Stack?5area?5around?5_alloca?5memor@ 0000000140038a20     MSVCRTD:error.obj
 0003:00008a78       ??_C@_01EEMJAFIK@?6@       0000000140038a78     MSVCRTD:error.obj
 0003:00008a7c       ??_C@_02LLMPMKNF@?$DO?5@   0000000140038a7c     MSVCRTD:error.obj
 0003:00008a80       ??_C@_08OMAHNMHJ@?6Data?3?5?$DM@ 0000000140038a80     MSVCRTD:error.obj
 0003:00008a90       ??_C@_0CK@DKGBICFE@?6Allocation?5number?5within?5this?5@ 0000000140038a90     MSVCRTD:error.obj
 0003:00008ac8       ??_C@_07DFDJCKFN@?6Size?3?5@ 0000000140038ac8     MSVCRTD:error.obj
 0003:00008ad8       ??_C@_0N@MHFFIMFG@?6Address?3?50x@ 0000000140038ad8     MSVCRTD:error.obj
 0003:00008af0       ??_C@_0EI@CLEPFNGI@Stack?5area?5around?5_alloca?5memor@ 0000000140038af0     MSVCRTD:error.obj
 0003:00008b48       ??_C@_0BK@ODNDAGKB@?$CFs?$CFs?$CFp?$CFs?$CFzd?$CFs?$CFd?$CFs?$CFs?$CFs?$CFs?$CFs@ 0000000140038b48     MSVCRTD:error.obj
 0003:00008b68       ??_C@_0DE@OHJBPMBP@A?5variable?5is?5being?5used?5withou@ 0000000140038b68     MSVCRTD:error.obj
 0003:00008c30       ??_C@_1EI@MLPKHBGE@?$AAa?$AAp?$AAi?$AA?9?$AAm?$AAs?$AA?9?$AAw?$AAi?$AAn?$AA?9?$AAc?$AAo?$AAr?$AAe@ 0000000140038c30     MSVCRTD:pdblkup.obj
 0003:00008c88       ??_C@_1BK@JHLNAEJL@?$AAa?$AAd?$AAv?$AAa?$AAp?$AAi?$AA3?$AA2?$AA?4?$AAd?$AAl?$AAl@ 0000000140038c88     MSVCRTD:pdblkup.obj
 0003:00008ca8       ??_C@_0O@COHOBMLB@RegOpenKeyExW@ 0000000140038ca8     MSVCRTD:pdblkup.obj
 0003:00008cb8       ??_C@_0BB@GLNAEDBD@RegQueryValueExW@ 0000000140038cb8     MSVCRTD:pdblkup.obj
 0003:00008cd0       ??_C@_0M@HLOHPNFA@RegCloseKey@ 0000000140038cd0     MSVCRTD:pdblkup.obj
 0003:00008ce0       ??_C@_1HE@EBEAGLFB@?$AAS?$AAO?$AAF?$AAT?$AAW?$AAA?$AAR?$AAE?$AA?2?$AAW?$AAo?$AAw?$AA6?$AA4?$AA3@ 0000000140038ce0     MSVCRTD:pdblkup.obj
 0003:00008d70       ??_C@_1BG@EABPBLLF@?$AAP?$AAr?$AAo?$AAd?$AAu?$AAc?$AAt?$AAD?$AAi?$AAr@ 0000000140038d70     MSVCRTD:pdblkup.obj
 0003:00008db8       ??_C@_1BC@JINFINNJ@?$AAM?$AAS?$AAP?$AAD?$AAB?$AA1?$AA4?$AA0@ 0000000140038db8     MSVCRTD:pdblkup.obj
 0003:00008dd0       ??_C@_0BB@KCIACLNC@PDBOpenValidate5@ 0000000140038dd0     MSVCRTD:pdblkup.obj
 0003:00008de4       ??_C@_01KDCPPGHE@r@        0000000140038de4     MSVCRTD:pdblkup.obj
 0003:00008e30       _load_config_used          0000000140038e30     MSVCRTD:loadcfg.obj
 0003:00009528       _tls_used                  0000000140039528     MSVCRTD:tlssup.obj
 0003:00009658       ??_R4exception@std@@6B@    0000000140039658     GameTest.obj
 0003:00009688       ??_R3exception@std@@8      0000000140039688     GameTest.obj
 0003:000096a0       ??_R2exception@std@@8      00000001400396a0     GameTest.obj
 0003:000096b0       ??_R1A@?0A@EA@exception@std@@8 00000001400396b0     GameTest.obj
 0003:000096e0       ??_R4bad_alloc@std@@6B@    00000001400396e0     GameTest.obj
 0003:00009710       ??_R3bad_alloc@std@@8      0000000140039710     GameTest.obj
 0003:00009728       ??_R2bad_alloc@std@@8      0000000140039728     GameTest.obj
 0003:00009740       ??_R1A@?0A@EA@bad_alloc@std@@8 0000000140039740     GameTest.obj
 0003:00009770       ??_R4bad_array_new_length@std@@6B@ 0000000140039770     GameTest.obj
 0003:000097a0       ??_R3bad_array_new_length@std@@8 00000001400397a0     GameTest.obj
 0003:000097b8       ??_R2bad_array_new_length@std@@8 00000001400397b8     GameTest.obj
 0003:000097e0       ??_R1A@?0A@EA@bad_array_new_length@std@@8 00000001400397e0     GameTest.obj
 0003:00009810       ??_R4type_info@@6B@        0000000140039810     MSVCRTD:std_type_info_static.obj
 0003:00009840       ??_R3type_info@@8          0000000140039840     MSVCRTD:std_type_info_static.obj
 0003:00009858       ??_R2type_info@@8          0000000140039858     MSVCRTD:std_type_info_static.obj
 0003:00009868       ??_R1A@?0A@EA@type_info@@8 0000000140039868     MSVCRTD:std_type_info_static.obj
 0003:00009b30       __rtc_iaa                  0000000140039b30     MSVCRTD:initsect.obj
 0003:00009e00       __rtc_izz                  0000000140039e00     MSVCRTD:initsect.obj
 0003:00009f10       __rtc_taa                  0000000140039f10     MSVCRTD:initsect.obj
 0003:0000a1e0       __rtc_tzz                  000000014003a1e0     MSVCRTD:initsect.obj
 0003:0000d6b0       _TI3?AVbad_array_new_length@std@@ 000000014003d6b0     GameTest.obj
 0003:0000d6d0       _CTA3?AVbad_array_new_length@std@@ 000000014003d6d0     GameTest.obj
 0003:0000d6f0       _CT??_R0?AVbad_array_new_length@std@@@8??0bad_array_new_length@std@@QEAA@AEBV01@@Z24 000000014003d6f0     GameTest.obj
 0003:0000d718       _CT??_R0?AVbad_alloc@std@@@8??0bad_alloc@std@@QEAA@AEBV01@@Z24 000000014003d718     GameTest.obj
 0003:0000d740       _CT??_R0?AVexception@std@@@8??0exception@std@@QEAA@AEBV01@@Z24 000000014003d740     GameTest.obj
 0003:0000d768       _TI2?AVbad_alloc@std@@     000000014003d768     MSVCRTD:throw_bad_alloc.obj
 0003:0000d788       _CTA2?AVbad_alloc@std@@    000000014003d788     MSVCRTD:throw_bad_alloc.obj
 0004:00000000       ?__LINE__Var@?0??_Adjust_manually_vector_aligned@std@@YAXAEAPEAXAEA_K@Z@4JA 000000014003e000     GameTest.obj
 0004:00000004       ?WINDOW_WIDTH@@3HA         000000014003e004     Framework:main.obj
 0004:00000008       ?WINDOW_HEIGHT@@3HA        000000014003e008     Framework:main.obj
 0004:0000000c       ?gRenderUpdateTimes@@3_NA  000000014003e00c     Framework:main.obj
 0004:00000010       ?__LINE__Var@?0??loadBMPRaw@@YAPEAEPEBDAEAI1_N@Z@4JA 000000014003e010     Framework:TextureLoader.obj
 0004:00000014       _fltused                   000000014003e014     MSVCRTD:fltused.obj
 0004:00000018       __scrt_native_dllmain_reason 000000014003e018     MSVCRTD:utility.obj
 0004:00000020       __security_cookie_complement 000000014003e020     MSVCRTD:gs_cookie.obj
 0004:00000028       __security_cookie          000000014003e028     MSVCRTD:gs_cookie.obj
 0004:00000034       _Init_global_epoch         000000014003e034     MSVCRTD:thread_safe_statics.obj
 0004:00000038       __isa_available            000000014003e038     MSVCRTD:cpu_disp.obj
 0004:0000003c       __isa_enabled              000000014003e03c     MSVCRTD:cpu_disp.obj
 0004:00000040       __memcpy_nt_iters          000000014003e040     MSVCRTD:cpu_disp.obj
 0004:00000048       __memset_nt_iters          000000014003e048     MSVCRTD:cpu_disp.obj
 0004:00000058       ?_RTC_ErrorLevels@@3PAHA   000000014003e058     MSVCRTD:error.obj
 0004:00000070       __scrt_default_matherr     000000014003e070     MSVCRTD:matherr.obj
 0004:00000080       __scrt_ucrt_dll_is_in_use  000000014003e080     MSVCRTD:ucrt_stubs.obj
 0004:00000190       ??_R0?AVbad_array_new_length@std@@@8 000000014003e190     GameTest.obj
 0004:000001c8       ??_R0?AVbad_alloc@std@@@8  000000014003e1c8     GameTest.obj
 0004:000001f8       ??_R0?AVexception@std@@@8  000000014003e1f8     GameTest.obj
 0004:00000228       ??_R0?AVtype_info@@@8      000000014003e228     MSVCRTD:std_type_info_static.obj
 0004:00000360       ?m_mainCharacter@@3PEAVMainCharacter@@EA 000000014003e360     GameTest.obj
 0004:00000368       ?m_door@@3PEAVDoor@@EA     000000014003e368     GameTest.obj
 0004:00000370       ?m_isFinish@@3_NA          000000014003e370     GameTest.obj
 0004:00000374       ?globalState@@3W4GameState@@A 000000014003e374     GameTest.obj
 0004:00000378       ?wallList@@3V?$vector@VLaserWall@@V?$allocator@VLaserWall@@@std@@@std@@A 000000014003e378     GameTest.obj
 0004:000003a4       __@@_PchSym_@00@UfhvihUhvHvmUwldmolzwhUufgfivdlnvmrmtznvLSBTUtznvgvhgUcGEUwvyftUhgwzucOlyq@4B2008FD98C1DD4 000000014003e3a4     stdafx.obj
 0004:000003a8       ?MAIN_WINDOW_HANDLE@@3PEAUHWND__@@EA 000000014003e3a8     Framework:main.obj
 0004:000003b0       ?gPCFreq@@3NA              000000014003e3b0     Framework:main.obj
 0004:000003b8       ?gCounterStart@@3_JA       000000014003e3b8     Framework:main.obj
 0004:000003c0       ?gLastTime@@3NA            000000014003e3c0     Framework:main.obj
 0004:000003c8       ?gUserUpdateProfiler@@3VCProfiler@@A 000000014003e3c8     Framework:main.obj
 0004:000003d8       ?gUserRenderProfiler@@3VCProfiler@@A 000000014003e3d8     Framework:main.obj
 0004:000003e8       ?gUpdateDeltaTime@@3VCProfiler@@A 000000014003e3e8     Framework:main.obj
 0004:00000418       ?_OptionsStorage@?1??__local_stdio_printf_options@@9@4_KA 000000014003e418     Framework:main.obj
 0004:00000428       ?m_textures@CSimpleSprite@@0V?$map@PEBDUsTextureDef@CSimpleSprite@@U?$less@PEBD@std@@V?$allocator@U?$pair@QEBDUsTextureDef@CSimpleSprite@@@std@@@4@@std@@A 000000014003e428     Framework:SimpleSprite.obj
 0004:00000508       __scrt_current_native_startup_state 000000014003e508     MSVCRTD:utility.obj
 0004:00000510       __scrt_native_startup_lock 000000014003e510     MSVCRTD:utility.obj
 0004:000005b8       _tls_index                 000000014003e5b8     MSVCRTD:tlssup.obj
 0004:000005d4       __favor                    000000014003e5d4     MSVCRTD:cpu_disp.obj
 0004:000005d8       __scrt_debugger_hook_flag  000000014003e5d8     MSVCRTD:utility_desktop.obj
 0004:00000c70       ?__type_info_root_node@@3U__type_info_node@@A 000000014003ec70     MSVCRTD:tncleanup.obj
 0004:00000c88       ?_OptionsStorage@?1??__local_stdio_scanf_options@@9@4_KA 000000014003ec88     MSVCRTD:default_local_stdio_options.obj
 0004:00000ca8       __dyn_tls_dtor_callback    000000014003eca8     <common>
 0004:00000cc0       __dyn_tls_init_callback    000000014003ecc0     <common>
 0004:00000cd4       __DebuggerCurrentSteppingThreadId 000000014003ecd4     <common>
 0006:00000000       __imp_DirectSoundCreate8   0000000140043000     dsound:DSOUND.dll
 0006:00000008       \177DSOUND_NULL_THUNK_DATA 0000000140043008     dsound:DSOUND.dll
 0006:00000060       __imp_gluBuild2DMipmaps    0000000140043060     glu32:GLU32.dll
 0006:00000068       \177GLU32_NULL_THUNK_DATA  0000000140043068     glu32:GLU32.dll
 0006:000000c0       __imp_VirtualQuery         00000001400430c0     kernel32:KERNEL32.dll
 0006:000000c8       __imp_GetProcessHeap       00000001400430c8     kernel32:KERNEL32.dll
 0006:000000d0       __imp_HeapFree             00000001400430d0     kernel32:KERNEL32.dll
 0006:000000d8       __imp_HeapAlloc            00000001400430d8     kernel32:KERNEL32.dll
 0006:000000e0       __imp_GetLastError         00000001400430e0     kernel32:KERNEL32.dll
 0006:000000e8       __imp_InitializeSListHead  00000001400430e8     kernel32:KERNEL32.dll
 0006:000000f0       __imp_GetSystemTimeAsFileTime 00000001400430f0     kernel32:KERNEL32.dll
 0006:000000f8       __imp_GetCurrentProcessId  00000001400430f8     kernel32:KERNEL32.dll
 0006:00000100       __imp_QueryPerformanceFrequency 0000000140043100     kernel32:KERNEL32.dll
 0006:00000108       __imp_GetCurrentProcess    0000000140043108     kernel32:KERNEL32.dll
 0006:00000110       __imp_WideCharToMultiByte  0000000140043110     kernel32:KERNEL32.dll
 0006:00000118       __imp_MultiByteToWideChar  0000000140043118     kernel32:KERNEL32.dll
 0006:00000120       __imp_RaiseException       0000000140043120     kernel32:KERNEL32.dll
 0006:00000128       __imp_IsProcessorFeaturePresent 0000000140043128     kernel32:KERNEL32.dll
 0006:00000130       __imp_GetStartupInfoW      0000000140043130     kernel32:KERNEL32.dll
 0006:00000138       __imp_SetUnhandledExceptionFilter 0000000140043138     kernel32:KERNEL32.dll
 0006:00000140       __imp_UnhandledExceptionFilter 0000000140043140     kernel32:KERNEL32.dll
 0006:00000148       __imp_IsDebuggerPresent    0000000140043148     kernel32:KERNEL32.dll
 0006:00000150       __imp_QueryPerformanceCounter 0000000140043150     kernel32:KERNEL32.dll
 0006:00000158       __imp_TerminateProcess     0000000140043158     kernel32:KERNEL32.dll
 0006:00000160       __imp_RtlVirtualUnwind     0000000140043160     kernel32:KERNEL32.dll
 0006:00000168       __imp_RtlLookupFunctionEntry 0000000140043168     kernel32:KERNEL32.dll
 0006:00000170       __imp_RtlCaptureContext    0000000140043170     kernel32:KERNEL32.dll
 0006:00000178       __imp_GetProcAddress       0000000140043178     kernel32:KERNEL32.dll
 0006:00000180       __imp_GetModuleHandleW     0000000140043180     kernel32:KERNEL32.dll
 0006:00000188       __imp_CreateEventW         0000000140043188     kernel32:KERNEL32.dll
 0006:00000190       __imp_WaitForSingleObjectEx 0000000140043190     kernel32:KERNEL32.dll
 0006:00000198       __imp_ResetEvent           0000000140043198     kernel32:KERNEL32.dll
 0006:000001a0       __imp_SetEvent             00000001400431a0     kernel32:KERNEL32.dll
 0006:000001a8       __imp_DeleteCriticalSection 00000001400431a8     kernel32:KERNEL32.dll
 0006:000001b0       __imp_InitializeCriticalSectionAndSpinCount 00000001400431b0     kernel32:KERNEL32.dll
 0006:000001b8       __imp_LeaveCriticalSection 00000001400431b8     kernel32:KERNEL32.dll
 0006:000001c0       __imp_EnterCriticalSection 00000001400431c0     kernel32:KERNEL32.dll
 0006:000001c8       __imp_CloseHandle          00000001400431c8     kernel32:KERNEL32.dll
 0006:000001d0       __imp_GetCurrentThreadId   00000001400431d0     kernel32:KERNEL32.dll
 0006:000001d8       __imp_FreeLibrary          00000001400431d8     kernel32:KERNEL32.dll
 0006:000001e0       \177KERNEL32_NULL_THUNK_DATA 00000001400431e0     kernel32:KERNEL32.dll
 0006:00000270       __imp_??1_Lockit@std@@QEAA@XZ 0000000140043270     msvcprtd:MSVCP140D.dll
 0006:00000278       __imp_??0_Lockit@std@@QEAA@H@Z 0000000140043278     msvcprtd:MSVCP140D.dll
 0006:00000280       __imp_?_Xlength_error@std@@YAXPEBD@Z 0000000140043280     msvcprtd:MSVCP140D.dll
 0006:00000288       \177MSVCP140D_NULL_THUNK_DATA 0000000140043288     msvcprtd:MSVCP140D.dll
 0006:000002e0       __imp_glTexParameterf      00000001400432e0     opengl32:OPENGL32.dll
 0006:000002e8       __imp_glTranslatef         00000001400432e8     opengl32:OPENGL32.dll
 0006:000002f0       __imp_glTexEnvf            00000001400432f0     opengl32:OPENGL32.dll
 0006:000002f8       __imp_glGenTextures        00000001400432f8     opengl32:OPENGL32.dll
 0006:00000300       __imp_glEnable             0000000140043300     opengl32:OPENGL32.dll
 0006:00000308       __imp_glTexCoord2f         0000000140043308     opengl32:OPENGL32.dll
 0006:00000310       __imp_glScalef             0000000140043310     opengl32:OPENGL32.dll
 0006:00000318       __imp_glRotatef            0000000140043318     opengl32:OPENGL32.dll
 0006:00000320       __imp_glPushMatrix         0000000140043320     opengl32:OPENGL32.dll
 0006:00000328       __imp_glDisable            0000000140043328     opengl32:OPENGL32.dll
 0006:00000330       __imp_glColor4f            0000000140043330     opengl32:OPENGL32.dll
 0006:00000338       __imp_wglGetCurrentDC      0000000140043338     opengl32:OPENGL32.dll
 0006:00000340       __imp_glClear              0000000140043340     opengl32:OPENGL32.dll
 0006:00000348       __imp_glClearColor         0000000140043348     opengl32:OPENGL32.dll
 0006:00000350       __imp_glFlush              0000000140043350     opengl32:OPENGL32.dll
 0006:00000358       __imp_glBegin              0000000140043358     opengl32:OPENGL32.dll
 0006:00000360       __imp_glColor3f            0000000140043360     opengl32:OPENGL32.dll
 0006:00000368       __imp_glEnd                0000000140043368     opengl32:OPENGL32.dll
 0006:00000370       __imp_glRasterPos2f        0000000140043370     opengl32:OPENGL32.dll
 0006:00000378       __imp_glVertex2f           0000000140043378     opengl32:OPENGL32.dll
 0006:00000380       __imp_glBindTexture        0000000140043380     opengl32:OPENGL32.dll
 0006:00000388       __imp_glBlendFunc          0000000140043388     opengl32:OPENGL32.dll
 0006:00000390       __imp_glPopMatrix          0000000140043390     opengl32:OPENGL32.dll
 0006:00000398       \177OPENGL32_NULL_THUNK_DATA 0000000140043398     opengl32:OPENGL32.dll
 0006:00000410       __imp_GetClientRect        0000000140043410     user32:USER32.dll
 0006:00000418       __imp_GetAsyncKeyState     0000000140043418     user32:USER32.dll
 0006:00000420       __imp_WindowFromDC         0000000140043420     user32:USER32.dll
 0006:00000428       __imp_GetCursorPos         0000000140043428     user32:USER32.dll
 0006:00000430       __imp_ScreenToClient       0000000140043430     user32:USER32.dll
 0006:00000438       \177USER32_NULL_THUNK_DATA 0000000140043438     user32:USER32.dll
 0006:00000498       __imp___std_exception_copy 0000000140043498     vcruntimed:VCRUNTIME140D.dll
 0006:000004a0       __imp___vcrt_LoadLibraryExW 00000001400434a0     vcruntimed:VCRUNTIME140D.dll
 0006:000004a8       __imp___current_exception  00000001400434a8     vcruntimed:VCRUNTIME140D.dll
 0006:000004b0       __imp___std_exception_destroy 00000001400434b0     vcruntimed:VCRUNTIME140D.dll
 0006:000004b8       __imp__CxxThrowException   00000001400434b8     vcruntimed:VCRUNTIME140D.dll
 0006:000004c0       __imp_memset               00000001400434c0     vcruntimed:VCRUNTIME140D.dll
 0006:000004c8       __imp_memcpy               00000001400434c8     vcruntimed:VCRUNTIME140D.dll
 0006:000004d0       __imp___C_specific_handler 00000001400434d0     vcruntimed:VCRUNTIME140D.dll
 0006:000004d8       __imp___vcrt_GetModuleFileNameW 00000001400434d8     vcruntimed:VCRUNTIME140D.dll
 0006:000004e0       __imp___current_exception_context 00000001400434e0     vcruntimed:VCRUNTIME140D.dll
 0006:000004e8       __imp___C_specific_handler_noexcept 00000001400434e8     vcruntimed:VCRUNTIME140D.dll
 0006:000004f0       __imp___std_type_info_destroy_list 00000001400434f0     vcruntimed:VCRUNTIME140D.dll
 0006:000004f8       __imp___vcrt_GetModuleHandleW 00000001400434f8     vcruntimed:VCRUNTIME140D.dll
 0006:00000500       \177VCRUNTIME140D_NULL_THUNK_DATA 0000000140043500     vcruntimed:VCRUNTIME140D.dll
 0006:00000568       __imp___CxxFrameHandler4   0000000140043568     vcruntimed:VCRUNTIME140_1D.dll
 0006:00000570       \177VCRUNTIME140_1D_NULL_THUNK_DATA 0000000140043570     vcruntimed:VCRUNTIME140_1D.dll
 0006:000005c8       __imp_XInputGetState       00000001400435c8     xinput:XINPUT1_4.dll
 0006:000005d0       \177XINPUT1_4_NULL_THUNK_DATA 00000001400435d0     xinput:XINPUT1_4.dll
 0006:00000628       __imp_glutInitWindowPosition 0000000140043628     freeglut:freeglut.dll
 0006:00000630       __imp_glutMainLoop         0000000140043630     freeglut:freeglut.dll
 0006:00000638       __imp_glutPostRedisplay    0000000140043638     freeglut:freeglut.dll
 0006:00000640       __imp_glutIdleFunc         0000000140043640     freeglut:freeglut.dll
 0006:00000648       __imp_glutDisplayFunc      0000000140043648     freeglut:freeglut.dll
 0006:00000650       __imp___glutInitWithExit   0000000140043650     freeglut:freeglut.dll
 0006:00000658       __imp___glutCreateWindowWithExit 0000000140043658     freeglut:freeglut.dll
 0006:00000660       __imp_glutSetOption        0000000140043660     freeglut:freeglut.dll
 0006:00000668       __imp_glutBitmapCharacter  0000000140043668     freeglut:freeglut.dll
 0006:00000670       __imp_glutInitWindowSize   0000000140043670     freeglut:freeglut.dll
 0006:00000678       \177freeglut_NULL_THUNK_DATA 0000000140043678     freeglut:freeglut.dll
 0006:000006e0       __imp__get_wide_winmain_command_line 00000001400436e0     ucrtd:ucrtbased.dll
 0006:000006e8       __imp__initterm            00000001400436e8     ucrtd:ucrtbased.dll
 0006:000006f0       __imp__initterm_e          00000001400436f0     ucrtd:ucrtbased.dll
 0006:000006f8       __imp__exit                00000001400436f8     ucrtd:ucrtbased.dll
 0006:00000700       __imp__set_fmode           0000000140043700     ucrtd:ucrtbased.dll
 0006:00000708       __imp__c_exit              0000000140043708     ucrtd:ucrtbased.dll
 0006:00000710       __imp__register_thread_local_exe_atexit_callback 0000000140043710     ucrtd:ucrtbased.dll
 0006:00000718       __imp__configthreadlocale  0000000140043718     ucrtd:ucrtbased.dll
 0006:00000720       __imp__set_new_mode        0000000140043720     ucrtd:ucrtbased.dll
 0006:00000728       __imp__initialize_narrow_environment 0000000140043728     ucrtd:ucrtbased.dll
 0006:00000730       __imp__free_dbg            0000000140043730     ucrtd:ucrtbased.dll
 0006:00000738       __imp_terminate            0000000140043738     ucrtd:ucrtbased.dll
 0006:00000740       __imp_strcpy_s             0000000140043740     ucrtd:ucrtbased.dll
 0006:00000748       __imp_strcat_s             0000000140043748     ucrtd:ucrtbased.dll
 0006:00000750       __imp___stdio_common_vsprintf_s 0000000140043750     ucrtd:ucrtbased.dll
 0006:00000758       __imp__wmakepath_s         0000000140043758     ucrtd:ucrtbased.dll
 0006:00000760       __imp__configure_wide_argv 0000000140043760     ucrtd:ucrtbased.dll
 0006:00000768       __imp_wcscpy_s             0000000140043768     ucrtd:ucrtbased.dll
 0006:00000770       __imp__invalid_parameter   0000000140043770     ucrtd:ucrtbased.dll
 0006:00000778       __imp_fmodf                0000000140043778     ucrtd:ucrtbased.dll
 0006:00000780       __imp__configure_narrow_argv 0000000140043780     ucrtd:ucrtbased.dll
 0006:00000788       __imp__seh_filter_dll      0000000140043788     ucrtd:ucrtbased.dll
 0006:00000790       __imp_malloc               0000000140043790     ucrtd:ucrtbased.dll
 0006:00000798       __imp__callnewh            0000000140043798     ucrtd:ucrtbased.dll
 0006:000007a0       __imp__CrtDbgReportW       00000001400437a0     ucrtd:ucrtbased.dll
 0006:000007a8       __imp__wassert             00000001400437a8     ucrtd:ucrtbased.dll
 0006:000007b0       __imp__errno               00000001400437b0     ucrtd:ucrtbased.dll
 0006:000007b8       __imp_fopen                00000001400437b8     ucrtd:ucrtbased.dll
 0006:000007c0       __imp__invalid_parameter_noinfo 00000001400437c0     ucrtd:ucrtbased.dll
 0006:000007c8       __imp_fseek                00000001400437c8     ucrtd:ucrtbased.dll
 0006:000007d0       __imp_fread                00000001400437d0     ucrtd:ucrtbased.dll
 0006:000007d8       __imp_fclose               00000001400437d8     ucrtd:ucrtbased.dll
 0006:000007e0       __imp_fopen_s              00000001400437e0     ucrtd:ucrtbased.dll
 0006:000007e8       __imp___acrt_iob_func      00000001400437e8     ucrtd:ucrtbased.dll
 0006:000007f0       __imp__initialize_wide_environment 00000001400437f0     ucrtd:ucrtbased.dll
 0006:000007f8       __imp___setusermatherr     00000001400437f8     ucrtd:ucrtbased.dll
 0006:00000800       __imp__set_app_type        0000000140043800     ucrtd:ucrtbased.dll
 0006:00000808       __imp__seh_filter_exe      0000000140043808     ucrtd:ucrtbased.dll
 0006:00000810       __imp__cexit               0000000140043810     ucrtd:ucrtbased.dll
 0006:00000818       __imp__CrtDbgReport        0000000140043818     ucrtd:ucrtbased.dll
 0006:00000820       __imp__crt_atexit          0000000140043820     ucrtd:ucrtbased.dll
 0006:00000828       __imp__execute_onexit_table 0000000140043828     ucrtd:ucrtbased.dll
 0006:00000830       __imp__register_onexit_function 0000000140043830     ucrtd:ucrtbased.dll
 0006:00000838       __imp__wsplitpath_s        0000000140043838     ucrtd:ucrtbased.dll
 0006:00000840       __imp__initialize_onexit_table 0000000140043840     ucrtd:ucrtbased.dll
 0006:00000848       __imp_strlen               0000000140043848     ucrtd:ucrtbased.dll
 0006:00000850       __imp_exit                 0000000140043850     ucrtd:ucrtbased.dll
 0006:00000858       __imp___stdio_common_vsprintf 0000000140043858     ucrtd:ucrtbased.dll
 0006:00000860       __imp___p__commode         0000000140043860     ucrtd:ucrtbased.dll
 0006:00000868       __imp___stdio_common_vfprintf 0000000140043868     ucrtd:ucrtbased.dll
 0006:00000870       __imp__crt_at_quick_exit   0000000140043870     ucrtd:ucrtbased.dll
 0006:00000878       __imp_free                 0000000140043878     ucrtd:ucrtbased.dll
 0006:00000880       \177ucrtbased_NULL_THUNK_DATA 0000000140043880     ucrtd:ucrtbased.dll
 0006:00000928       __IMPORT_DESCRIPTOR_DSOUND 0000000140043928     dsound:DSOUND.dll
 0006:0000093c       __IMPORT_DESCRIPTOR_KERNEL32 000000014004393c     kernel32:KERNEL32.dll
 0006:00000950       __IMPORT_DESCRIPTOR_USER32 0000000140043950     user32:USER32.dll
 0006:00000964       __IMPORT_DESCRIPTOR_freeglut 0000000140043964     freeglut:freeglut.dll
 0006:00000978       __IMPORT_DESCRIPTOR_GLU32  0000000140043978     glu32:GLU32.dll
 0006:0000098c       __IMPORT_DESCRIPTOR_OPENGL32 000000014004398c     opengl32:OPENGL32.dll
 0006:000009a0       __IMPORT_DESCRIPTOR_XINPUT1_4 00000001400439a0     xinput:XINPUT1_4.dll
 0006:000009b4       __IMPORT_DESCRIPTOR_MSVCP140D 00000001400439b4     msvcprtd:MSVCP140D.dll
 0006:000009c8       __IMPORT_DESCRIPTOR_VCRUNTIME140_1D 00000001400439c8     vcruntimed:VCRUNTIME140_1D.dll
 0006:000009dc       __IMPORT_DESCRIPTOR_VCRUNTIME140D 00000001400439dc     vcruntimed:VCRUNTIME140D.dll
 0006:000009f0       __IMPORT_DESCRIPTOR_ucrtbased 00000001400439f0     ucrtd:ucrtbased.dll
 0006:00000a04       __NULL_IMPORT_DESCRIPTOR   0000000140043a04     dsound:DSOUND.dll
 0008:00000000       _tls_start                 0000000140047000     MSVCRTD:tlssup.obj
 0008:00000104       _Init_thread_epoch         0000000140047104     MSVCRTD:thread_safe_statics.obj
 0008:00000208       _tls_end                   0000000140047208     MSVCRTD:tlssup.obj
 0009:00000000       __guard_check_icall_fptr   0000000140048000     MSVCRTD:guard_support.obj
 0009:00000010       __guard_dispatch_icall_fptr 0000000140048010     MSVCRTD:guard_support.obj

 entry point at        0002:00000b27

 Static symbols

 0000:fffb5000       .debug$S                   0000000140000000     dsound:DSOUND.dll
 0000:fffb5000       .debug$S                   0000000140000000     glu32:GLU32.dll
 0000:fffb5000       .debug$S                   0000000140000000     kernel32:KERNEL32.dll
 0000:fffb5000       .debug$S                   0000000140000000     kernel32:KERNEL32.dll
 0000:fffb5000       .debug$S                   0000000140000000     kernel32:KERNEL32.dll
 0000:fffb5000       .debug$S                   0000000140000000     kernel32:KERNEL32.dll
 0000:fffb5000       .debug$S                   0000000140000000     kernel32:KERNEL32.dll
 0000:fffb5000       .debug$S                   0000000140000000     kernel32:KERNEL32.dll
 0000:fffb5000       .debug$S                   0000000140000000     kernel32:KERNEL32.dll
 0000:fffb5000       .debug$S                   0000000140000000     kernel32:KERNEL32.dll
 0000:fffb5000       .debug$S                   0000000140000000     kernel32:KERNEL32.dll
 0000:fffb5000       .debug$S                   0000000140000000     kernel32:KERNEL32.dll
 0000:fffb5000       .debug$S                   0000000140000000     kernel32:KERNEL32.dll
 0000:fffb5000       .debug$S                   0000000140000000     kernel32:KERNEL32.dll
 0000:fffb5000       .debug$S                   0000000140000000     kernel32:KERNEL32.dll
 0000:fffb5000       .debug$S                   0000000140000000     kernel32:KERNEL32.dll
 0000:fffb5000       .debug$S                   0000000140000000     kernel32:KERNEL32.dll
 0000:fffb5000       .debug$S                   0000000140000000     kernel32:KERNEL32.dll
 0000:fffb5000       .debug$S                   0000000140000000     kernel32:KERNEL32.dll
 0000:fffb5000       .debug$S                   0000000140000000     kernel32:KERNEL32.dll
 0000:fffb5000       .debug$S                   0000000140000000     kernel32:KERNEL32.dll
 0000:fffb5000       .debug$S                   0000000140000000     kernel32:KERNEL32.dll
 0000:fffb5000       .debug$S                   0000000140000000     kernel32:KERNEL32.dll
 0000:fffb5000       .debug$S                   0000000140000000     kernel32:KERNEL32.dll
 0000:fffb5000       .debug$S                   0000000140000000     kernel32:KERNEL32.dll
 0000:fffb5000       .debug$S                   0000000140000000     kernel32:KERNEL32.dll
 0000:fffb5000       .debug$S                   0000000140000000     kernel32:KERNEL32.dll
 0000:fffb5000       .debug$S                   0000000140000000     kernel32:KERNEL32.dll
 0000:fffb5000       .debug$S                   0000000140000000     kernel32:KERNEL32.dll
 0000:fffb5000       .debug$S                   0000000140000000     kernel32:KERNEL32.dll
 0000:fffb5000       .debug$S                   0000000140000000     kernel32:KERNEL32.dll
 0000:fffb5000       .debug$S                   0000000140000000     kernel32:KERNEL32.dll
 0000:fffb5000       .debug$S                   0000000140000000     kernel32:KERNEL32.dll
 0000:fffb5000       .debug$S                   0000000140000000     kernel32:KERNEL32.dll
 0000:fffb5000       .debug$S                   0000000140000000     kernel32:KERNEL32.dll
 0000:fffb5000       .debug$S                   0000000140000000     kernel32:KERNEL32.dll
 0000:fffb5000       .debug$S                   0000000140000000     kernel32:KERNEL32.dll
 0000:fffb5000       .debug$S                   0000000140000000     kernel32:KERNEL32.dll
 0000:fffb5000       .debug$S                   0000000140000000     msvcprtd:MSVCP140D.dll
 0000:fffb5000       .debug$S                   0000000140000000     msvcprtd:MSVCP140D.dll
 0000:fffb5000       .debug$S                   0000000140000000     msvcprtd:MSVCP140D.dll
 0000:fffb5000       .debug$S                   0000000140000000     opengl32:OPENGL32.dll
 0000:fffb5000       .debug$S                   0000000140000000     opengl32:OPENGL32.dll
 0000:fffb5000       .debug$S                   0000000140000000     opengl32:OPENGL32.dll
 0000:fffb5000       .debug$S                   0000000140000000     opengl32:OPENGL32.dll
 0000:fffb5000       .debug$S                   0000000140000000     opengl32:OPENGL32.dll
 0000:fffb5000       .debug$S                   0000000140000000     opengl32:OPENGL32.dll
 0000:fffb5000       .debug$S                   0000000140000000     opengl32:OPENGL32.dll
 0000:fffb5000       .debug$S                   0000000140000000     opengl32:OPENGL32.dll
 0000:fffb5000       .debug$S                   0000000140000000     opengl32:OPENGL32.dll
 0000:fffb5000       .debug$S                   0000000140000000     opengl32:OPENGL32.dll
 0000:fffb5000       .debug$S                   0000000140000000     opengl32:OPENGL32.dll
 0000:fffb5000       .debug$S                   0000000140000000     opengl32:OPENGL32.dll
 0000:fffb5000       .debug$S                   0000000140000000     opengl32:OPENGL32.dll
 0000:fffb5000       .debug$S                   0000000140000000     opengl32:OPENGL32.dll
 0000:fffb5000       .debug$S                   0000000140000000     opengl32:OPENGL32.dll
 0000:fffb5000       .debug$S                   0000000140000000     opengl32:OPENGL32.dll
 0000:fffb5000       .debug$S                   0000000140000000     opengl32:OPENGL32.dll
 0000:fffb5000       .debug$S                   0000000140000000     opengl32:OPENGL32.dll
 0000:fffb5000       .debug$S                   0000000140000000     opengl32:OPENGL32.dll
 0000:fffb5000       .debug$S                   0000000140000000     opengl32:OPENGL32.dll
 0000:fffb5000       .debug$S                   0000000140000000     opengl32:OPENGL32.dll
 0000:fffb5000       .debug$S                   0000000140000000     opengl32:OPENGL32.dll
 0000:fffb5000       .debug$S                   0000000140000000     opengl32:OPENGL32.dll
 0000:fffb5000       .debug$S                   0000000140000000     user32:USER32.dll
 0000:fffb5000       .debug$S                   0000000140000000     user32:USER32.dll
 0000:fffb5000       .debug$S                   0000000140000000     user32:USER32.dll
 0000:fffb5000       .debug$S                   0000000140000000     user32:USER32.dll
 0000:fffb5000       .debug$S                   0000000140000000     user32:USER32.dll
 0000:fffb5000       .debug$S                   0000000140000000     vcruntimed:VCRUNTIME140D.dll
 0000:fffb5000       .debug$S                   0000000140000000     vcruntimed:VCRUNTIME140D.dll
 0000:fffb5000       .debug$S                   0000000140000000     vcruntimed:VCRUNTIME140D.dll
 0000:fffb5000       .debug$S                   0000000140000000     vcruntimed:VCRUNTIME140D.dll
 0000:fffb5000       .debug$S                   0000000140000000     vcruntimed:VCRUNTIME140D.dll
 0000:fffb5000       .debug$S                   0000000140000000     vcruntimed:VCRUNTIME140D.dll
 0000:fffb5000       .debug$S                   0000000140000000     vcruntimed:VCRUNTIME140D.dll
 0000:fffb5000       .debug$S                   0000000140000000     vcruntimed:VCRUNTIME140D.dll
 0000:fffb5000       .debug$S                   0000000140000000     vcruntimed:VCRUNTIME140D.dll
 0000:fffb5000       .debug$S                   0000000140000000     vcruntimed:VCRUNTIME140D.dll
 0000:fffb5000       .debug$S                   0000000140000000     vcruntimed:VCRUNTIME140D.dll
 0000:fffb5000       .debug$S                   0000000140000000     vcruntimed:VCRUNTIME140D.dll
 0000:fffb5000       .debug$S                   0000000140000000     vcruntimed:VCRUNTIME140D.dll
 0000:fffb5000       .debug$S                   0000000140000000     vcruntimed:VCRUNTIME140_1D.dll
 0000:fffb5000       .debug$S                   0000000140000000     xinput:XINPUT1_4.dll
 0000:fffba000       __guard_fids_?pre_c_initialization@@YAHXZ 0000000140000000     MSVCRTD:exe_wwinmain.obj
 0000:fffba000       __guard_fids__             0000000140000000     MSVCRTD:exe_wwinmain.obj
 0000:fffba000       __guard_fids__             0000000140000000     MSVCRTD:guard_support.obj
 0000:fffba000       __guard_fids__guard_icall_checks_enforced 0000000140000000     MSVCRTD:guard_support.obj
 0000:fffba000       __guard_fids__CRT_RTC_INIT 0000000140000000     MSVCRTD:init.obj
 0000:fffba000       __guard_fids__CRT_RTC_INITW 0000000140000000     MSVCRTD:init.obj
 0000:fffba000       __guard_fids__             0000000140000000     MSVCRTD:std_type_info_static.obj
 0000:fffba000       __guard_fids_?__scrt_initialize_thread_safe_statics@@YAHXZ 0000000140000000     MSVCRTD:thread_safe_statics.obj
 0000:fffba000       __guard_fids__             0000000140000000     MSVCRTD:thread_safe_statics.obj
 0005:fffc1000       $pdata$??0bad_alloc@std@@AEAA@QEBD@Z 0000000140000000     MSVCRTD:throw_bad_alloc.obj
 0005:fffc1000       $pdata$??0bad_alloc@std@@QEAA@AEBV01@@Z 0000000140000000     MSVCRTD:throw_bad_alloc.obj
 0005:fffc1000       $pdata$??0bad_array_new_length@std@@QEAA@AEBV01@@Z 0000000140000000     MSVCRTD:throw_bad_alloc.obj
 0005:fffc1000       $pdata$??0bad_array_new_length@std@@QEAA@XZ 0000000140000000     MSVCRTD:throw_bad_alloc.obj
 0005:fffc1000       $pdata$??0exception@std@@QEAA@AEBV01@@Z 0000000140000000     MSVCRTD:throw_bad_alloc.obj
 0005:fffc1000       $pdata$??0exception@std@@QEAA@QEBDH@Z 0000000140000000     MSVCRTD:throw_bad_alloc.obj
 0005:fffc1000       $pdata$??1bad_alloc@std@@UEAA@XZ 0000000140000000     MSVCRTD:throw_bad_alloc.obj
 0005:fffc1000       $pdata$??1bad_array_new_length@std@@UEAA@XZ 0000000140000000     MSVCRTD:throw_bad_alloc.obj
 0005:fffc1000       $pdata$??1exception@std@@UEAA@XZ 0000000140000000     MSVCRTD:throw_bad_alloc.obj
 0005:fffc1000       $pdata$??_Gbad_alloc@std@@UEAAPEAXI@Z 0000000140000000     MSVCRTD:throw_bad_alloc.obj
 0005:fffc1000       $pdata$??_Gbad_array_new_length@std@@UEAAPEAXI@Z 0000000140000000     MSVCRTD:throw_bad_alloc.obj
 0005:fffc1000       $pdata$??_Gexception@std@@UEAAPEAXI@Z 0000000140000000     MSVCRTD:throw_bad_alloc.obj
 0005:fffc1000       $pdata$?what@exception@std@@UEBAPEBDXZ 0000000140000000     MSVCRTD:throw_bad_alloc.obj
 0003:fffd0000       $unwind$??0bad_alloc@std@@AEAA@QEBD@Z 0000000140000000     MSVCRTD:throw_bad_alloc.obj
 0003:fffd0000       $unwind$??0bad_alloc@std@@QEAA@AEBV01@@Z 0000000140000000     MSVCRTD:throw_bad_alloc.obj
 0003:fffd0000       $unwind$??0bad_array_new_length@std@@QEAA@AEBV01@@Z 0000000140000000     MSVCRTD:throw_bad_alloc.obj
 0003:fffd0000       $unwind$??0bad_array_new_length@std@@QEAA@XZ 0000000140000000     MSVCRTD:throw_bad_alloc.obj
 0003:fffd0000       $unwind$??0exception@std@@QEAA@AEBV01@@Z 0000000140000000     MSVCRTD:throw_bad_alloc.obj
 0003:fffd0000       $unwind$??0exception@std@@QEAA@QEBDH@Z 0000000140000000     MSVCRTD:throw_bad_alloc.obj
 0003:fffd0000       $unwind$??1bad_alloc@std@@UEAA@XZ 0000000140000000     MSVCRTD:throw_bad_alloc.obj
 0003:fffd0000       $unwind$??1bad_array_new_length@std@@UEAA@XZ 0000000140000000     MSVCRTD:throw_bad_alloc.obj
 0003:fffd0000       $unwind$??1exception@std@@UEAA@XZ 0000000140000000     MSVCRTD:throw_bad_alloc.obj
 0003:fffd0000       $unwind$??_Gbad_alloc@std@@UEAAPEAXI@Z 0000000140000000     MSVCRTD:throw_bad_alloc.obj
 0003:fffd0000       $unwind$??_Gbad_array_new_length@std@@UEAAPEAXI@Z 0000000140000000     MSVCRTD:throw_bad_alloc.obj
 0003:fffd0000       $unwind$??_Gexception@std@@UEAAPEAXI@Z 0000000140000000     MSVCRTD:throw_bad_alloc.obj
 0003:fffd0000       $unwind$?what@exception@std@@UEBAPEBDXZ 0000000140000000     MSVCRTD:throw_bad_alloc.obj
 0000:fffba000       __guard_fids__             0000000140000000     MSVCRTD:throw_bad_alloc.obj
 0000:fffba000       __guard_fids__             0000000140000000     MSVCRTD:throw_bad_alloc.obj
 0000:fffba000       __guard_fids__             0000000140000000     MSVCRTD:throw_bad_alloc.obj
 0000:fffba000       __guard_fids___scrt_set_unhandled_exception_filter 0000000140000000     MSVCRTD:utility_desktop.obj
 0000:fffb5000       .debug$S                   0000000140000000     freeglut:freeglut.dll
 0000:fffb5000       .debug$S                   0000000140000000     freeglut:freeglut.dll
 0000:fffb5000       .debug$S                   0000000140000000     freeglut:freeglut.dll
 0000:fffb5000       .debug$S                   0000000140000000     freeglut:freeglut.dll
 0000:fffb5000       .debug$S                   0000000140000000     freeglut:freeglut.dll
 0000:fffb5000       .debug$S                   0000000140000000     freeglut:freeglut.dll
 0000:fffb5000       .debug$S                   0000000140000000     freeglut:freeglut.dll
 0000:fffb5000       .debug$S                   0000000140000000     freeglut:freeglut.dll
 0000:fffb5000       .debug$S                   0000000140000000     freeglut:freeglut.dll
 0000:fffb5000       .debug$S                   0000000140000000     freeglut:freeglut.dll
 0000:fffb5000       .debug$S                   0000000140000000     ucrtd:ucrtbased.dll
 0000:fffb5000       .debug$S                   0000000140000000     ucrtd:ucrtbased.dll
 0000:fffb5000       .debug$S                   0000000140000000     ucrtd:ucrtbased.dll
 0000:fffb5000       .debug$S                   0000000140000000     ucrtd:ucrtbased.dll
 0000:fffb5000       .debug$S                   0000000140000000     ucrtd:ucrtbased.dll
 0000:fffb5000       .debug$S                   0000000140000000     ucrtd:ucrtbased.dll
 0000:fffb5000       .debug$S                   0000000140000000     ucrtd:ucrtbased.dll
 0000:fffb5000       .debug$S                   0000000140000000     ucrtd:ucrtbased.dll
 0000:fffb5000       .debug$S                   0000000140000000     ucrtd:ucrtbased.dll
 0000:fffb5000       .debug$S                   0000000140000000     ucrtd:ucrtbased.dll
 0000:fffb5000       .debug$S                   0000000140000000     ucrtd:ucrtbased.dll
 0000:fffb5000       .debug$S                   0000000140000000     ucrtd:ucrtbased.dll
 0000:fffb5000       .debug$S                   0000000140000000     ucrtd:ucrtbased.dll
 0000:fffb5000       .debug$S                   0000000140000000     ucrtd:ucrtbased.dll
 0000:fffb5000       .debug$S                   0000000140000000     ucrtd:ucrtbased.dll
 0000:fffb5000       .debug$S                   0000000140000000     ucrtd:ucrtbased.dll
 0000:fffb5000       .debug$S                   0000000140000000     ucrtd:ucrtbased.dll
 0000:fffb5000       .debug$S                   0000000140000000     ucrtd:ucrtbased.dll
 0000:fffb5000       .debug$S                   0000000140000000     ucrtd:ucrtbased.dll
 0000:fffb5000       .debug$S                   0000000140000000     ucrtd:ucrtbased.dll
 0000:fffb5000       .debug$S                   0000000140000000     ucrtd:ucrtbased.dll
 0000:fffb5000       .debug$S                   0000000140000000     ucrtd:ucrtbased.dll
 0000:fffb5000       .debug$S                   0000000140000000     ucrtd:ucrtbased.dll
 0000:fffb5000       .debug$S                   0000000140000000     ucrtd:ucrtbased.dll
 0000:fffb5000       .debug$S                   0000000140000000     ucrtd:ucrtbased.dll
 0000:fffb5000       .debug$S                   0000000140000000     ucrtd:ucrtbased.dll
 0000:fffb5000       .debug$S                   0000000140000000     ucrtd:ucrtbased.dll
 0000:fffb5000       .debug$S                   0000000140000000     ucrtd:ucrtbased.dll
 0000:fffb5000       .debug$S                   0000000140000000     ucrtd:ucrtbased.dll
 0000:fffb5000       .debug$S                   0000000140000000     ucrtd:ucrtbased.dll
 0000:fffb5000       .debug$S                   0000000140000000     ucrtd:ucrtbased.dll
 0000:fffb5000       .debug$S                   0000000140000000     ucrtd:ucrtbased.dll
 0000:fffb5000       .debug$S                   0000000140000000     ucrtd:ucrtbased.dll
 0000:fffb5000       .debug$S                   0000000140000000     ucrtd:ucrtbased.dll
 0000:fffb5000       .debug$S                   0000000140000000     ucrtd:ucrtbased.dll
 0000:fffb5000       .debug$S                   0000000140000000     ucrtd:ucrtbased.dll
 0000:fffb5000       .debug$S                   0000000140000000     ucrtd:ucrtbased.dll
 0000:fffb5000       .debug$S                   0000000140000000     ucrtd:ucrtbased.dll
 0000:fffb5000       .debug$S                   0000000140000000     ucrtd:ucrtbased.dll
 0000:fffb5000       .debug$S                   0000000140000000     ucrtd:ucrtbased.dll
 0000:fffb5000       .debug$S                   0000000140000000     ucrtd:ucrtbased.dll
 0000:fffb5000       .debug$S                   0000000140000000     ucrtd:ucrtbased.dll
 0000:fffb5000       .debug$S                   0000000140000000     ucrtd:ucrtbased.dll
 0000:fffb5000       .debug$S                   0000000140000000     ucrtd:ucrtbased.dll
 0000:fffb5000       .debug$S                   0000000140000000     ucrtd:ucrtbased.dll
 0000:fffb5000       .debug$S                   0000000140000000     ucrtd:ucrtbased.dll
 0000:fffb5000       .debug$S                   0000000140000000     ucrtd:ucrtbased.dll
 0000:fffb5000       .debug$S                   0000000140000000     ucrtd:ucrtbased.dll
 0000:fffb5000       .debug$S                   0000000140000000     ucrtd:ucrtbased.dll
 0000:fffb5000       .debug$S                   0000000140000000     ucrtd:ucrtbased.dll
 0000:fffb5000       .debug$S                   0000000140000000     ucrtd:ucrtbased.dll
 0000:fffb5000       .debug$S                   0000000140000000     ucrtd:ucrtbased.dll
 0005:fffc1000       $pdata$?CheckButton@CController@@QEBA_NH_N@Z 0000000140000000     MainCharacter.obj
 0003:fffd0000       $unwind$?CheckButton@CController@@QEBA_NH_N@Z 0000000140000000     MainCharacter.obj
 0003:fffd0000       $cppxdata$??$?0AEBQEBD$0A@@?$tuple@AEBQEBD@std@@QEAA@AEBQEBD@Z 0000000140000000     Framework:SimpleSound.obj
 0003:fffd0000       $cppxdata$??$?0U_Exact_args_t@std@@$0A@@?$tuple@$$V@std@@QEAA@U_Exact_args_t@1@@Z 0000000140000000     Framework:SimpleSound.obj
 0003:fffd0000       $cppxdata$??$_Construct_in_place@U_Container_proxy@std@@PEAU_Container_base12@2@@std@@YAXAEAU_Container_proxy@0@$$QEAPEAU_Container_base12@0@@Z 0000000140000000     Framework:SimpleSound.obj
 0003:fffd0000       $cppxdata$??$_Deallocate@$0BA@$0A@@std@@YAXPEAX_K@Z 0000000140000000     Framework:SimpleSound.obj
 0003:fffd0000       $cppxdata$??$_Deallocate_plain@V?$allocator@U_Container_proxy@std@@@std@@@std@@YAXAEAV?$allocator@U_Container_proxy@std@@@0@QEAU_Container_proxy@0@@Z 0000000140000000     Framework:SimpleSound.obj
 0003:fffd0000       $cppxdata$??$_Delete_plain_internal@V?$allocator@U_Container_proxy@std@@@std@@@std@@YAXAEAV?$allocator@U_Container_proxy@std@@@0@QEAU_Container_proxy@0@@Z 0000000140000000     Framework:SimpleSound.obj
 0003:fffd0000       $cppxdata$??$_Min_value@_K@std@@YAAEB_KAEB_K0@Z 0000000140000000     Framework:SimpleSound.obj
 0003:fffd0000       $cppxdata$??$addressof@U_Container_base12@std@@@std@@YAPEAU_Container_base12@0@AEAU10@@Z 0000000140000000     Framework:SimpleSound.obj
 0003:fffd0000       $cppxdata$??$addressof@U_Container_proxy@std@@@std@@YAPEAU_Container_proxy@0@AEAU10@@Z 0000000140000000     Framework:SimpleSound.obj
 0003:fffd0000       $cppxdata$??$forward@AEBQEBD@std@@YAAEBQEBDAEBQEBD@Z 0000000140000000     Framework:SimpleSound.obj
 0003:fffd0000       $cppxdata$??$forward@AEBU?$less@PEBD@std@@@std@@YAAEBU?$less@PEBD@0@AEBU10@@Z 0000000140000000     Framework:SimpleSound.obj
 0003:fffd0000       $cppxdata$??$forward@AEBUpiecewise_construct_t@std@@@std@@YAAEBUpiecewise_construct_t@0@AEBU10@@Z 0000000140000000     Framework:SimpleSound.obj
 0003:fffd0000       $cppxdata$??$forward@PEAU_Container_base12@std@@@std@@YA$$QEAPEAU_Container_base12@0@AEAPEAU10@@Z 0000000140000000     Framework:SimpleSound.obj
 0003:fffd0000       $cppxdata$??$forward@U_Zero_then_variadic_args_t@std@@@std@@YA$$QEAU_Zero_then_variadic_args_t@0@AEAU10@@Z 0000000140000000     Framework:SimpleSound.obj
 0003:fffd0000       $cppxdata$??$forward@V?$tuple@$$V@std@@@std@@YA$$QEAV?$tuple@$$V@0@AEAV10@@Z 0000000140000000     Framework:SimpleSound.obj
 0003:fffd0000       $cppxdata$??$forward@V?$tuple@AEBQEBD@std@@@std@@YA$$QEAV?$tuple@AEBQEBD@0@AEAV10@@Z 0000000140000000     Framework:SimpleSound.obj
 0003:fffd0000       $cppxdata$??$forward@_N@std@@YA$$QEA_NAEA_N@Z 0000000140000000     Framework:SimpleSound.obj
 0003:fffd0000       $cppxdata$??$forward_as_tuple@$$V@std@@YA?AV?$tuple@$$V@0@XZ 0000000140000000     Framework:SimpleSound.obj
 0003:fffd0000       $cppxdata$??$forward_as_tuple@AEBQEBD@std@@YA?AV?$tuple@AEBQEBD@0@AEBQEBD@Z 0000000140000000     Framework:SimpleSound.obj
 0003:fffd0000       $cppxdata$??$get@$0A@AEBQEBD@std@@YAAEBQEBD$$QEAV?$tuple@AEBQEBD@0@@Z 0000000140000000     Framework:SimpleSound.obj
 0003:fffd0000       $cppxdata$??$move@AEAV?$tuple@AEBQEBD@std@@@std@@YA$$QEAV?$tuple@AEBQEBD@0@AEAV10@@Z 0000000140000000     Framework:SimpleSound.obj
 0003:fffd0000       $cppxdata$??0?$tuple@$$V@std@@QEAA@AEBV01@@Z 0000000140000000     Framework:SimpleSound.obj
 0003:fffd0000       $cppxdata$??0?$tuple@$$V@std@@QEAA@XZ 0000000140000000     Framework:SimpleSound.obj
 0003:fffd0000       $cppxdata$??0?$tuple@AEBQEBD@std@@QEAA@$$QEAV01@@Z 0000000140000000     Framework:SimpleSound.obj
 0003:fffd0000       $cppxdata$??0_Container_proxy@std@@QEAA@PEAU_Container_base12@1@@Z 0000000140000000     Framework:SimpleSound.obj
 0003:fffd0000       $cppxdata$??0bad_alloc@std@@AEAA@QEBD@Z 0000000140000000     Framework:SimpleSound.obj
 0003:fffd0000       $cppxdata$??0bad_array_new_length@std@@QEAA@XZ 0000000140000000     Framework:SimpleSound.obj
 0003:fffd0000       $cppxdata$??0exception@std@@QEAA@AEBV01@@Z 0000000140000000     Framework:SimpleSound.obj
 0003:fffd0000       $cppxdata$??0exception@std@@QEAA@QEBDH@Z 0000000140000000     Framework:SimpleSound.obj
 0003:fffd0000       $cppxdata$??1?$_Container_proxy_ptr12@V?$allocator@U_Container_proxy@std@@@std@@@std@@QEAA@XZ 0000000140000000     Framework:SimpleSound.obj
 0003:fffd0000       $cppxdata$??1exception@std@@UEAA@XZ 0000000140000000     Framework:SimpleSound.obj
 0003:fffd0000       $cppxdata$??2@YAPEAX_KPEAX@Z 0000000140000000     Framework:SimpleSound.obj
 0003:fffd0000       $cppxdata$?_Orphan_all@_Container_base12@std@@QEAAXXZ 0000000140000000     Framework:SimpleSound.obj
 0003:fffd0000       $cppxdata$?_Release@_Basic_container_proxy_ptr12@std@@QEAAXXZ 0000000140000000     Framework:SimpleSound.obj
 0003:fffd0000       $cppxdata$?max@?$numeric_limits@_J@std@@SA_JXZ 0000000140000000     Framework:SimpleSound.obj
 0003:fffd0000       $ip2state$??$?0AEBQEBD$0A@@?$tuple@AEBQEBD@std@@QEAA@AEBQEBD@Z 0000000140000000     Framework:SimpleSound.obj
 0003:fffd0000       $ip2state$??$?0U_Exact_args_t@std@@$0A@@?$tuple@$$V@std@@QEAA@U_Exact_args_t@1@@Z 0000000140000000     Framework:SimpleSound.obj
 0003:fffd0000       $ip2state$??$_Construct_in_place@U_Container_proxy@std@@PEAU_Container_base12@2@@std@@YAXAEAU_Container_proxy@0@$$QEAPEAU_Container_base12@0@@Z 0000000140000000     Framework:SimpleSound.obj
 0003:fffd0000       $ip2state$??$_Deallocate@$0BA@$0A@@std@@YAXPEAX_K@Z 0000000140000000     Framework:SimpleSound.obj
 0003:fffd0000       $ip2state$??$_Deallocate_plain@V?$allocator@U_Container_proxy@std@@@std@@@std@@YAXAEAV?$allocator@U_Container_proxy@std@@@0@QEAU_Container_proxy@0@@Z 0000000140000000     Framework:SimpleSound.obj
 0003:fffd0000       $ip2state$??$_Delete_plain_internal@V?$allocator@U_Container_proxy@std@@@std@@@std@@YAXAEAV?$allocator@U_Container_proxy@std@@@0@QEAU_Container_proxy@0@@Z 0000000140000000     Framework:SimpleSound.obj
 0003:fffd0000       $ip2state$??$_Min_value@_K@std@@YAAEB_KAEB_K0@Z 0000000140000000     Framework:SimpleSound.obj
 0003:fffd0000       $ip2state$??$addressof@U_Container_base12@std@@@std@@YAPEAU_Container_base12@0@AEAU10@@Z 0000000140000000     Framework:SimpleSound.obj
 0003:fffd0000       $ip2state$??$addressof@U_Container_proxy@std@@@std@@YAPEAU_Container_proxy@0@AEAU10@@Z 0000000140000000     Framework:SimpleSound.obj
 0003:fffd0000       $ip2state$??$forward@AEBQEBD@std@@YAAEBQEBDAEBQEBD@Z 0000000140000000     Framework:SimpleSound.obj
 0003:fffd0000       $ip2state$??$forward@AEBU?$less@PEBD@std@@@std@@YAAEBU?$less@PEBD@0@AEBU10@@Z 0000000140000000     Framework:SimpleSound.obj
 0003:fffd0000       $ip2state$??$forward@AEBUpiecewise_construct_t@std@@@std@@YAAEBUpiecewise_construct_t@0@AEBU10@@Z 0000000140000000     Framework:SimpleSound.obj
 0003:fffd0000       $ip2state$??$forward@PEAU_Container_base12@std@@@std@@YA$$QEAPEAU_Container_base12@0@AEAPEAU10@@Z 0000000140000000     Framework:SimpleSound.obj
 0003:fffd0000       $ip2state$??$forward@U_Zero_then_variadic_args_t@std@@@std@@YA$$QEAU_Zero_then_variadic_args_t@0@AEAU10@@Z 0000000140000000     Framework:SimpleSound.obj
 0003:fffd0000       $ip2state$??$forward@V?$tuple@$$V@std@@@std@@YA$$QEAV?$tuple@$$V@0@AEAV10@@Z 0000000140000000     Framework:SimpleSound.obj
 0003:fffd0000       $ip2state$??$forward@V?$tuple@AEBQEBD@std@@@std@@YA$$QEAV?$tuple@AEBQEBD@0@AEAV10@@Z 0000000140000000     Framework:SimpleSound.obj
 0003:fffd0000       $ip2state$??$forward@_N@std@@YA$$QEA_NAEA_N@Z 0000000140000000     Framework:SimpleSound.obj
 0003:fffd0000       $ip2state$??$forward_as_tuple@$$V@std@@YA?AV?$tuple@$$V@0@XZ 0000000140000000     Framework:SimpleSound.obj
 0003:fffd0000       $ip2state$??$forward_as_tuple@AEBQEBD@std@@YA?AV?$tuple@AEBQEBD@0@AEBQEBD@Z 0000000140000000     Framework:SimpleSound.obj
 0003:fffd0000       $ip2state$??$get@$0A@AEBQEBD@std@@YAAEBQEBD$$QEAV?$tuple@AEBQEBD@0@@Z 0000000140000000     Framework:SimpleSound.obj
 0003:fffd0000       $ip2state$??$move@AEAV?$tuple@AEBQEBD@std@@@std@@YA$$QEAV?$tuple@AEBQEBD@0@AEAV10@@Z 0000000140000000     Framework:SimpleSound.obj
 0003:fffd0000       $ip2state$??0?$tuple@$$V@std@@QEAA@AEBV01@@Z 0000000140000000     Framework:SimpleSound.obj
 0003:fffd0000       $ip2state$??0?$tuple@$$V@std@@QEAA@XZ 0000000140000000     Framework:SimpleSound.obj
 0003:fffd0000       $ip2state$??0?$tuple@AEBQEBD@std@@QEAA@$$QEAV01@@Z 0000000140000000     Framework:SimpleSound.obj
 0003:fffd0000       $ip2state$??0_Container_proxy@std@@QEAA@PEAU_Container_base12@1@@Z 0000000140000000     Framework:SimpleSound.obj
 0003:fffd0000       $ip2state$??0bad_alloc@std@@AEAA@QEBD@Z 0000000140000000     Framework:SimpleSound.obj
 0003:fffd0000       $ip2state$??0bad_array_new_length@std@@QEAA@XZ 0000000140000000     Framework:SimpleSound.obj
 0003:fffd0000       $ip2state$??0exception@std@@QEAA@AEBV01@@Z 0000000140000000     Framework:SimpleSound.obj
 0003:fffd0000       $ip2state$??0exception@std@@QEAA@QEBDH@Z 0000000140000000     Framework:SimpleSound.obj
 0003:fffd0000       $ip2state$??1?$_Container_proxy_ptr12@V?$allocator@U_Container_proxy@std@@@std@@@std@@QEAA@XZ 0000000140000000     Framework:SimpleSound.obj
 0003:fffd0000       $ip2state$??1exception@std@@UEAA@XZ 0000000140000000     Framework:SimpleSound.obj
 0003:fffd0000       $ip2state$??2@YAPEAX_KPEAX@Z 0000000140000000     Framework:SimpleSound.obj
 0003:fffd0000       $ip2state$?_Orphan_all@_Container_base12@std@@QEAAXXZ 0000000140000000     Framework:SimpleSound.obj
 0003:fffd0000       $ip2state$?_Release@_Basic_container_proxy_ptr12@std@@QEAAXXZ 0000000140000000     Framework:SimpleSound.obj
 0003:fffd0000       $ip2state$?max@?$numeric_limits@_J@std@@SA_JXZ 0000000140000000     Framework:SimpleSound.obj
 0005:fffc1000       $pdata$??$?0AEBQEBD$0A@@?$tuple@AEBQEBD@std@@QEAA@AEBQEBD@Z 0000000140000000     Framework:SimpleSound.obj
 0005:fffc1000       $pdata$??$?0AEBQEBD@?$_Tuple_val@AEBQEBD@std@@QEAA@AEBQEBD@Z 0000000140000000     Framework:SimpleSound.obj
 0005:fffc1000       $pdata$??$?0U_Exact_args_t@std@@$0A@@?$tuple@$$V@std@@QEAA@U_Exact_args_t@1@@Z 0000000140000000     Framework:SimpleSound.obj
 0005:fffc1000       $pdata$??$?0U_Exact_args_t@std@@AEBQEBD$$V$0A@@?$tuple@AEBQEBD@std@@QEAA@U_Exact_args_t@1@AEBQEBD@Z 0000000140000000     Framework:SimpleSound.obj
 0005:fffc1000       $pdata$??$_Allocate@$0BA@U_Default_allocate_traits@std@@$0A@@std@@YAPEAX_K@Z 0000000140000000     Framework:SimpleSound.obj
 0005:fffc1000       $pdata$??$_Allocate_manually_vector_aligned@U_Default_allocate_traits@std@@@std@@YAPEAX_K@Z 0000000140000000     Framework:SimpleSound.obj
 0005:fffc1000       $pdata$??$_Construct_in_place@U_Container_proxy@std@@PEAU_Container_base12@2@@std@@YAXAEAU_Container_proxy@0@$$QEAPEAU_Container_base12@0@@Z 0000000140000000     Framework:SimpleSound.obj
 0005:fffc1000       $pdata$??$_Deallocate@$0BA@$0A@@std@@YAXPEAX_K@Z 0000000140000000     Framework:SimpleSound.obj
 0005:fffc1000       $pdata$??$_Deallocate_plain@V?$allocator@U_Container_proxy@std@@@std@@@std@@YAXAEAV?$allocator@U_Container_proxy@std@@@0@QEAU_Container_proxy@0@@Z 0000000140000000     Framework:SimpleSound.obj
 0005:fffc1000       $pdata$??$_Debug_lt_pred@AEBU?$less@PEBD@std@@AEBQEBDAEBQEBD$0A@@std@@YA_NAEBU?$less@PEBD@0@AEBQEBD1@Z 0000000140000000     Framework:SimpleSound.obj
 0005:fffc1000       $pdata$??$_Delete_plain_internal@V?$allocator@U_Container_proxy@std@@@std@@@std@@YAXAEAV?$allocator@U_Container_proxy@std@@@0@QEAU_Container_proxy@0@@Z 0000000140000000     Framework:SimpleSound.obj
 0005:fffc1000       $pdata$??$_Get_size_of_n@$0BA@@std@@YA_K_K@Z 0000000140000000     Framework:SimpleSound.obj
 0005:fffc1000       $pdata$??$_Min_value@_K@std@@YAAEB_KAEB_K0@Z 0000000140000000     Framework:SimpleSound.obj
 0005:fffc1000       $pdata$??$_Unfancy@U_Container_proxy@std@@@std@@YAPEAU_Container_proxy@0@PEAU10@@Z 0000000140000000     Framework:SimpleSound.obj
 0005:fffc1000       $pdata$??$addressof@U_Container_base12@std@@@std@@YAPEAU_Container_base12@0@AEAU10@@Z 0000000140000000     Framework:SimpleSound.obj
 0005:fffc1000       $pdata$??$addressof@U_Container_proxy@std@@@std@@YAPEAU_Container_proxy@0@AEAU10@@Z 0000000140000000     Framework:SimpleSound.obj
 0005:fffc1000       $pdata$??$forward@AEBQEBD@std@@YAAEBQEBDAEBQEBD@Z 0000000140000000     Framework:SimpleSound.obj
 0005:fffc1000       $pdata$??$forward@AEBU?$less@PEBD@std@@@std@@YAAEBU?$less@PEBD@0@AEBU10@@Z 0000000140000000     Framework:SimpleSound.obj
 0005:fffc1000       $pdata$??$forward@AEBUpiecewise_construct_t@std@@@std@@YAAEBUpiecewise_construct_t@0@AEBU10@@Z 0000000140000000     Framework:SimpleSound.obj
 0005:fffc1000       $pdata$??$forward@PEAU_Container_base12@std@@@std@@YA$$QEAPEAU_Container_base12@0@AEAPEAU10@@Z 0000000140000000     Framework:SimpleSound.obj
 0005:fffc1000       $pdata$??$forward@U_Zero_then_variadic_args_t@std@@@std@@YA$$QEAU_Zero_then_variadic_args_t@0@AEAU10@@Z 0000000140000000     Framework:SimpleSound.obj
 0005:fffc1000       $pdata$??$forward@V?$tuple@$$V@std@@@std@@YA$$QEAV?$tuple@$$V@0@AEAV10@@Z 0000000140000000     Framework:SimpleSound.obj
 0005:fffc1000       $pdata$??$forward@V?$tuple@AEBQEBD@std@@@std@@YA$$QEAV?$tuple@AEBQEBD@0@AEAV10@@Z 0000000140000000     Framework:SimpleSound.obj
 0005:fffc1000       $pdata$??$forward@_N@std@@YA$$QEA_NAEA_N@Z 0000000140000000     Framework:SimpleSound.obj
 0005:fffc1000       $pdata$??$forward_as_tuple@$$V@std@@YA?AV?$tuple@$$V@0@XZ 0000000140000000     Framework:SimpleSound.obj
 0005:fffc1000       $pdata$??$forward_as_tuple@AEBQEBD@std@@YA?AV?$tuple@AEBQEBD@0@AEBQEBD@Z 0000000140000000     Framework:SimpleSound.obj
 0005:fffc1000       $pdata$??$get@$0A@AEBQEBD@std@@YAAEBQEBD$$QEAV?$tuple@AEBQEBD@0@@Z 0000000140000000     Framework:SimpleSound.obj
 0005:fffc1000       $pdata$??$move@AEAV?$tuple@AEBQEBD@std@@@std@@YA$$QEAV?$tuple@AEBQEBD@0@AEAV10@@Z 0000000140000000     Framework:SimpleSound.obj
 0005:fffc1000       $pdata$??0?$_Container_proxy_ptr12@V?$allocator@U_Container_proxy@std@@@std@@@std@@QEAA@AEAV?$allocator@U_Container_proxy@std@@@1@AEAU_Container_base12@1@@Z 0000000140000000     Framework:SimpleSound.obj
 0005:fffc1000       $pdata$??0?$tuple@$$V@std@@QEAA@AEBV01@@Z 0000000140000000     Framework:SimpleSound.obj
 0005:fffc1000       $pdata$??0?$tuple@$$V@std@@QEAA@XZ 0000000140000000     Framework:SimpleSound.obj
 0005:fffc1000       $pdata$??0?$tuple@AEBQEBD@std@@QEAA@$$QEAV01@@Z 0000000140000000     Framework:SimpleSound.obj
 0005:fffc1000       $pdata$??0_Container_base12@std@@QEAA@XZ 0000000140000000     Framework:SimpleSound.obj
 0005:fffc1000       $pdata$??0_Container_proxy@std@@QEAA@PEAU_Container_base12@1@@Z 0000000140000000     Framework:SimpleSound.obj
 0005:fffc1000       $pdata$??0bad_alloc@std@@AEAA@QEBD@Z 0000000140000000     Framework:SimpleSound.obj
 0005:fffc1000       $pdata$??0bad_alloc@std@@QEAA@AEBV01@@Z 0000000140000000     Framework:SimpleSound.obj
 0005:fffc1000       $pdata$??0bad_array_new_length@std@@QEAA@AEBV01@@Z 0000000140000000     Framework:SimpleSound.obj
 0005:fffc1000       $pdata$??0bad_array_new_length@std@@QEAA@XZ 0000000140000000     Framework:SimpleSound.obj
 0005:fffc1000       $pdata$??0exception@std@@QEAA@AEBV01@@Z 0000000140000000     Framework:SimpleSound.obj
 0005:fffc1000       $pdata$??0exception@std@@QEAA@QEBDH@Z 0000000140000000     Framework:SimpleSound.obj
 0005:fffc1000       $pdata$??1?$_Container_proxy_ptr12@V?$allocator@U_Container_proxy@std@@@std@@@std@@QEAA@XZ 0000000140000000     Framework:SimpleSound.obj
 0005:fffc1000       $pdata$??1bad_alloc@std@@UEAA@XZ 0000000140000000     Framework:SimpleSound.obj
 0005:fffc1000       $pdata$??1bad_array_new_length@std@@UEAA@XZ 0000000140000000     Framework:SimpleSound.obj
 0005:fffc1000       $pdata$??1exception@std@@UEAA@XZ 0000000140000000     Framework:SimpleSound.obj
 0005:fffc1000       $pdata$??2@YAPEAX_KPEAX@Z  0000000140000000     Framework:SimpleSound.obj
 0005:fffc1000       $pdata$??R?$less@PEBD@std@@QEBA_NAEBQEBD0@Z 0000000140000000     Framework:SimpleSound.obj
 0005:fffc1000       $pdata$??_Gbad_alloc@std@@UEAAPEAXI@Z 0000000140000000     Framework:SimpleSound.obj
 0005:fffc1000       $pdata$??_Gbad_array_new_length@std@@UEAAPEAXI@Z 0000000140000000     Framework:SimpleSound.obj
 0005:fffc1000       $pdata$??_Gexception@std@@UEAAPEAXI@Z 0000000140000000     Framework:SimpleSound.obj
 0005:fffc1000       $pdata$?_Adjust_manually_vector_aligned@std@@YAXAEAPEAXAEA_K@Z 0000000140000000     Framework:SimpleSound.obj
 0005:fffc1000       $pdata$?_Allocate@_Default_allocate_traits@std@@SAPEAX_K@Z 0000000140000000     Framework:SimpleSound.obj
 0005:fffc1000       $pdata$?_Orphan_all@_Container_base12@std@@QEAAXXZ 0000000140000000     Framework:SimpleSound.obj
 0005:fffc1000       $pdata$?_Release@_Basic_container_proxy_ptr12@std@@QEAAXXZ 0000000140000000     Framework:SimpleSound.obj
 0005:fffc1000       $pdata$?_Throw_bad_array_new_length@std@@YAXXZ 0000000140000000     Framework:SimpleSound.obj
 0005:fffc1000       $pdata$?_Throw_tree_length_error@std@@YAXXZ 0000000140000000     Framework:SimpleSound.obj
 0005:fffc1000       $pdata$?allocate@?$allocator@U_Container_proxy@std@@@std@@QEAAPEAU_Container_proxy@2@_K@Z 0000000140000000     Framework:SimpleSound.obj
 0005:fffc1000       $pdata$?deallocate@?$_Default_allocator_traits@V?$allocator@U_Container_proxy@std@@@std@@@std@@SAXAEAV?$allocator@U_Container_proxy@std@@@2@QEAU_Container_proxy@2@_K@Z 0000000140000000     Framework:SimpleSound.obj
 0005:fffc1000       $pdata$?max@?$numeric_limits@_J@std@@SA_JXZ 0000000140000000     Framework:SimpleSound.obj
 0005:fffc1000       $pdata$?what@exception@std@@UEBAPEBDXZ 0000000140000000     Framework:SimpleSound.obj
 0003:fffd0000       $unwind$??$?0AEBQEBD$0A@@?$tuple@AEBQEBD@std@@QEAA@AEBQEBD@Z 0000000140000000     Framework:SimpleSound.obj
 0003:fffd0000       $unwind$??$?0AEBQEBD@?$_Tuple_val@AEBQEBD@std@@QEAA@AEBQEBD@Z 0000000140000000     Framework:SimpleSound.obj
 0003:fffd0000       $unwind$??$?0U_Exact_args_t@std@@$0A@@?$tuple@$$V@std@@QEAA@U_Exact_args_t@1@@Z 0000000140000000     Framework:SimpleSound.obj
 0003:fffd0000       $unwind$??$?0U_Exact_args_t@std@@AEBQEBD$$V$0A@@?$tuple@AEBQEBD@std@@QEAA@U_Exact_args_t@1@AEBQEBD@Z 0000000140000000     Framework:SimpleSound.obj
 0003:fffd0000       $unwind$??$_Allocate@$0BA@U_Default_allocate_traits@std@@$0A@@std@@YAPEAX_K@Z 0000000140000000     Framework:SimpleSound.obj
 0003:fffd0000       $unwind$??$_Allocate_manually_vector_aligned@U_Default_allocate_traits@std@@@std@@YAPEAX_K@Z 0000000140000000     Framework:SimpleSound.obj
 0003:fffd0000       $unwind$??$_Construct_in_place@U_Container_proxy@std@@PEAU_Container_base12@2@@std@@YAXAEAU_Container_proxy@0@$$QEAPEAU_Container_base12@0@@Z 0000000140000000     Framework:SimpleSound.obj
 0003:fffd0000       $unwind$??$_Deallocate@$0BA@$0A@@std@@YAXPEAX_K@Z 0000000140000000     Framework:SimpleSound.obj
 0003:fffd0000       $unwind$??$_Deallocate_plain@V?$allocator@U_Container_proxy@std@@@std@@@std@@YAXAEAV?$allocator@U_Container_proxy@std@@@0@QEAU_Container_proxy@0@@Z 0000000140000000     Framework:SimpleSound.obj
 0003:fffd0000       $unwind$??$_Debug_lt_pred@AEBU?$less@PEBD@std@@AEBQEBDAEBQEBD$0A@@std@@YA_NAEBU?$less@PEBD@0@AEBQEBD1@Z 0000000140000000     Framework:SimpleSound.obj
 0003:fffd0000       $unwind$??$_Delete_plain_internal@V?$allocator@U_Container_proxy@std@@@std@@@std@@YAXAEAV?$allocator@U_Container_proxy@std@@@0@QEAU_Container_proxy@0@@Z 0000000140000000     Framework:SimpleSound.obj
 0003:fffd0000       $unwind$??$_Get_size_of_n@$0BA@@std@@YA_K_K@Z 0000000140000000     Framework:SimpleSound.obj
 0003:fffd0000       $unwind$??$_Min_value@_K@std@@YAAEB_KAEB_K0@Z 0000000140000000     Framework:SimpleSound.obj
 0003:fffd0000       $unwind$??$_Unfancy@U_Container_proxy@std@@@std@@YAPEAU_Container_proxy@0@PEAU10@@Z 0000000140000000     Framework:SimpleSound.obj
 0003:fffd0000       $unwind$??$addressof@U_Container_base12@std@@@std@@YAPEAU_Container_base12@0@AEAU10@@Z 0000000140000000     Framework:SimpleSound.obj
 0003:fffd0000       $unwind$??$addressof@U_Container_proxy@std@@@std@@YAPEAU_Container_proxy@0@AEAU10@@Z 0000000140000000     Framework:SimpleSound.obj
 0003:fffd0000       $unwind$??$forward@AEBQEBD@std@@YAAEBQEBDAEBQEBD@Z 0000000140000000     Framework:SimpleSound.obj
 0003:fffd0000       $unwind$??$forward@AEBU?$less@PEBD@std@@@std@@YAAEBU?$less@PEBD@0@AEBU10@@Z 0000000140000000     Framework:SimpleSound.obj
 0003:fffd0000       $unwind$??$forward@AEBUpiecewise_construct_t@std@@@std@@YAAEBUpiecewise_construct_t@0@AEBU10@@Z 0000000140000000     Framework:SimpleSound.obj
 0003:fffd0000       $unwind$??$forward@PEAU_Container_base12@std@@@std@@YA$$QEAPEAU_Container_base12@0@AEAPEAU10@@Z 0000000140000000     Framework:SimpleSound.obj
 0003:fffd0000       $unwind$??$forward@U_Zero_then_variadic_args_t@std@@@std@@YA$$QEAU_Zero_then_variadic_args_t@0@AEAU10@@Z 0000000140000000     Framework:SimpleSound.obj
 0003:fffd0000       $unwind$??$forward@V?$tuple@$$V@std@@@std@@YA$$QEAV?$tuple@$$V@0@AEAV10@@Z 0000000140000000     Framework:SimpleSound.obj
 0003:fffd0000       $unwind$??$forward@V?$tuple@AEBQEBD@std@@@std@@YA$$QEAV?$tuple@AEBQEBD@0@AEAV10@@Z 0000000140000000     Framework:SimpleSound.obj
 0003:fffd0000       $unwind$??$forward@_N@std@@YA$$QEA_NAEA_N@Z 0000000140000000     Framework:SimpleSound.obj
 0003:fffd0000       $unwind$??$forward_as_tuple@$$V@std@@YA?AV?$tuple@$$V@0@XZ 0000000140000000     Framework:SimpleSound.obj
 0003:fffd0000       $unwind$??$forward_as_tuple@AEBQEBD@std@@YA?AV?$tuple@AEBQEBD@0@AEBQEBD@Z 0000000140000000     Framework:SimpleSound.obj
 0003:fffd0000       $unwind$??$get@$0A@AEBQEBD@std@@YAAEBQEBD$$QEAV?$tuple@AEBQEBD@0@@Z 0000000140000000     Framework:SimpleSound.obj
 0003:fffd0000       $unwind$??$move@AEAV?$tuple@AEBQEBD@std@@@std@@YA$$QEAV?$tuple@AEBQEBD@0@AEAV10@@Z 0000000140000000     Framework:SimpleSound.obj
 0003:fffd0000       $unwind$??0?$_Container_proxy_ptr12@V?$allocator@U_Container_proxy@std@@@std@@@std@@QEAA@AEAV?$allocator@U_Container_proxy@std@@@1@AEAU_Container_base12@1@@Z 0000000140000000     Framework:SimpleSound.obj
 0003:fffd0000       $unwind$??0?$tuple@$$V@std@@QEAA@AEBV01@@Z 0000000140000000     Framework:SimpleSound.obj
 0003:fffd0000       $unwind$??0?$tuple@$$V@std@@QEAA@XZ 0000000140000000     Framework:SimpleSound.obj
 0003:fffd0000       $unwind$??0?$tuple@AEBQEBD@std@@QEAA@$$QEAV01@@Z 0000000140000000     Framework:SimpleSound.obj
 0003:fffd0000       $unwind$??0_Container_base12@std@@QEAA@XZ 0000000140000000     Framework:SimpleSound.obj
 0003:fffd0000       $unwind$??0_Container_proxy@std@@QEAA@PEAU_Container_base12@1@@Z 0000000140000000     Framework:SimpleSound.obj
 0003:fffd0000       $unwind$??0bad_alloc@std@@AEAA@QEBD@Z 0000000140000000     Framework:SimpleSound.obj
 0003:fffd0000       $unwind$??0bad_alloc@std@@QEAA@AEBV01@@Z 0000000140000000     Framework:SimpleSound.obj
 0003:fffd0000       $unwind$??0bad_array_new_length@std@@QEAA@AEBV01@@Z 0000000140000000     Framework:SimpleSound.obj
 0003:fffd0000       $unwind$??0bad_array_new_length@std@@QEAA@XZ 0000000140000000     Framework:SimpleSound.obj
 0003:fffd0000       $unwind$??0exception@std@@QEAA@AEBV01@@Z 0000000140000000     Framework:SimpleSound.obj
 0003:fffd0000       $unwind$??0exception@std@@QEAA@QEBDH@Z 0000000140000000     Framework:SimpleSound.obj
 0003:fffd0000       $unwind$??1?$_Container_proxy_ptr12@V?$allocator@U_Container_proxy@std@@@std@@@std@@QEAA@XZ 0000000140000000     Framework:SimpleSound.obj
 0003:fffd0000       $unwind$??1bad_alloc@std@@UEAA@XZ 0000000140000000     Framework:SimpleSound.obj
 0003:fffd0000       $unwind$??1bad_array_new_length@std@@UEAA@XZ 0000000140000000     Framework:SimpleSound.obj
 0003:fffd0000       $unwind$??1exception@std@@UEAA@XZ 0000000140000000     Framework:SimpleSound.obj
 0003:fffd0000       $unwind$??2@YAPEAX_KPEAX@Z 0000000140000000     Framework:SimpleSound.obj
 0003:fffd0000       $unwind$??R?$less@PEBD@std@@QEBA_NAEBQEBD0@Z 0000000140000000     Framework:SimpleSound.obj
 0003:fffd0000       $unwind$??_Gbad_alloc@std@@UEAAPEAXI@Z 0000000140000000     Framework:SimpleSound.obj
 0003:fffd0000       $unwind$??_Gbad_array_new_length@std@@UEAAPEAXI@Z 0000000140000000     Framework:SimpleSound.obj
 0003:fffd0000       $unwind$??_Gexception@std@@UEAAPEAXI@Z 0000000140000000     Framework:SimpleSound.obj
 0003:fffd0000       $unwind$?_Adjust_manually_vector_aligned@std@@YAXAEAPEAXAEA_K@Z 0000000140000000     Framework:SimpleSound.obj
 0003:fffd0000       $unwind$?_Allocate@_Default_allocate_traits@std@@SAPEAX_K@Z 0000000140000000     Framework:SimpleSound.obj
 0003:fffd0000       $unwind$?_Orphan_all@_Container_base12@std@@QEAAXXZ 0000000140000000     Framework:SimpleSound.obj
 0003:fffd0000       $unwind$?_Release@_Basic_container_proxy_ptr12@std@@QEAAXXZ 0000000140000000     Framework:SimpleSound.obj
 0003:fffd0000       $unwind$?_Throw_bad_array_new_length@std@@YAXXZ 0000000140000000     Framework:SimpleSound.obj
 0003:fffd0000       $unwind$?_Throw_tree_length_error@std@@YAXXZ 0000000140000000     Framework:SimpleSound.obj
 0003:fffd0000       $unwind$?allocate@?$allocator@U_Container_proxy@std@@@std@@QEAAPEAU_Container_proxy@2@_K@Z 0000000140000000     Framework:SimpleSound.obj
 0003:fffd0000       $unwind$?deallocate@?$_Default_allocator_traits@V?$allocator@U_Container_proxy@std@@@std@@@std@@SAXAEAV?$allocator@U_Container_proxy@std@@@2@QEAU_Container_proxy@2@_K@Z 0000000140000000     Framework:SimpleSound.obj
 0003:fffd0000       $unwind$?max@?$numeric_limits@_J@std@@SA_JXZ 0000000140000000     Framework:SimpleSound.obj
 0003:fffd0000       $unwind$?what@exception@std@@UEBAPEBDXZ 0000000140000000     Framework:SimpleSound.obj
 0003:fffd0000       ?_Orphan_all@_Container_base12@std@@QEAAXXZ$rtcName$0 0000000140000000     Framework:SimpleSound.obj
 0003:fffd0000       $cppxdata$??$_Construct_in_place@U_Container_proxy@std@@PEAU_Container_base12@2@@std@@YAXAEAU_Container_proxy@0@$$QEAPEAU_Container_base12@0@@Z 0000000140000000     Framework:SimpleSprite.obj
 0003:fffd0000       $cppxdata$??$_Deallocate@$0BA@$0A@@std@@YAXPEAX_K@Z 0000000140000000     Framework:SimpleSprite.obj
 0003:fffd0000       $cppxdata$??$_Deallocate_plain@V?$allocator@U_Container_proxy@std@@@std@@@std@@YAXAEAV?$allocator@U_Container_proxy@std@@@0@QEAU_Container_proxy@0@@Z 0000000140000000     Framework:SimpleSprite.obj
 0003:fffd0000       $cppxdata$??$_Delete_plain_internal@V?$allocator@U_Container_proxy@std@@@std@@@std@@YAXAEAV?$allocator@U_Container_proxy@std@@@0@QEAU_Container_proxy@0@@Z 0000000140000000     Framework:SimpleSprite.obj
 0003:fffd0000       $cppxdata$??$_Min_value@_K@std@@YAAEB_KAEB_K0@Z 0000000140000000     Framework:SimpleSprite.obj
 0003:fffd0000       $cppxdata$??$addressof@U_Container_proxy@std@@@std@@YAPEAU_Container_proxy@0@AEAU10@@Z 0000000140000000     Framework:SimpleSprite.obj
 0003:fffd0000       $cppxdata$??$forward@PEAU_Container_base12@std@@@std@@YA$$QEAPEAU_Container_base12@0@AEAPEAU10@@Z 0000000140000000     Framework:SimpleSprite.obj
 0003:fffd0000       $cppxdata$??0_Container_proxy@std@@QEAA@PEAU_Container_base12@1@@Z 0000000140000000     Framework:SimpleSprite.obj
 0003:fffd0000       $cppxdata$??0bad_alloc@std@@AEAA@QEBD@Z 0000000140000000     Framework:SimpleSprite.obj
 0003:fffd0000       $cppxdata$??0bad_array_new_length@std@@QEAA@XZ 0000000140000000     Framework:SimpleSprite.obj
 0003:fffd0000       $cppxdata$??0exception@std@@QEAA@AEBV01@@Z 0000000140000000     Framework:SimpleSprite.obj
 0003:fffd0000       $cppxdata$??0exception@std@@QEAA@QEBDH@Z 0000000140000000     Framework:SimpleSprite.obj
 0003:fffd0000       $cppxdata$??1exception@std@@UEAA@XZ 0000000140000000     Framework:SimpleSprite.obj
 0003:fffd0000       $cppxdata$??2@YAPEAX_KPEAX@Z 0000000140000000     Framework:SimpleSprite.obj
 0003:fffd0000       $cppxdata$?_Orphan_all@_Container_base12@std@@QEAAXXZ 0000000140000000     Framework:SimpleSprite.obj
 0003:fffd0000       $cppxdata$?max@?$numeric_limits@_J@std@@SA_JXZ 0000000140000000     Framework:SimpleSprite.obj
 0003:fffd0000       $ip2state$??$_Construct_in_place@U_Container_proxy@std@@PEAU_Container_base12@2@@std@@YAXAEAU_Container_proxy@0@$$QEAPEAU_Container_base12@0@@Z 0000000140000000     Framework:SimpleSprite.obj
 0003:fffd0000       $ip2state$??$_Deallocate@$0BA@$0A@@std@@YAXPEAX_K@Z 0000000140000000     Framework:SimpleSprite.obj
 0003:fffd0000       $ip2state$??$_Deallocate_plain@V?$allocator@U_Container_proxy@std@@@std@@@std@@YAXAEAV?$allocator@U_Container_proxy@std@@@0@QEAU_Container_proxy@0@@Z 0000000140000000     Framework:SimpleSprite.obj
 0003:fffd0000       $ip2state$??$_Delete_plain_internal@V?$allocator@U_Container_proxy@std@@@std@@@std@@YAXAEAV?$allocator@U_Container_proxy@std@@@0@QEAU_Container_proxy@0@@Z 0000000140000000     Framework:SimpleSprite.obj
 0003:fffd0000       $ip2state$??$_Min_value@_K@std@@YAAEB_KAEB_K0@Z 0000000140000000     Framework:SimpleSprite.obj
 0003:fffd0000       $ip2state$??$addressof@U_Container_proxy@std@@@std@@YAPEAU_Container_proxy@0@AEAU10@@Z 0000000140000000     Framework:SimpleSprite.obj
 0003:fffd0000       $ip2state$??$forward@PEAU_Container_base12@std@@@std@@YA$$QEAPEAU_Container_base12@0@AEAPEAU10@@Z 0000000140000000     Framework:SimpleSprite.obj
 0003:fffd0000       $ip2state$??0_Container_proxy@std@@QEAA@PEAU_Container_base12@1@@Z 0000000140000000     Framework:SimpleSprite.obj
 0003:fffd0000       $ip2state$??0bad_alloc@std@@AEAA@QEBD@Z 0000000140000000     Framework:SimpleSprite.obj
 0003:fffd0000       $ip2state$??0bad_array_new_length@std@@QEAA@XZ 0000000140000000     Framework:SimpleSprite.obj
 0003:fffd0000       $ip2state$??0exception@std@@QEAA@AEBV01@@Z 0000000140000000     Framework:SimpleSprite.obj
 0003:fffd0000       $ip2state$??0exception@std@@QEAA@QEBDH@Z 0000000140000000     Framework:SimpleSprite.obj
 0003:fffd0000       $ip2state$??1exception@std@@UEAA@XZ 0000000140000000     Framework:SimpleSprite.obj
 0003:fffd0000       $ip2state$??2@YAPEAX_KPEAX@Z 0000000140000000     Framework:SimpleSprite.obj
 0003:fffd0000       $ip2state$?_Orphan_all@_Container_base12@std@@QEAAXXZ 0000000140000000     Framework:SimpleSprite.obj
 0003:fffd0000       $ip2state$?max@?$numeric_limits@_J@std@@SA_JXZ 0000000140000000     Framework:SimpleSprite.obj
 0005:fffc1000       $pdata$??$_Allocate@$0BA@U_Default_allocate_traits@std@@$0A@@std@@YAPEAX_K@Z 0000000140000000     Framework:SimpleSprite.obj
 0005:fffc1000       $pdata$??$_Allocate_manually_vector_aligned@U_Default_allocate_traits@std@@@std@@YAPEAX_K@Z 0000000140000000     Framework:SimpleSprite.obj
 0005:fffc1000       $pdata$??$_Construct_in_place@U_Container_proxy@std@@PEAU_Container_base12@2@@std@@YAXAEAU_Container_proxy@0@$$QEAPEAU_Container_base12@0@@Z 0000000140000000     Framework:SimpleSprite.obj
 0005:fffc1000       $pdata$??$_Deallocate@$0BA@$0A@@std@@YAXPEAX_K@Z 0000000140000000     Framework:SimpleSprite.obj
 0005:fffc1000       $pdata$??$_Deallocate_plain@V?$allocator@U_Container_proxy@std@@@std@@@std@@YAXAEAV?$allocator@U_Container_proxy@std@@@0@QEAU_Container_proxy@0@@Z 0000000140000000     Framework:SimpleSprite.obj
 0005:fffc1000       $pdata$??$_Delete_plain_internal@V?$allocator@U_Container_proxy@std@@@std@@@std@@YAXAEAV?$allocator@U_Container_proxy@std@@@0@QEAU_Container_proxy@0@@Z 0000000140000000     Framework:SimpleSprite.obj
 0005:fffc1000       $pdata$??$_Get_size_of_n@$0BA@@std@@YA_K_K@Z 0000000140000000     Framework:SimpleSprite.obj
 0005:fffc1000       $pdata$??$_Min_value@_K@std@@YAAEB_KAEB_K0@Z 0000000140000000     Framework:SimpleSprite.obj
 0005:fffc1000       $pdata$??$_Unfancy@U_Container_proxy@std@@@std@@YAPEAU_Container_proxy@0@PEAU10@@Z 0000000140000000     Framework:SimpleSprite.obj
 0005:fffc1000       $pdata$??$addressof@U_Container_proxy@std@@@std@@YAPEAU_Container_proxy@0@AEAU10@@Z 0000000140000000     Framework:SimpleSprite.obj
 0005:fffc1000       $pdata$??$forward@PEAU_Container_base12@std@@@std@@YA$$QEAPEAU_Container_base12@0@AEAPEAU10@@Z 0000000140000000     Framework:SimpleSprite.obj
 0005:fffc1000       $pdata$??0_Container_base12@std@@QEAA@XZ 0000000140000000     Framework:SimpleSprite.obj
 0005:fffc1000       $pdata$??0_Container_proxy@std@@QEAA@PEAU_Container_base12@1@@Z 0000000140000000     Framework:SimpleSprite.obj
 0005:fffc1000       $pdata$??0bad_alloc@std@@AEAA@QEBD@Z 0000000140000000     Framework:SimpleSprite.obj
 0005:fffc1000       $pdata$??0bad_alloc@std@@QEAA@AEBV01@@Z 0000000140000000     Framework:SimpleSprite.obj
 0005:fffc1000       $pdata$??0bad_array_new_length@std@@QEAA@AEBV01@@Z 0000000140000000     Framework:SimpleSprite.obj
 0005:fffc1000       $pdata$??0bad_array_new_length@std@@QEAA@XZ 0000000140000000     Framework:SimpleSprite.obj
 0005:fffc1000       $pdata$??0exception@std@@QEAA@AEBV01@@Z 0000000140000000     Framework:SimpleSprite.obj
 0005:fffc1000       $pdata$??0exception@std@@QEAA@QEBDH@Z 0000000140000000     Framework:SimpleSprite.obj
 0005:fffc1000       $pdata$??1bad_alloc@std@@UEAA@XZ 0000000140000000     Framework:SimpleSprite.obj
 0005:fffc1000       $pdata$??1bad_array_new_length@std@@UEAA@XZ 0000000140000000     Framework:SimpleSprite.obj
 0005:fffc1000       $pdata$??1exception@std@@UEAA@XZ 0000000140000000     Framework:SimpleSprite.obj
 0005:fffc1000       $pdata$??2@YAPEAX_KPEAX@Z  0000000140000000     Framework:SimpleSprite.obj
 0005:fffc1000       $pdata$??_Gbad_alloc@std@@UEAAPEAXI@Z 0000000140000000     Framework:SimpleSprite.obj
 0005:fffc1000       $pdata$??_Gbad_array_new_length@std@@UEAAPEAXI@Z 0000000140000000     Framework:SimpleSprite.obj
 0005:fffc1000       $pdata$??_Gexception@std@@UEAAPEAXI@Z 0000000140000000     Framework:SimpleSprite.obj
 0005:fffc1000       $pdata$?_Adjust_manually_vector_aligned@std@@YAXAEAPEAXAEA_K@Z 0000000140000000     Framework:SimpleSprite.obj
 0005:fffc1000       $pdata$?_Allocate@_Default_allocate_traits@std@@SAPEAX_K@Z 0000000140000000     Framework:SimpleSprite.obj
 0005:fffc1000       $pdata$?_Orphan_all@_Container_base12@std@@QEAAXXZ 0000000140000000     Framework:SimpleSprite.obj
 0005:fffc1000       $pdata$?_Throw_bad_array_new_length@std@@YAXXZ 0000000140000000     Framework:SimpleSprite.obj
 0005:fffc1000       $pdata$?allocate@?$allocator@U_Container_proxy@std@@@std@@QEAAPEAU_Container_proxy@2@_K@Z 0000000140000000     Framework:SimpleSprite.obj
 0005:fffc1000       $pdata$?deallocate@?$_Default_allocator_traits@V?$allocator@U_Container_proxy@std@@@std@@@std@@SAXAEAV?$allocator@U_Container_proxy@std@@@2@QEAU_Container_proxy@2@_K@Z 0000000140000000     Framework:SimpleSprite.obj
 0005:fffc1000       $pdata$?max@?$numeric_limits@_J@std@@SA_JXZ 0000000140000000     Framework:SimpleSprite.obj
 0005:fffc1000       $pdata$?what@exception@std@@UEBAPEBDXZ 0000000140000000     Framework:SimpleSprite.obj
 0003:fffd0000       $unwind$??$_Allocate@$0BA@U_Default_allocate_traits@std@@$0A@@std@@YAPEAX_K@Z 0000000140000000     Framework:SimpleSprite.obj
 0003:fffd0000       $unwind$??$_Allocate_manually_vector_aligned@U_Default_allocate_traits@std@@@std@@YAPEAX_K@Z 0000000140000000     Framework:SimpleSprite.obj
 0003:fffd0000       $unwind$??$_Construct_in_place@U_Container_proxy@std@@PEAU_Container_base12@2@@std@@YAXAEAU_Container_proxy@0@$$QEAPEAU_Container_base12@0@@Z 0000000140000000     Framework:SimpleSprite.obj
 0003:fffd0000       $unwind$??$_Deallocate@$0BA@$0A@@std@@YAXPEAX_K@Z 0000000140000000     Framework:SimpleSprite.obj
 0003:fffd0000       $unwind$??$_Deallocate_plain@V?$allocator@U_Container_proxy@std@@@std@@@std@@YAXAEAV?$allocator@U_Container_proxy@std@@@0@QEAU_Container_proxy@0@@Z 0000000140000000     Framework:SimpleSprite.obj
 0003:fffd0000       $unwind$??$_Delete_plain_internal@V?$allocator@U_Container_proxy@std@@@std@@@std@@YAXAEAV?$allocator@U_Container_proxy@std@@@0@QEAU_Container_proxy@0@@Z 0000000140000000     Framework:SimpleSprite.obj
 0003:fffd0000       $unwind$??$_Get_size_of_n@$0BA@@std@@YA_K_K@Z 0000000140000000     Framework:SimpleSprite.obj
 0003:fffd0000       $unwind$??$_Min_value@_K@std@@YAAEB_KAEB_K0@Z 0000000140000000     Framework:SimpleSprite.obj
 0003:fffd0000       $unwind$??$_Unfancy@U_Container_proxy@std@@@std@@YAPEAU_Container_proxy@0@PEAU10@@Z 0000000140000000     Framework:SimpleSprite.obj
 0003:fffd0000       $unwind$??$addressof@U_Container_proxy@std@@@std@@YAPEAU_Container_proxy@0@AEAU10@@Z 0000000140000000     Framework:SimpleSprite.obj
 0003:fffd0000       $unwind$??$forward@PEAU_Container_base12@std@@@std@@YA$$QEAPEAU_Container_base12@0@AEAPEAU10@@Z 0000000140000000     Framework:SimpleSprite.obj
 0003:fffd0000       $unwind$??0_Container_base12@std@@QEAA@XZ 0000000140000000     Framework:SimpleSprite.obj
 0003:fffd0000       $unwind$??0_Container_proxy@std@@QEAA@PEAU_Container_base12@1@@Z 0000000140000000     Framework:SimpleSprite.obj
 0003:fffd0000       $unwind$??0bad_alloc@std@@AEAA@QEBD@Z 0000000140000000     Framework:SimpleSprite.obj
 0003:fffd0000       $unwind$??0bad_alloc@std@@QEAA@AEBV01@@Z 0000000140000000     Framework:SimpleSprite.obj
 0003:fffd0000       $unwind$??0bad_array_new_length@std@@QEAA@AEBV01@@Z 0000000140000000     Framework:SimpleSprite.obj
 0003:fffd0000       $unwind$??0bad_array_new_length@std@@QEAA@XZ 0000000140000000     Framework:SimpleSprite.obj
 0003:fffd0000       $unwind$??0exception@std@@QEAA@AEBV01@@Z 0000000140000000     Framework:SimpleSprite.obj
 0003:fffd0000       $unwind$??0exception@std@@QEAA@QEBDH@Z 0000000140000000     Framework:SimpleSprite.obj
 0003:fffd0000       $unwind$??1bad_alloc@std@@UEAA@XZ 0000000140000000     Framework:SimpleSprite.obj
 0003:fffd0000       $unwind$??1bad_array_new_length@std@@UEAA@XZ 0000000140000000     Framework:SimpleSprite.obj
 0003:fffd0000       $unwind$??1exception@std@@UEAA@XZ 0000000140000000     Framework:SimpleSprite.obj
 0003:fffd0000       $unwind$??2@YAPEAX_KPEAX@Z 0000000140000000     Framework:SimpleSprite.obj
 0003:fffd0000       $unwind$??_Gbad_alloc@std@@UEAAPEAXI@Z 0000000140000000     Framework:SimpleSprite.obj
 0003:fffd0000       $unwind$??_Gbad_array_new_length@std@@UEAAPEAXI@Z 0000000140000000     Framework:SimpleSprite.obj
 0003:fffd0000       $unwind$??_Gexception@std@@UEAAPEAXI@Z 0000000140000000     Framework:SimpleSprite.obj
 0003:fffd0000       $unwind$?_Adjust_manually_vector_aligned@std@@YAXAEAPEAXAEA_K@Z 0000000140000000     Framework:SimpleSprite.obj
 0003:fffd0000       $unwind$?_Allocate@_Default_allocate_traits@std@@SAPEAX_K@Z 0000000140000000     Framework:SimpleSprite.obj
 0003:fffd0000       $unwind$?_Orphan_all@_Container_base12@std@@QEAAXXZ 0000000140000000     Framework:SimpleSprite.obj
 0003:fffd0000       $unwind$?_Throw_bad_array_new_length@std@@YAXXZ 0000000140000000     Framework:SimpleSprite.obj
 0003:fffd0000       $unwind$?allocate@?$allocator@U_Container_proxy@std@@@std@@QEAAPEAU_Container_proxy@2@_K@Z 0000000140000000     Framework:SimpleSprite.obj
 0003:fffd0000       $unwind$?deallocate@?$_Default_allocator_traits@V?$allocator@U_Container_proxy@std@@@std@@@std@@SAXAEAV?$allocator@U_Container_proxy@std@@@2@QEAU_Container_proxy@2@_K@Z 0000000140000000     Framework:SimpleSprite.obj
 0003:fffd0000       $unwind$?max@?$numeric_limits@_J@std@@SA_JXZ 0000000140000000     Framework:SimpleSprite.obj
 0003:fffd0000       $unwind$?what@exception@std@@UEBAPEBDXZ 0000000140000000     Framework:SimpleSprite.obj
 0003:fffd0000       ?_Orphan_all@_Container_base12@std@@QEAAXXZ$rtcName$0 0000000140000000     Framework:SimpleSprite.obj
 0005:fffc1000       $pdata$__local_stdio_printf_options 0000000140000000     Framework:TextureLoader.obj
 0005:fffc1000       $pdata$_vfprintf_l         0000000140000000     Framework:TextureLoader.obj
 0005:fffc1000       $pdata$printf              0000000140000000     Framework:TextureLoader.obj
 0003:fffd0000       $unwind$__local_stdio_printf_options 0000000140000000     Framework:TextureLoader.obj
 0003:fffd0000       $unwind$_vfprintf_l        0000000140000000     Framework:TextureLoader.obj
 0003:fffd0000       $unwind$printf             0000000140000000     Framework:TextureLoader.obj
 0003:fffd0000       printf$rtcName$0           0000000140000000     Framework:TextureLoader.obj
 0005:fffc1000       $pdata$?CheckButton@CController@@QEBA_NH_N@Z 0000000140000000     Framework:main.obj
 0003:fffd0000       $unwind$?CheckButton@CController@@QEBA_NH_N@Z 0000000140000000     Framework:main.obj
 0000:fffba004       __guard_fids__             0000000140000004     MSVCRTD:exe_wwinmain.obj
 0000:fffba008       __guard_fids__             0000000140000008     MSVCRTD:exe_wwinmain.obj
 0003:fffd0010       ?_Orphan_all@_Container_base12@std@@QEAAXXZ$rtcVarDesc 0000000140000010     Framework:SimpleSound.obj
 0003:fffd0010       ?_Orphan_all@_Container_base12@std@@QEAAXXZ$rtcVarDesc 0000000140000010     Framework:SimpleSprite.obj
 0003:fffd0010       printf$rtcVarDesc          0000000140000010     Framework:TextureLoader.obj
 0003:fffd0050       ?_Orphan_all@_Container_base12@std@@QEAAXXZ$rtcFrameData 0000000140000050     Framework:SimpleSound.obj
 0003:fffd0050       ?_Orphan_all@_Container_base12@std@@QEAAXXZ$rtcFrameData 0000000140000050     Framework:SimpleSprite.obj
 0003:fffd0050       printf$rtcFrameData        0000000140000050     Framework:TextureLoader.obj
 0002:000018c0       ??__EwallList@@YAXXZ       00000001400128c0 f   GameTest.obj
 0002:00001940       ??__EgUpdateDeltaTime@@YAXXZ 0000000140012940 f   Framework:main.obj
 0002:00001990       ??__EgUserRenderProfiler@@YAXXZ 0000000140012990 f   Framework:main.obj
 0002:000019e0       ??__EgUserUpdateProfiler@@YAXXZ 00000001400129e0 f   Framework:main.obj
 0002:00001a30       ??__E?m_textures@CSimpleSprite@@0V?$map@PEBDUsTextureDef@CSimpleSprite@@U?$less@PEBD@std@@V?$allocator@U?$pair@QEBDUsTextureDef@CSimpleSprite@@@std@@@4@@std@@A@@YAXXZ 0000000140012a30 f   Framework:SimpleSprite.obj
 0002:00009940       glutCreateWindow_ATEXIT_HACK 000000014001a940 f   Framework:main.obj
 0002:000099b0       glutInit_ATEXIT_HACK       000000014001a9b0 f   Framework:main.obj
 0002:00015590       memcpy_s                   0000000140026590 f   Framework:TextureLoader.obj
 0002:00015970       ?find_pe_section@@YAPEAU_IMAGE_SECTION_HEADER@@QEAE_K@Z 0000000140026970 f   MSVCRTD:utility.obj
 0002:00015a90       ?is_potentially_valid_image_base@@YA_NQEAX@Z 0000000140026a90 f   MSVCRTD:utility.obj
 0002:00016660       $$000000                   0000000140027660     MSVCRTD:amdsecgs.obj
 0002:00016710       ?pre_c_initialization@@YAHXZ 0000000140027710 f   MSVCRTD:exe_wwinmain.obj
 0002:000167f0       ?post_pgo_initialization@@YAHXZ 00000001400277f0 f   MSVCRTD:exe_wwinmain.obj
 0002:00016810       ?pre_cpp_initialization@@YAXXZ 0000000140027810 f   MSVCRTD:exe_wwinmain.obj
 0002:00016830       ?__scrt_common_main@@YAHXZ 0000000140027830 f   MSVCRTD:exe_wwinmain.obj
 0002:00016850       ?__scrt_common_main_seh@@YAHXZ 0000000140027850 f   MSVCRTD:exe_wwinmain.obj
 0002:00016aa0       ?invoke_main@@YAHXZ        0000000140027aa0 f   MSVCRTD:exe_wwinmain.obj
 0002:00016b80       ?__scrt_initialize_thread_safe_statics@@YAHXZ 0000000140027b80 f   MSVCRTD:thread_safe_statics.obj
 0002:00016bd0       ?__scrt_initialize_thread_safe_statics_platform_specific@@YAXXZ 0000000140027bd0 f   MSVCRTD:thread_safe_statics.obj
 0002:00016cf0       ?__scrt_uninitialize_thread_safe_statics@@YAXXZ 0000000140027cf0 f   MSVCRTD:thread_safe_statics.obj
 0002:00017bf0       ?DebuggerProbe@@YA_NK@Z    0000000140028bf0 f   MSVCRTD:error.obj
 0002:00017c40       ?DebuggerRuntime@@YA_NKHPEAXPEB_W@Z 0000000140028c40 f   MSVCRTD:error.obj
 0002:00017fd0       ?_getMemBlockDataString@@YAXPEAD0PEBD_K@Z 0000000140028fd0 f   MSVCRTD:error.obj
 0002:000180b0       ?_strlen_priv@@YA_KPEBD@Z  00000001400290b0 f   MSVCRTD:error.obj
 0002:000180d0       ?failwithmessage@@YAXPEAXHHPEBD@Z 00000001400290d0 f   MSVCRTD:error.obj
 0002:000183d0       ?notify_debugger@@YAXAEBUtagEXCEPTION_VISUALCPP_DEBUG_INFO@@@Z 00000001400293d0 f   MSVCRTD:error.obj
 0002:00018960       capture_current_context    0000000140029960 f   MSVCRTD:gs_report.obj
 0002:00018a20       capture_previous_context   0000000140029a20 f   MSVCRTD:gs_report.obj
 0002:00018b00       __get_entropy              0000000140029b00 f   MSVCRTD:gs_support.obj
 0002:00018ed0       ?GetPdbDll@@YAPEAUHINSTANCE__@@XZ 0000000140029ed0 f   MSVCRTD:pdblkup.obj
 0002:00019070       ?GetPdbDllFromInstallPath@@YAPEAUHINSTANCE__@@XZ 000000014002a070 f   MSVCRTD:pdblkup.obj
 0002:000193d0       ?GetPdbDllPathFromFilePath@@YAHPEB_WPEA_W_K@Z 000000014002a3d0 f   MSVCRTD:pdblkup.obj
 0002:0001b2a0       $$000000                   000000014002c2a0     MSVCRTD:guard_dispatch.obj
 0002:0001c2c0       ?catch$0@?0???$_Emplace_reallocate@AEBVLaserWall@@@?$vector@VLaserWall@@V?$allocator@VLaserWall@@@std@@@std@@QEAAPEAVLaserWall@@QEAV2@AEBV2@@Z@4HA 000000014002d2c0 f   GameTest.obj
 0002:0001c2d4       __catch$??$_Emplace_reallocate@AEBVLaserWall@@@?$vector@VLaserWall@@V?$allocator@VLaserWall@@@std@@@std@@QEAAPEAVLaserWall@@QEAV2@AEBV2@@Z$0 000000014002d2d4 f   GameTest.obj
 0002:0001c340       ?dtor$0@?0???$_Uninitialized_move@PEAVLaserWall@@V?$allocator@VLaserWall@@@std@@@std@@YAPEAVLaserWall@@QEAV1@0PEAV1@AEAV?$allocator@VLaserWall@@@0@@Z@4HA 000000014002d340 f   GameTest.obj
 0002:0001c370       ?dtor$0@?0??Init@@YAXXZ@4HA 000000014002d370 f   GameTest.obj
 0002:0001c3b0       ?dtor$1@?0??Init@@YAXXZ@4HA 000000014002d3b0 f   GameTest.obj
 0002:0001c3f0       ?dtor$2@?0??Init@@YAXXZ@4HA 000000014002d3f0 f   GameTest.obj
 0002:0001c420       ?dtor$3@?0??Init@@YAXXZ@4HA 000000014002d420 f   GameTest.obj
 0002:0001c450       ?dtor$4@?0??Init@@YAXXZ@4HA 000000014002d450 f   GameTest.obj
 0002:0001c480       ?dtor$5@?0??Init@@YAXXZ@4HA 000000014002d480 f   GameTest.obj
 0002:0001c4b0       ?dtor$6@?0??Init@@YAXXZ@4HA 000000014002d4b0 f   GameTest.obj
 0002:0001c4e0       ?dtor$7@?0??Init@@YAXXZ@4HA 000000014002d4e0 f   GameTest.obj
 0002:0001c510       ?dtor$0@?0??Render@@YAXXZ@4HA 000000014002d510 f   GameTest.obj
 0002:0001c540       ?dtor$0@?0??Update@@YAXM@Z@4HA 000000014002d540 f   GameTest.obj
 0002:0001c570       ?dtor$0@?0??Idle@@YAXXZ@4HA 000000014002d570 f   Framework:main.obj
 0002:0001c5a0       ?dtor$0@?0??CreateSprite@App@@YAPEAVCSimpleSprite@@PEBD@Z@4HA 000000014002d5a0 f   Framework:app.obj
 0002:0001c5e0       ?dtor$0@?0???$?0AEBUpiecewise_construct_t@std@@V?$tuple@AEBQEBD@1@V?$tuple@$$V@1@@?$_Tree_temp_node@V?$allocator@U?$_Tree_node@U?$pair@QEBDUsTextureDef@CSimpleSprite@@@std@@PEAX@std@@@std@@@std@@QEAA@AEAV?$allocator@U?$_Tree_node@U?$pair@QEBDUsTextureDef@CSimpleSprite@@@std@@PEAX@std@@@1@PEAU?$_Tree_node@U?$pair@QEBDUsTextureDef@CSimpleSprite@@@std@@PEAX@1@AEBUpiecewise_construct_t@1@$$QEAV?$tuple@AEBQEBD@1@$$QEAV?$tuple@$$V@1@@Z@4HA 000000014002d5e0 f   Framework:SimpleSprite.obj
 0002:0001c610       ?dtor$0@?0???0?$_Tree_temp_node_alloc@V?$allocator@U?$_Tree_node@U?$pair@QEBDUsTextureDef@CSimpleSprite@@@std@@PEAX@std@@@std@@@std@@QEAA@AEAV?$allocator@U?$_Tree_node@U?$pair@QEBDUsTextureDef@CSimpleSprite@@@std@@PEAX@std@@@1@@Z@4HA 000000014002d610 f   Framework:SimpleSprite.obj
 0002:0001c640       ?dtor$0@?0??LoadTexture@CSimpleSprite@@AEAA_NPEBD@Z@4HA 000000014002d640 f   Framework:SimpleSprite.obj
 0002:0001c670       ?dtor$1@?0??LoadTexture@CSimpleSprite@@AEAA_NPEBD@Z@4HA 000000014002d670 f   Framework:SimpleSprite.obj
 0002:0001c6a0       ?dtor$0@?0??_Alloc_sentinel_and_proxy@?$_Tree@V?$_Tmap_traits@PEBDUsTextureDef@CSimpleSprite@@U?$less@PEBD@std@@V?$allocator@U?$pair@QEBDUsTextureDef@CSimpleSprite@@@std@@@4@$0A@@std@@@std@@IEAAXXZ@4HA 000000014002d6a0 f   Framework:SimpleSprite.obj
 0002:0001c6d0       ?dtor$0@?0??GetInstance@CSimpleControllers@@SAAEAV1@XZ@4HA 000000014002d6d0 f   Framework:SimpleController.obj
 0002:0001c700       ?dtor$0@?0???$?0AEBUpiecewise_construct_t@std@@V?$tuple@AEBQEBD@1@V?$tuple@$$V@1@@?$_Tree_temp_node@V?$allocator@U?$_Tree_node@U?$pair@QEBDPEAUIDirectSoundBuffer8@@@std@@PEAX@std@@@std@@@std@@QEAA@AEAV?$allocator@U?$_Tree_node@U?$pair@QEBDPEAUIDirectSoundBuffer8@@@std@@PEAX@std@@@1@PEAU?$_Tree_node@U?$pair@QEBDPEAUIDirectSoundBuffer8@@@std@@PEAX@1@AEBUpiecewise_construct_t@1@$$QEAV?$tuple@AEBQEBD@1@$$QEAV?$tuple@$$V@1@@Z@4HA 000000014002d700 f   Framework:SimpleSound.obj
 0002:0001c730       ?dtor$0@?0???0?$_Tree_temp_node_alloc@V?$allocator@U?$_Tree_node@U?$pair@QEBDPEAUIDirectSoundBuffer8@@@std@@PEAX@std@@@std@@@std@@QEAA@AEAV?$allocator@U?$_Tree_node@U?$pair@QEBDPEAUIDirectSoundBuffer8@@@std@@PEAX@std@@@1@@Z@4HA 000000014002d730 f   Framework:SimpleSound.obj
 0002:0001c760       ?dtor$0@?0??GetInstance@CSimpleSound@@SAAEAV1@XZ@4HA 000000014002d760 f   Framework:SimpleSound.obj
 0002:0001c790       ?dtor$0@?0??_Alloc_sentinel_and_proxy@?$_Tree@V?$_Tmap_traits@PEBDPEAUIDirectSoundBuffer8@@U?$less@PEBD@std@@V?$allocator@U?$pair@QEBDPEAUIDirectSoundBuffer8@@@std@@@3@$0A@@std@@@std@@IEAAXXZ@4HA 000000014002d790 f   Framework:SimpleSound.obj
 0002:0001c7c0       __scrt_is_nonwritable_in_current_image$filt$0 000000014002d7c0 f   MSVCRTD:utility.obj
 0002:0001c810       ?filt$0@?0??__scrt_common_main_seh@@YAHXZ@4HA 000000014002d810 f   MSVCRTD:exe_wwinmain.obj
 0002:0001c850       ?filt$0@?0??notify_debugger@@YAXAEBUtagEXCEPTION_VISUALCPP_DEBUG_INFO@@@Z@4HA 000000014002d850 f   MSVCRTD:error.obj
 0002:0001d8a0       ??__FwallList@@YAXXZ       000000014002e8a0 f   GameTest.obj
 0002:0001d8f0       ??__F?m_textures@CSimpleSprite@@0V?$map@PEBDUsTextureDef@CSimpleSprite@@U?$less@PEBD@std@@V?$allocator@U?$pair@QEBDUsTextureDef@CSimpleSprite@@@std@@@4@@std@@A@@YAXXZ 000000014002e8f0 f   Framework:SimpleSprite.obj
 0002:0001d940       ??__FtheSoundClass@?1??GetInstance@CSimpleSound@@SAAEAV1@XZ@YAXXZ 000000014002e940 f   Framework:SimpleSound.obj
 0003:00000110       ?pre_cpp_initializer@@3P6AXXZEA 0000000140030110     MSVCRTD:exe_wwinmain.obj
 0003:00000220       ?wallList$initializer$@@3P6AXXZEA 0000000140030220     GameTest.obj
 0003:00000230       ?gUserRenderProfiler$initializer$@@3P6AXXZEA 0000000140030230     Framework:main.obj
 0003:00000238       ?gUserUpdateProfiler$initializer$@@3P6AXXZEA 0000000140030238     Framework:main.obj
 0003:00000240       ?gUpdateDeltaTime$initializer$@@3P6AXXZEA 0000000140030240     Framework:main.obj
 0003:00000250       ??m_textures$initializer$@CSimpleSprite@@0P6AXXZEA@@3P6AXXZEA 0000000140030250     Framework:SimpleSprite.obj
 0003:00000580       ?pre_c_initializer@@3P6AHXZEA 0000000140030580     MSVCRTD:exe_wwinmain.obj
 0003:00000690       ?post_pgo_initializer@@3P6AHXZEA 0000000140030690     MSVCRTD:exe_wwinmain.obj
 0003:000007a0       ?__scrt_initialize_tss_var@@3P6AHXZEA 00000001400307a0     MSVCRTD:thread_safe_statics.obj
 0003:00000e30       ?_Orphan_all@_Container_base12@std@@QEAAXXZ$rtcName$0 0000000140030e30     GameTest.obj
 0003:00000e40       ?_Orphan_all@_Container_base12@std@@QEAAXXZ$rtcVarDesc 0000000140030e40     GameTest.obj
 0003:00000e80       ?_Orphan_all@_Container_base12@std@@QEAAXXZ$rtcFrameData 0000000140030e80     GameTest.obj
 0003:00000eb0       ??1?$vector@VLaserWall@@V?$allocator@VLaserWall@@@std@@@std@@QEAA@XZ$rtcName$0 0000000140030eb0     GameTest.obj
 0003:00000ec0       ??1?$vector@VLaserWall@@V?$allocator@VLaserWall@@@std@@@std@@QEAA@XZ$rtcVarDesc 0000000140030ec0     GameTest.obj
 0003:00000f00       ??1?$vector@VLaserWall@@V?$allocator@VLaserWall@@@std@@@std@@QEAA@XZ$rtcFrameData 0000000140030f00     GameTest.obj
 0003:00000f30       ?_Orphan_range@?$vector@VLaserWall@@V?$allocator@VLaserWall@@@std@@@std@@AEBAXPEAVLaserWall@@0@Z$rtcName$0 0000000140030f30     GameTest.obj
 0003:00000f40       ?_Orphan_range@?$vector@VLaserWall@@V?$allocator@VLaserWall@@@std@@@std@@AEBAXPEAVLaserWall@@0@Z$rtcVarDesc 0000000140030f40     GameTest.obj
 0003:00000f80       ?_Orphan_range@?$vector@VLaserWall@@V?$allocator@VLaserWall@@@std@@@std@@AEBAXPEAVLaserWall@@0@Z$rtcFrameData 0000000140030f80     GameTest.obj
 0003:00000fb0       ?Init@@YAXXZ$rtcName$0     0000000140030fb0     GameTest.obj
 0003:00000fb8       ?Init@@YAXXZ$rtcName$1     0000000140030fb8     GameTest.obj
 0003:00000fc0       ?Init@@YAXXZ$rtcName$2     0000000140030fc0     GameTest.obj
 0003:00000fc8       ?Init@@YAXXZ$rtcName$3     0000000140030fc8     GameTest.obj
 0003:00000fd0       ?Init@@YAXXZ$rtcName$4     0000000140030fd0     GameTest.obj
 0003:00000fd8       ?Init@@YAXXZ$rtcName$5     0000000140030fd8     GameTest.obj
 0003:00000fe0       ?Init@@YAXXZ$rtcVarDesc    0000000140030fe0     GameTest.obj
 0003:00001160       ?Init@@YAXXZ$rtcFrameData  0000000140031160     GameTest.obj
 0003:000011d0       ?Update@@YAXM@Z$rtcName$0  00000001400311d0     GameTest.obj
 0003:000011e0       ?Update@@YAXM@Z$rtcVarDesc 00000001400311e0     GameTest.obj
 0003:00001220       ?Update@@YAXM@Z$rtcFrameData 0000000140031220     GameTest.obj
 0003:00001250       ?Render@@YAXXZ$rtcName$0   0000000140031250     GameTest.obj
 0003:00001260       ?Render@@YAXXZ$rtcVarDesc  0000000140031260     GameTest.obj
 0003:000012a0       ?Render@@YAXXZ$rtcFrameData 00000001400312a0     GameTest.obj
 0003:000012d0       ??$_Uninitialized_move@PEAVLaserWall@@V?$allocator@VLaserWall@@@std@@@std@@YAPEAVLaserWall@@QEAV1@0PEAV1@AEAV?$allocator@VLaserWall@@@0@@Z$rtcName$0 00000001400312d0     GameTest.obj
 0003:000012e0       ??$_Uninitialized_move@PEAVLaserWall@@V?$allocator@VLaserWall@@@std@@@std@@YAPEAVLaserWall@@QEAV1@0PEAV1@AEAV?$allocator@VLaserWall@@@0@@Z$rtcVarDesc 00000001400312e0     GameTest.obj
 0003:00001320       ??$_Uninitialized_move@PEAVLaserWall@@V?$allocator@VLaserWall@@@std@@@std@@YAPEAVLaserWall@@QEAV1@0PEAV1@AEAV?$allocator@VLaserWall@@@0@@Z$rtcFrameData 0000000140031320     GameTest.obj
 0003:000016f0       ?Update@MainCharacter@@QEAAXM@Z$rtcName$0 00000001400316f0     MainCharacter.obj
 0003:000016f4       ?Update@MainCharacter@@QEAAXM@Z$rtcName$1 00000001400316f4     MainCharacter.obj
 0003:000016f8       ?Update@MainCharacter@@QEAAXM@Z$rtcName$2 00000001400316f8     MainCharacter.obj
 0003:000016fc       ?Update@MainCharacter@@QEAAXM@Z$rtcName$3 00000001400316fc     MainCharacter.obj
 0003:00001700       ?Update@MainCharacter@@QEAAXM@Z$rtcName$4 0000000140031700     MainCharacter.obj
 0003:00001704       ?Update@MainCharacter@@QEAAXM@Z$rtcName$5 0000000140031704     MainCharacter.obj
 0003:00001708       ?Update@MainCharacter@@QEAAXM@Z$rtcName$6 0000000140031708     MainCharacter.obj
 0003:0000170c       ?Update@MainCharacter@@QEAAXM@Z$rtcName$7 000000014003170c     MainCharacter.obj
 0003:00001710       ?Update@MainCharacter@@QEAAXM@Z$rtcVarDesc 0000000140031710     MainCharacter.obj
 0003:00001910       ?Update@MainCharacter@@QEAAXM@Z$rtcFrameData 0000000140031910     MainCharacter.obj
 0003:00001990       ?DebugRender@MainCharacter@@QEAAXXZ$rtcName$0 0000000140031990     MainCharacter.obj
 0003:00001994       ?DebugRender@MainCharacter@@QEAAXXZ$rtcName$1 0000000140031994     MainCharacter.obj
 0003:000019a0       ?DebugRender@MainCharacter@@QEAAXXZ$rtcVarDesc 00000001400319a0     MainCharacter.obj
 0003:00001a20       ?DebugRender@MainCharacter@@QEAAXXZ$rtcFrameData 0000000140031a20     MainCharacter.obj
 0003:00001a50       ?UpdateAABB@MainCharacter@@AEAAXXZ$rtcName$0 0000000140031a50     MainCharacter.obj
 0003:00001a54       ?UpdateAABB@MainCharacter@@AEAAXXZ$rtcName$1 0000000140031a54     MainCharacter.obj
 0003:00001a60       ?UpdateAABB@MainCharacter@@AEAAXXZ$rtcVarDesc 0000000140031a60     MainCharacter.obj
 0003:00001ae0       ?UpdateAABB@MainCharacter@@AEAAXXZ$rtcFrameData 0000000140031ae0     MainCharacter.obj
 0003:00001b40       printf$rtcName$0           0000000140031b40     Framework:main.obj
 0003:00001b50       printf$rtcVarDesc          0000000140031b50     Framework:main.obj
 0003:00001b90       printf$rtcFrameData        0000000140031b90     Framework:main.obj
 0003:00001bc0       sprintf$rtcName$0          0000000140031bc0     Framework:main.obj
 0003:00001bd0       sprintf$rtcVarDesc         0000000140031bd0     Framework:main.obj
 0003:00001c10       sprintf$rtcFrameData       0000000140031c10     Framework:main.obj
 0003:00001c40       wWinMain$rtcName$0         0000000140031c40     Framework:main.obj
 0003:00001c48       wWinMain$rtcName$1         0000000140031c48     Framework:main.obj
 0003:00001c50       wWinMain$rtcVarDesc        0000000140031c50     Framework:main.obj
 0003:00001cd0       wWinMain$rtcFrameData      0000000140031cd0     Framework:main.obj
 0003:00001d00       ?StartCounter@@YAXXZ$rtcName$0 0000000140031d00     Framework:main.obj
 0003:00001d10       ?StartCounter@@YAXXZ$rtcVarDesc 0000000140031d10     Framework:main.obj
 0003:00001d50       ?StartCounter@@YAXXZ$rtcFrameData 0000000140031d50     Framework:main.obj
 0003:00001d80       ?GetCounter@@YANXZ$rtcName$0 0000000140031d80     Framework:main.obj
 0003:00001d90       ?GetCounter@@YANXZ$rtcVarDesc 0000000140031d90     Framework:main.obj
 0003:00001dd0       ?GetCounter@@YANXZ$rtcFrameData 0000000140031dd0     Framework:main.obj
 0003:00001e00       ?Print@CProfiler@@QEAAXMMPEBD@Z$rtcName$0 0000000140031e00     Framework:main.obj
 0003:00001e10       ?Print@CProfiler@@QEAAXMMPEBD@Z$rtcVarDesc 0000000140031e10     Framework:main.obj
 0003:00001e50       ?Print@CProfiler@@QEAAXMMPEBD@Z$rtcFrameData 0000000140031e50     Framework:main.obj
 0003:00001e80       ?Idle@@YAXXZ$rtcName$0     0000000140031e80     Framework:main.obj
 0003:00001e90       ?Idle@@YAXXZ$rtcVarDesc    0000000140031e90     Framework:main.obj
 0003:00001ed0       ?Idle@@YAXXZ$rtcFrameData  0000000140031ed0     Framework:main.obj
 0003:00001f90       ?GetMousePos@App@@YAXAEAM0@Z$rtcName$0 0000000140031f90     Framework:app.obj
 0003:00001fa0       ?GetMousePos@App@@YAXAEAM0@Z$rtcVarDesc 0000000140031fa0     Framework:app.obj
 0003:00001fe0       ?GetMousePos@App@@YAXAEAM0@Z$rtcFrameData 0000000140031fe0     Framework:app.obj
 0003:00002023       ?piecewise_construct@std@@3Upiecewise_construct_t@1@B 0000000140032023     Framework:SimpleSprite.obj
 0003:00002030       ??1_Iterator_base12@std@@QEAA@XZ$rtcName$0 0000000140032030     Framework:SimpleSprite.obj
 0003:00002040       ??1_Iterator_base12@std@@QEAA@XZ$rtcVarDesc 0000000140032040     Framework:SimpleSprite.obj
 0003:00002080       ??1_Iterator_base12@std@@QEAA@XZ$rtcFrameData 0000000140032080     Framework:SimpleSprite.obj
 0003:000020b0       ?_Adopt@_Iterator_base12@std@@QEAAXPEBU_Container_base12@2@@Z$rtcName$0 00000001400320b0     Framework:SimpleSprite.obj
 0003:000020b8       ?_Adopt@_Iterator_base12@std@@QEAAXPEBU_Container_base12@2@@Z$rtcName$1 00000001400320b8     Framework:SimpleSprite.obj
 0003:000020c0       ?_Adopt@_Iterator_base12@std@@QEAAXPEBU_Container_base12@2@@Z$rtcVarDesc 00000001400320c0     Framework:SimpleSprite.obj
 0003:00002140       ?_Adopt@_Iterator_base12@std@@QEAAXPEBU_Container_base12@2@@Z$rtcFrameData 0000000140032140     Framework:SimpleSprite.obj
 0003:00002170       ?LoadTexture@CSimpleSprite@@AEAA_NPEBD@Z$rtcName$0 0000000140032170     Framework:SimpleSprite.obj
 0003:00002178       ?LoadTexture@CSimpleSprite@@AEAA_NPEBD@Z$rtcName$1 0000000140032178     Framework:SimpleSprite.obj
 0003:00002190       ?LoadTexture@CSimpleSprite@@AEAA_NPEBD@Z$rtcVarDesc 0000000140032190     Framework:SimpleSprite.obj
 0003:00002210       ?LoadTexture@CSimpleSprite@@AEAA_NPEBD@Z$rtcFrameData 0000000140032210     Framework:SimpleSprite.obj
 0003:00002250       ??1?$_Tree@V?$_Tmap_traits@PEBDUsTextureDef@CSimpleSprite@@U?$less@PEBD@std@@V?$allocator@U?$pair@QEBDUsTextureDef@CSimpleSprite@@@std@@@4@$0A@@std@@@std@@QEAA@XZ$rtcName$0 0000000140032250     Framework:SimpleSprite.obj
 0003:00002260       ??1?$_Tree@V?$_Tmap_traits@PEBDUsTextureDef@CSimpleSprite@@U?$less@PEBD@std@@V?$allocator@U?$pair@QEBDUsTextureDef@CSimpleSprite@@@std@@@4@$0A@@std@@@std@@QEAA@XZ$rtcVarDesc 0000000140032260     Framework:SimpleSprite.obj
 0003:000022a0       ??1?$_Tree@V?$_Tmap_traits@PEBDUsTextureDef@CSimpleSprite@@U?$less@PEBD@std@@V?$allocator@U?$pair@QEBDUsTextureDef@CSimpleSprite@@@std@@@4@$0A@@std@@@std@@QEAA@XZ$rtcFrameData 00000001400322a0     Framework:SimpleSprite.obj
 0003:000022d0       ?_Alloc_sentinel_and_proxy@?$_Tree@V?$_Tmap_traits@PEBDUsTextureDef@CSimpleSprite@@U?$less@PEBD@std@@V?$allocator@U?$pair@QEBDUsTextureDef@CSimpleSprite@@@std@@@4@$0A@@std@@@std@@IEAAXXZ$rtcName$0 00000001400322d0     Framework:SimpleSprite.obj
 0003:000022d4       ?_Alloc_sentinel_and_proxy@?$_Tree@V?$_Tmap_traits@PEBDUsTextureDef@CSimpleSprite@@U?$less@PEBD@std@@V?$allocator@U?$pair@QEBDUsTextureDef@CSimpleSprite@@@std@@@4@$0A@@std@@@std@@IEAAXXZ$rtcName$1 00000001400322d4     Framework:SimpleSprite.obj
 0003:000022e0       ?_Alloc_sentinel_and_proxy@?$_Tree@V?$_Tmap_traits@PEBDUsTextureDef@CSimpleSprite@@U?$less@PEBD@std@@V?$allocator@U?$pair@QEBDUsTextureDef@CSimpleSprite@@@std@@@4@$0A@@std@@@std@@IEAAXXZ$rtcVarDesc 00000001400322e0     Framework:SimpleSprite.obj
 0003:00002360       ?_Alloc_sentinel_and_proxy@?$_Tree@V?$_Tmap_traits@PEBDUsTextureDef@CSimpleSprite@@U?$less@PEBD@std@@V?$allocator@U?$pair@QEBDUsTextureDef@CSimpleSprite@@@std@@@4@$0A@@std@@@std@@IEAAXXZ$rtcFrameData 0000000140032360     Framework:SimpleSprite.obj
 0003:00002390       ??$_Try_emplace@AEBQEBD$$V@?$map@PEBDUsTextureDef@CSimpleSprite@@U?$less@PEBD@std@@V?$allocator@U?$pair@QEBDUsTextureDef@CSimpleSprite@@@std@@@4@@std@@AEAA?AU?$pair@PEAU?$_Tree_node@U?$pair@QEBDUsTextureDef@CSimpleSprite@@@std@@PEAX@std@@_N@1@AEBQEBD@Z$rtcName$0 0000000140032390     Framework:SimpleSprite.obj
 0003:000023a0       ??$_Try_emplace@AEBQEBD$$V@?$map@PEBDUsTextureDef@CSimpleSprite@@U?$less@PEBD@std@@V?$allocator@U?$pair@QEBDUsTextureDef@CSimpleSprite@@@std@@@4@@std@@AEAA?AU?$pair@PEAU?$_Tree_node@U?$pair@QEBDUsTextureDef@CSimpleSprite@@@std@@PEAX@std@@_N@1@AEBQEBD@Z$rtcVarDesc 00000001400323a0     Framework:SimpleSprite.obj
 0003:000023e0       ??$_Try_emplace@AEBQEBD$$V@?$map@PEBDUsTextureDef@CSimpleSprite@@U?$less@PEBD@std@@V?$allocator@U?$pair@QEBDUsTextureDef@CSimpleSprite@@@std@@@4@@std@@AEAA?AU?$pair@PEAU?$_Tree_node@U?$pair@QEBDUsTextureDef@CSimpleSprite@@@std@@PEAX@std@@_N@1@AEBQEBD@Z$rtcFrameData 00000001400323e0     Framework:SimpleSprite.obj
 0003:00002410       ??$_Find@PEBD@?$_Tree@V?$_Tmap_traits@PEBDUsTextureDef@CSimpleSprite@@U?$less@PEBD@std@@V?$allocator@U?$pair@QEBDUsTextureDef@CSimpleSprite@@@std@@@4@$0A@@std@@@std@@AEBAPEAU?$_Tree_node@U?$pair@QEBDUsTextureDef@CSimpleSprite@@@std@@PEAX@1@AEBQEBD@Z$rtcName$0 0000000140032410     Framework:SimpleSprite.obj
 0003:00002420       ??$_Find@PEBD@?$_Tree@V?$_Tmap_traits@PEBDUsTextureDef@CSimpleSprite@@U?$less@PEBD@std@@V?$allocator@U?$pair@QEBDUsTextureDef@CSimpleSprite@@@std@@@4@$0A@@std@@@std@@AEBAPEAU?$_Tree_node@U?$pair@QEBDUsTextureDef@CSimpleSprite@@@std@@PEAX@1@AEBQEBD@Z$rtcVarDesc 0000000140032420     Framework:SimpleSprite.obj
 0003:00002460       ??$_Find@PEBD@?$_Tree@V?$_Tmap_traits@PEBDUsTextureDef@CSimpleSprite@@U?$less@PEBD@std@@V?$allocator@U?$pair@QEBDUsTextureDef@CSimpleSprite@@@std@@@4@$0A@@std@@@std@@AEBAPEAU?$_Tree_node@U?$pair@QEBDUsTextureDef@CSimpleSprite@@@std@@PEAX@1@AEBQEBD@Z$rtcFrameData 0000000140032460     Framework:SimpleSprite.obj
 0003:00002490       ??$_Buyheadnode@V?$allocator@U?$_Tree_node@U?$pair@QEBDUsTextureDef@CSimpleSprite@@@std@@PEAX@std@@@std@@@?$_Tree_node@U?$pair@QEBDUsTextureDef@CSimpleSprite@@@std@@PEAX@std@@SAPEAU01@AEAV?$allocator@U?$_Tree_node@U?$pair@QEBDUsTextureDef@CSimpleSprite@@@std@@PEAX@std@@@1@@Z$rtcName$0 0000000140032490     Framework:SimpleSprite.obj
 0003:000024a0       ??$_Buyheadnode@V?$allocator@U?$_Tree_node@U?$pair@QEBDUsTextureDef@CSimpleSprite@@@std@@PEAX@std@@@std@@@?$_Tree_node@U?$pair@QEBDUsTextureDef@CSimpleSprite@@@std@@PEAX@std@@SAPEAU01@AEAV?$allocator@U?$_Tree_node@U?$pair@QEBDUsTextureDef@CSimpleSprite@@@std@@PEAX@std@@@1@@Z$rtcVarDesc 00000001400324a0     Framework:SimpleSprite.obj
 0003:000024e0       ??$_Buyheadnode@V?$allocator@U?$_Tree_node@U?$pair@QEBDUsTextureDef@CSimpleSprite@@@std@@PEAX@std@@@std@@@?$_Tree_node@U?$pair@QEBDUsTextureDef@CSimpleSprite@@@std@@PEAX@std@@SAPEAU01@AEAV?$allocator@U?$_Tree_node@U?$pair@QEBDUsTextureDef@CSimpleSprite@@@std@@PEAX@std@@@1@@Z$rtcFrameData 00000001400324e0     Framework:SimpleSprite.obj
 0003:00002510       ??$_Find_lower_bound@PEBD@?$_Tree@V?$_Tmap_traits@PEBDUsTextureDef@CSimpleSprite@@U?$less@PEBD@std@@V?$allocator@U?$pair@QEBDUsTextureDef@CSimpleSprite@@@std@@@4@$0A@@std@@@std@@IEBA?AU?$_Tree_find_result@PEAU?$_Tree_node@U?$pair@QEBDUsTextureDef@CSimpleSprite@@@std@@PEAX@std@@@1@AEBQEBD@Z$rtcName$0 0000000140032510     Framework:SimpleSprite.obj
 0003:00002520       ??$_Find_lower_bound@PEBD@?$_Tree@V?$_Tmap_traits@PEBDUsTextureDef@CSimpleSprite@@U?$less@PEBD@std@@V?$allocator@U?$pair@QEBDUsTextureDef@CSimpleSprite@@@std@@@4@$0A@@std@@@std@@IEBA?AU?$_Tree_find_result@PEAU?$_Tree_node@U?$pair@QEBDUsTextureDef@CSimpleSprite@@@std@@PEAX@std@@@1@AEBQEBD@Z$rtcVarDesc 0000000140032520     Framework:SimpleSprite.obj
 0003:00002560       ??$_Find_lower_bound@PEBD@?$_Tree@V?$_Tmap_traits@PEBDUsTextureDef@CSimpleSprite@@U?$less@PEBD@std@@V?$allocator@U?$pair@QEBDUsTextureDef@CSimpleSprite@@@std@@@4@$0A@@std@@@std@@IEBA?AU?$_Tree_find_result@PEAU?$_Tree_node@U?$pair@QEBDUsTextureDef@CSimpleSprite@@@std@@PEAX@std@@@1@AEBQEBD@Z$rtcFrameData 0000000140032560     Framework:SimpleSprite.obj
 0003:00002c28       ?piecewise_construct@std@@3Upiecewise_construct_t@1@B 0000000140032c28     Framework:SimpleSound.obj
 0003:00002c30       ?Shutdown@CSimpleSound@@QEAAXXZ$rtcName$0 0000000140032c30     Framework:SimpleSound.obj
 0003:00002c40       ?Shutdown@CSimpleSound@@QEAAXXZ$rtcName$1 0000000140032c40     Framework:SimpleSound.obj
 0003:00002c4c       ?Shutdown@CSimpleSound@@QEAAXXZ$rtcName$2 0000000140032c4c     Framework:SimpleSound.obj
 0003:00002c58       ?Shutdown@CSimpleSound@@QEAAXXZ$rtcFrameData 0000000140032c58     Framework:SimpleSound.obj
 0003:00002c70       ?Shutdown@CSimpleSound@@QEAAXXZ$rtcVarDesc 0000000140032c70     Framework:SimpleSound.obj
 0003:00002d70       ?IsPlaying@CSimpleSound@@QEAA_NPEBD@Z$rtcName$0 0000000140032d70     Framework:SimpleSound.obj
 0003:00002d80       ?IsPlaying@CSimpleSound@@QEAA_NPEBD@Z$rtcVarDesc 0000000140032d80     Framework:SimpleSound.obj
 0003:00002dc0       ?IsPlaying@CSimpleSound@@QEAA_NPEBD@Z$rtcFrameData 0000000140032dc0     Framework:SimpleSound.obj
 0003:00002df0       ?InitializeDirectSound@CSimpleSound@@AEAA_NPEAUHWND__@@@Z$rtcName$0 0000000140032df0     Framework:SimpleSound.obj
 0003:00002e00       ?InitializeDirectSound@CSimpleSound@@AEAA_NPEAUHWND__@@@Z$rtcName$1 0000000140032e00     Framework:SimpleSound.obj
 0003:00002e10       ?InitializeDirectSound@CSimpleSound@@AEAA_NPEAUHWND__@@@Z$rtcVarDesc 0000000140032e10     Framework:SimpleSound.obj
 0003:00002e90       ?InitializeDirectSound@CSimpleSound@@AEAA_NPEAUHWND__@@@Z$rtcFrameData 0000000140032e90     Framework:SimpleSound.obj
 0003:00002ed0       ?LoadWaveFile@CSimpleSound@@AEAA_NPEBD@Z$rtcName$0 0000000140032ed0     Framework:SimpleSound.obj
 0003:00002ed8       ?LoadWaveFile@CSimpleSound@@AEAA_NPEBD@Z$rtcName$1 0000000140032ed8     Framework:SimpleSound.obj
 0003:00002ee8       ?LoadWaveFile@CSimpleSound@@AEAA_NPEBD@Z$rtcName$2 0000000140032ee8     Framework:SimpleSound.obj
 0003:00002ef8       ?LoadWaveFile@CSimpleSound@@AEAA_NPEBD@Z$rtcName$3 0000000140032ef8     Framework:SimpleSound.obj
 0003:00002f08       ?LoadWaveFile@CSimpleSound@@AEAA_NPEBD@Z$rtcName$4 0000000140032f08     Framework:SimpleSound.obj
 0003:00002f18       ?LoadWaveFile@CSimpleSound@@AEAA_NPEBD@Z$rtcName$5 0000000140032f18     Framework:SimpleSound.obj
 0003:00002f28       ?LoadWaveFile@CSimpleSound@@AEAA_NPEBD@Z$rtcName$6 0000000140032f28     Framework:SimpleSound.obj
 0003:00002f40       ?LoadWaveFile@CSimpleSound@@AEAA_NPEBD@Z$rtcVarDesc 0000000140032f40     Framework:SimpleSound.obj
 0003:00003100       ?LoadWaveFile@CSimpleSound@@AEAA_NPEBD@Z$rtcFrameData 0000000140033100     Framework:SimpleSound.obj
 0003:00003190       ??1?$_Tree@V?$_Tmap_traits@PEBDPEAUIDirectSoundBuffer8@@U?$less@PEBD@std@@V?$allocator@U?$pair@QEBDPEAUIDirectSoundBuffer8@@@std@@@3@$0A@@std@@@std@@QEAA@XZ$rtcName$0 0000000140033190     Framework:SimpleSound.obj
 0003:000031a0       ??1?$_Tree@V?$_Tmap_traits@PEBDPEAUIDirectSoundBuffer8@@U?$less@PEBD@std@@V?$allocator@U?$pair@QEBDPEAUIDirectSoundBuffer8@@@std@@@3@$0A@@std@@@std@@QEAA@XZ$rtcVarDesc 00000001400331a0     Framework:SimpleSound.obj
 0003:000031e0       ??1?$_Tree@V?$_Tmap_traits@PEBDPEAUIDirectSoundBuffer8@@U?$less@PEBD@std@@V?$allocator@U?$pair@QEBDPEAUIDirectSoundBuffer8@@@std@@@3@$0A@@std@@@std@@QEAA@XZ$rtcFrameData 00000001400331e0     Framework:SimpleSound.obj
 0003:00003210       ?_Alloc_sentinel_and_proxy@?$_Tree@V?$_Tmap_traits@PEBDPEAUIDirectSoundBuffer8@@U?$less@PEBD@std@@V?$allocator@U?$pair@QEBDPEAUIDirectSoundBuffer8@@@std@@@3@$0A@@std@@@std@@IEAAXXZ$rtcName$0 0000000140033210     Framework:SimpleSound.obj
 0003:00003214       ?_Alloc_sentinel_and_proxy@?$_Tree@V?$_Tmap_traits@PEBDPEAUIDirectSoundBuffer8@@U?$less@PEBD@std@@V?$allocator@U?$pair@QEBDPEAUIDirectSoundBuffer8@@@std@@@3@$0A@@std@@@std@@IEAAXXZ$rtcName$1 0000000140033214     Framework:SimpleSound.obj
 0003:00003220       ?_Alloc_sentinel_and_proxy@?$_Tree@V?$_Tmap_traits@PEBDPEAUIDirectSoundBuffer8@@U?$less@PEBD@std@@V?$allocator@U?$pair@QEBDPEAUIDirectSoundBuffer8@@@std@@@3@$0A@@std@@@std@@IEAAXXZ$rtcVarDesc 0000000140033220     Framework:SimpleSound.obj
 0003:000032a0       ?_Alloc_sentinel_and_proxy@?$_Tree@V?$_Tmap_traits@PEBDPEAUIDirectSoundBuffer8@@U?$less@PEBD@std@@V?$allocator@U?$pair@QEBDPEAUIDirectSoundBuffer8@@@std@@@3@$0A@@std@@@std@@IEAAXXZ$rtcFrameData 00000001400332a0     Framework:SimpleSound.obj
 0003:000032d0       ?_Orphan_ptr@?$_Tree_val@U?$_Tree_simple_types@U?$pair@QEBDPEAUIDirectSoundBuffer8@@@std@@@std@@@std@@QEAAXQEAU?$_Tree_node@U?$pair@QEBDPEAUIDirectSoundBuffer8@@@std@@PEAX@2@@Z$rtcName$0 00000001400332d0     Framework:SimpleSound.obj
 0003:000032e0       ?_Orphan_ptr@?$_Tree_val@U?$_Tree_simple_types@U?$pair@QEBDPEAUIDirectSoundBuffer8@@@std@@@std@@@std@@QEAAXQEAU?$_Tree_node@U?$pair@QEBDPEAUIDirectSoundBuffer8@@@std@@PEAX@2@@Z$rtcVarDesc 00000001400332e0     Framework:SimpleSound.obj
 0003:00003320       ?_Orphan_ptr@?$_Tree_val@U?$_Tree_simple_types@U?$pair@QEBDPEAUIDirectSoundBuffer8@@@std@@@std@@@std@@QEAAXQEAU?$_Tree_node@U?$pair@QEBDPEAUIDirectSoundBuffer8@@@std@@PEAX@2@@Z$rtcFrameData 0000000140033320     Framework:SimpleSound.obj
 0003:00003350       ??$_Try_emplace@AEBQEBD$$V@?$map@PEBDPEAUIDirectSoundBuffer8@@U?$less@PEBD@std@@V?$allocator@U?$pair@QEBDPEAUIDirectSoundBuffer8@@@std@@@3@@std@@AEAA?AU?$pair@PEAU?$_Tree_node@U?$pair@QEBDPEAUIDirectSoundBuffer8@@@std@@PEAX@std@@_N@1@AEBQEBD@Z$rtcName$0 0000000140033350     Framework:SimpleSound.obj
 0003:00003360       ??$_Try_emplace@AEBQEBD$$V@?$map@PEBDPEAUIDirectSoundBuffer8@@U?$less@PEBD@std@@V?$allocator@U?$pair@QEBDPEAUIDirectSoundBuffer8@@@std@@@3@@std@@AEAA?AU?$pair@PEAU?$_Tree_node@U?$pair@QEBDPEAUIDirectSoundBuffer8@@@std@@PEAX@std@@_N@1@AEBQEBD@Z$rtcVarDesc 0000000140033360     Framework:SimpleSound.obj
 0003:000033a0       ??$_Try_emplace@AEBQEBD$$V@?$map@PEBDPEAUIDirectSoundBuffer8@@U?$less@PEBD@std@@V?$allocator@U?$pair@QEBDPEAUIDirectSoundBuffer8@@@std@@@3@@std@@AEAA?AU?$pair@PEAU?$_Tree_node@U?$pair@QEBDPEAUIDirectSoundBuffer8@@@std@@PEAX@std@@_N@1@AEBQEBD@Z$rtcFrameData 00000001400333a0     Framework:SimpleSound.obj
 0003:000033d0       ??$_Buyheadnode@V?$allocator@U?$_Tree_node@U?$pair@QEBDPEAUIDirectSoundBuffer8@@@std@@PEAX@std@@@std@@@?$_Tree_node@U?$pair@QEBDPEAUIDirectSoundBuffer8@@@std@@PEAX@std@@SAPEAU01@AEAV?$allocator@U?$_Tree_node@U?$pair@QEBDPEAUIDirectSoundBuffer8@@@std@@PEAX@std@@@1@@Z$rtcName$0 00000001400333d0     Framework:SimpleSound.obj
 0003:000033e0       ??$_Buyheadnode@V?$allocator@U?$_Tree_node@U?$pair@QEBDPEAUIDirectSoundBuffer8@@@std@@PEAX@std@@@std@@@?$_Tree_node@U?$pair@QEBDPEAUIDirectSoundBuffer8@@@std@@PEAX@std@@SAPEAU01@AEAV?$allocator@U?$_Tree_node@U?$pair@QEBDPEAUIDirectSoundBuffer8@@@std@@PEAX@std@@@1@@Z$rtcVarDesc 00000001400333e0     Framework:SimpleSound.obj
 0003:00003420       ??$_Buyheadnode@V?$allocator@U?$_Tree_node@U?$pair@QEBDPEAUIDirectSoundBuffer8@@@std@@PEAX@std@@@std@@@?$_Tree_node@U?$pair@QEBDPEAUIDirectSoundBuffer8@@@std@@PEAX@std@@SAPEAU01@AEAV?$allocator@U?$_Tree_node@U?$pair@QEBDPEAUIDirectSoundBuffer8@@@std@@PEAX@std@@@1@@Z$rtcFrameData 0000000140033420     Framework:SimpleSound.obj
 0003:00003450       ??$_Find_lower_bound@PEBD@?$_Tree@V?$_Tmap_traits@PEBDPEAUIDirectSoundBuffer8@@U?$less@PEBD@std@@V?$allocator@U?$pair@QEBDPEAUIDirectSoundBuffer8@@@std@@@3@$0A@@std@@@std@@IEBA?AU?$_Tree_find_result@PEAU?$_Tree_node@U?$pair@QEBDPEAUIDirectSoundBuffer8@@@std@@PEAX@std@@@1@AEBQEBD@Z$rtcName$0 0000000140033450     Framework:SimpleSound.obj
 0003:00003460       ??$_Find_lower_bound@PEBD@?$_Tree@V?$_Tmap_traits@PEBDPEAUIDirectSoundBuffer8@@U?$less@PEBD@std@@V?$allocator@U?$pair@QEBDPEAUIDirectSoundBuffer8@@@std@@@3@$0A@@std@@@std@@IEBA?AU?$_Tree_find_result@PEAU?$_Tree_node@U?$pair@QEBDPEAUIDirectSoundBuffer8@@@std@@PEAX@std@@@1@AEBQEBD@Z$rtcVarDesc 0000000140033460     Framework:SimpleSound.obj
 0003:000034a0       ??$_Find_lower_bound@PEBD@?$_Tree@V?$_Tmap_traits@PEBDPEAUIDirectSoundBuffer8@@U?$less@PEBD@std@@V?$allocator@U?$pair@QEBDPEAUIDirectSoundBuffer8@@@std@@@3@$0A@@std@@@std@@IEBA?AU?$_Tree_find_result@PEAU?$_Tree_node@U?$pair@QEBDPEAUIDirectSoundBuffer8@@@std@@PEAX@std@@@1@AEBQEBD@Z$rtcFrameData 00000001400334a0     Framework:SimpleSound.obj
 0003:000034d0       ?loadBMPRaw@@YAPEAEPEBDAEAI1_N@Z$rtcName$0 00000001400334d0     Framework:TextureLoader.obj
 0003:000034e0       ?loadBMPRaw@@YAPEAEPEBDAEAI1_N@Z$rtcVarDesc 00000001400334e0     Framework:TextureLoader.obj
 0003:00003520       ?loadBMPRaw@@YAPEAEPEBDAEAI1_N@Z$rtcFrameData 0000000140033520     Framework:TextureLoader.obj
 0003:00008380       ?_RTC_errlist@@3QBQEBDB    0000000140038380     MSVCRTD:userapi.obj
 0003:000084a0       ?_RTC_ErrorMessages@@3QBQEBDB 00000001400384a0     MSVCRTD:error.obj
 0003:000084d0       ?_RTC_NoFalsePositives@@3QBHB 00000001400384d0     MSVCRTD:error.obj
 0003:000084e8       ?stack_premsg@@3QBDB       00000001400384e8     MSVCRTD:error.obj
 0003:00008508       ?stack_postmsg@@3QBDB      0000000140038508     MSVCRTD:error.obj
 0003:00008520       ?uninit_premsg@@3QBDB      0000000140038520     MSVCRTD:error.obj
 0003:00008530       ?uninit_postmsg@@3QBDB     0000000140038530     MSVCRTD:error.obj
 0003:00008ba8       GS_ExceptionPointers       0000000140038ba8     MSVCRTD:gs_report.obj
 0003:00008bc0       ?mspdbName@@3QB_WB         0000000140038bc0     MSVCRTD:pdblkup.obj
 0003:00008bf0       ?debugCrtFileName@@3QB_WB  0000000140038bf0     MSVCRTD:pdblkup.obj
 0003:00008d90       ?dllExt@?1??GetPdbDllPathFromFilePath@@YAHPEB_WPEA_W_K@Z@4QB_WB 0000000140038d90     MSVCRTD:pdblkup.obj
 0003:00008da0       ?mspdbFilename@?1??GetPdbDllPathFromFilePath@@YAHPEB_WPEA_W_K@Z@4QB_WB 0000000140038da0     MSVCRTD:pdblkup.obj
 0003:00009c40       _RTC_InitBase.rtc$IMZ      0000000140039c40     AABB.obj
 0003:00009c50       _RTC_InitBase.rtc$IMZ      0000000140039c50     Door.obj
 0003:00009c60       _RTC_InitBase.rtc$IMZ      0000000140039c60     GameTest.obj
 0003:00009c70       _RTC_InitBase.rtc$IMZ      0000000140039c70     LaserWall.obj
 0003:00009c80       _RTC_InitBase.rtc$IMZ      0000000140039c80     MainCharacter.obj
 0003:00009c90       _RTC_InitBase.rtc$IMZ      0000000140039c90     Framework:main.obj
 0003:00009ca0       _RTC_InitBase.rtc$IMZ      0000000140039ca0     Framework:app.obj
 0003:00009cb0       _RTC_InitBase.rtc$IMZ      0000000140039cb0     Framework:SimpleSprite.obj
 0003:00009cc0       _RTC_InitBase.rtc$IMZ      0000000140039cc0     Framework:SimpleController.obj
 0003:00009cd0       _RTC_InitBase.rtc$IMZ      0000000140039cd0     Framework:SimpleSound.obj
 0003:00009ce0       _RTC_InitBase.rtc$IMZ      0000000140039ce0     Framework:TextureLoader.obj
 0003:0000a020       _RTC_Shutdown.rtc$TMZ      000000014003a020     AABB.obj
 0003:0000a030       _RTC_Shutdown.rtc$TMZ      000000014003a030     Door.obj
 0003:0000a040       _RTC_Shutdown.rtc$TMZ      000000014003a040     GameTest.obj
 0003:0000a050       _RTC_Shutdown.rtc$TMZ      000000014003a050     LaserWall.obj
 0003:0000a060       _RTC_Shutdown.rtc$TMZ      000000014003a060     MainCharacter.obj
 0003:0000a070       _RTC_Shutdown.rtc$TMZ      000000014003a070     Framework:main.obj
 0003:0000a080       _RTC_Shutdown.rtc$TMZ      000000014003a080     Framework:app.obj
 0003:0000a090       _RTC_Shutdown.rtc$TMZ      000000014003a090     Framework:SimpleSprite.obj
 0003:0000a0a0       _RTC_Shutdown.rtc$TMZ      000000014003a0a0     Framework:SimpleController.obj
 0003:0000a0b0       _RTC_Shutdown.rtc$TMZ      000000014003a0b0     Framework:SimpleSound.obj
 0003:0000a0c0       _RTC_Shutdown.rtc$TMZ      000000014003a0c0     Framework:TextureLoader.obj
 0003:0000a2f0       $unwind$?areColliding@@YA_NAEBUAABB@@0@Z 000000014003a2f0     AABB.obj
 0003:0000a304       $unwind$??0Door@@QEAA@MMMM@Z 000000014003a304     Door.obj
 0003:0000a318       $unwind$??1Door@@QEAA@XZ   000000014003a318     Door.obj
 0003:0000a332       $cppxdata$??1Door@@QEAA@XZ 000000014003a332     Door.obj
 0003:0000a337       $ip2state$??1Door@@QEAA@XZ 000000014003a337     Door.obj
 0003:0000a33c       $unwind$?Update@Door@@QEAAXM@Z 000000014003a33c     Door.obj
 0003:0000a350       $unwind$?Render@Door@@QEAAXXZ 000000014003a350     Door.obj
 0003:0000a364       $unwind$?StartEndGame@Door@@QEAAXXZ 000000014003a364     Door.obj
 0003:0000a378       $unwind$?IsInside@Door@@QEAA_NMM@Z 000000014003a378     Door.obj
 0003:0000a38c       $unwind$?CheckButton@CController@@QEBA_NH_N@Z 000000014003a38c     GameTest.obj
 0003:0000a3a0       $unwind$??2@YAPEAX_KPEAX@Z 000000014003a3a0     GameTest.obj
 0003:0000a3ba       $cppxdata$??2@YAPEAX_KPEAX@Z 000000014003a3ba     GameTest.obj
 0003:0000a3bf       $ip2state$??2@YAPEAX_KPEAX@Z 000000014003a3bf     GameTest.obj
 0003:0000a3c4       $unwind$??0exception@std@@QEAA@QEBDH@Z 000000014003a3c4     GameTest.obj
 0003:0000a3de       $cppxdata$??0exception@std@@QEAA@QEBDH@Z 000000014003a3de     GameTest.obj
 0003:0000a3e3       $ip2state$??0exception@std@@QEAA@QEBDH@Z 000000014003a3e3     GameTest.obj
 0003:0000a3e8       $unwind$??0exception@std@@QEAA@AEBV01@@Z 000000014003a3e8     GameTest.obj
 0003:0000a402       $cppxdata$??0exception@std@@QEAA@AEBV01@@Z 000000014003a402     GameTest.obj
 0003:0000a407       $ip2state$??0exception@std@@QEAA@AEBV01@@Z 000000014003a407     GameTest.obj
 0003:0000a40c       $unwind$??1exception@std@@UEAA@XZ 000000014003a40c     GameTest.obj
 0003:0000a426       $cppxdata$??1exception@std@@UEAA@XZ 000000014003a426     GameTest.obj
 0003:0000a42b       $ip2state$??1exception@std@@UEAA@XZ 000000014003a42b     GameTest.obj
 0003:0000a430       $unwind$?what@exception@std@@UEBAPEBDXZ 000000014003a430     GameTest.obj
 0003:0000a444       $unwind$??_Gexception@std@@UEAAPEAXI@Z 000000014003a444     GameTest.obj
 0003:0000a458       $unwind$??0bad_alloc@std@@AEAA@QEBD@Z 000000014003a458     GameTest.obj
 0003:0000a472       $cppxdata$??0bad_alloc@std@@AEAA@QEBD@Z 000000014003a472     GameTest.obj
 0003:0000a477       $ip2state$??0bad_alloc@std@@AEAA@QEBD@Z 000000014003a477     GameTest.obj
 0003:0000a47c       $unwind$??1bad_alloc@std@@UEAA@XZ 000000014003a47c     GameTest.obj
 0003:0000a490       $unwind$??0bad_alloc@std@@QEAA@AEBV01@@Z 000000014003a490     GameTest.obj
 0003:0000a4a4       $unwind$??_Gbad_alloc@std@@UEAAPEAXI@Z 000000014003a4a4     GameTest.obj
 0003:0000a4b8       $unwind$??0bad_array_new_length@std@@QEAA@XZ 000000014003a4b8     GameTest.obj
 0003:0000a4d2       $cppxdata$??0bad_array_new_length@std@@QEAA@XZ 000000014003a4d2     GameTest.obj
 0003:0000a4d7       $ip2state$??0bad_array_new_length@std@@QEAA@XZ 000000014003a4d7     GameTest.obj
 0003:0000a4dc       $unwind$??1bad_array_new_length@std@@UEAA@XZ 000000014003a4dc     GameTest.obj
 0003:0000a4f0       $unwind$??0bad_array_new_length@std@@QEAA@AEBV01@@Z 000000014003a4f0     GameTest.obj
 0003:0000a504       $unwind$??_Gbad_array_new_length@std@@UEAAPEAXI@Z 000000014003a504     GameTest.obj
 0003:0000a518       $unwind$?_Throw_bad_array_new_length@std@@YAXXZ 000000014003a518     GameTest.obj
 0003:0000a52c       $unwind$?max@?$numeric_limits@_J@std@@SA_JXZ 000000014003a52c     GameTest.obj
 0003:0000a546       $cppxdata$?max@?$numeric_limits@_J@std@@SA_JXZ 000000014003a546     GameTest.obj
 0003:0000a54b       $ip2state$?max@?$numeric_limits@_J@std@@SA_JXZ 000000014003a54b     GameTest.obj
 0003:0000a550       $unwind$?_Allocate@_Default_allocate_traits@std@@SAPEAX_K@Z 000000014003a550     GameTest.obj
 0003:0000a564       $unwind$?_Adjust_manually_vector_aligned@std@@YAXAEAPEAXAEA_K@Z 000000014003a564     GameTest.obj
 0003:0000a578       $unwind$??0_Container_proxy@std@@QEAA@PEAU_Container_base12@1@@Z 000000014003a578     GameTest.obj
 0003:0000a592       $cppxdata$??0_Container_proxy@std@@QEAA@PEAU_Container_base12@1@@Z 000000014003a592     GameTest.obj
 0003:0000a597       $ip2state$??0_Container_proxy@std@@QEAA@PEAU_Container_base12@1@@Z 000000014003a597     GameTest.obj
 0003:0000a59c       $unwind$??0_Container_base12@std@@QEAA@XZ 000000014003a59c     GameTest.obj
 0003:0000a5b0       $unwind$?_Orphan_all@_Container_base12@std@@QEAAXXZ 000000014003a5b0     GameTest.obj
 0003:0000a5ce       $cppxdata$?_Orphan_all@_Container_base12@std@@QEAAXXZ 000000014003a5ce     GameTest.obj
 0003:0000a5d3       $ip2state$?_Orphan_all@_Container_base12@std@@QEAAXXZ 000000014003a5d3     GameTest.obj
 0003:0000a5d8       $unwind$?GetAABB@MainCharacter@@QEBAAEBUAABB@@XZ 000000014003a5d8     GameTest.obj
 0003:0000a5ec       $unwind$?__autoclassinit2@MainCharacter@@QEAAX_K@Z 000000014003a5ec     GameTest.obj
 0003:0000a600       $unwind$??_GMainCharacter@@QEAAPEAXI@Z 000000014003a600     GameTest.obj
 0003:0000a614       $unwind$?GetAABB@Door@@QEBAAEBUAABB@@XZ 000000014003a614     GameTest.obj
 0003:0000a628       $unwind$??_GDoor@@QEAAPEAXI@Z 000000014003a628     GameTest.obj
 0003:0000a63c       $unwind$??1LaserWall@@QEAA@XZ 000000014003a63c     GameTest.obj
 0003:0000a656       $cppxdata$??1LaserWall@@QEAA@XZ 000000014003a656     GameTest.obj
 0003:0000a65b       $ip2state$??1LaserWall@@QEAA@XZ 000000014003a65b     GameTest.obj
 0003:0000a660       $unwind$?GetAABB@LaserWall@@QEBAAEBUAABB@@XZ 000000014003a660     GameTest.obj
 0003:0000a674       $unwind$??_GLaserWall@@QEAAPEAXI@Z 000000014003a674     GameTest.obj
 0003:0000a688       $unwind$??0?$allocator@VLaserWall@@@std@@QEAA@XZ 000000014003a688     GameTest.obj
 0003:0000a6a2       $cppxdata$??0?$allocator@VLaserWall@@@std@@QEAA@XZ 000000014003a6a2     GameTest.obj
 0003:0000a6a7       $ip2state$??0?$allocator@VLaserWall@@@std@@QEAA@XZ 000000014003a6a7     GameTest.obj
 0003:0000a6ac       $unwind$?deallocate@?$allocator@VLaserWall@@@std@@QEAAXQEAVLaserWall@@_K@Z 000000014003a6ac     GameTest.obj
 0003:0000a6c0       $unwind$?allocate@?$allocator@VLaserWall@@@std@@QEAAPEAVLaserWall@@_K@Z 000000014003a6c0     GameTest.obj
 0003:0000a6d4       $unwind$?max_size@?$_Default_allocator_traits@V?$allocator@VLaserWall@@@std@@@std@@SA_KAEBV?$allocator@VLaserWall@@@2@@Z 000000014003a6d4     GameTest.obj
 0003:0000a6ee       $cppxdata$?max_size@?$_Default_allocator_traits@V?$allocator@VLaserWall@@@std@@@std@@SA_KAEBV?$allocator@VLaserWall@@@2@@Z 000000014003a6ee     GameTest.obj
 0003:0000a6f3       $ip2state$?max_size@?$_Default_allocator_traits@V?$allocator@VLaserWall@@@std@@@std@@SA_KAEBV?$allocator@VLaserWall@@@2@@Z 000000014003a6f3     GameTest.obj
 0003:0000a6f8       $unwind$??0?$vector@VLaserWall@@V?$allocator@VLaserWall@@@std@@@std@@QEAA@XZ 000000014003a6f8     GameTest.obj
 0003:0000a712       $cppxdata$??0?$vector@VLaserWall@@V?$allocator@VLaserWall@@@std@@@std@@QEAA@XZ 000000014003a712     GameTest.obj
 0003:0000a717       $ip2state$??0?$vector@VLaserWall@@V?$allocator@VLaserWall@@@std@@@std@@QEAA@XZ 000000014003a717     GameTest.obj
 0003:0000a71c       $unwind$??1?$vector@VLaserWall@@V?$allocator@VLaserWall@@@std@@@std@@QEAA@XZ 000000014003a71c     GameTest.obj
 0003:0000a73a       $cppxdata$??1?$vector@VLaserWall@@V?$allocator@VLaserWall@@@std@@@std@@QEAA@XZ 000000014003a73a     GameTest.obj
 0003:0000a73f       $ip2state$??1?$vector@VLaserWall@@V?$allocator@VLaserWall@@@std@@@std@@QEAA@XZ 000000014003a73f     GameTest.obj
 0003:0000a744       $unwind$?push_back@?$vector@VLaserWall@@V?$allocator@VLaserWall@@@std@@@std@@QEAAXAEBVLaserWall@@@Z 000000014003a744     GameTest.obj
 0003:0000a758       $unwind$?_Unchecked_begin@?$vector@VLaserWall@@V?$allocator@VLaserWall@@@std@@@std@@QEAAPEAVLaserWall@@XZ 000000014003a758     GameTest.obj
 0003:0000a772       $cppxdata$?_Unchecked_begin@?$vector@VLaserWall@@V?$allocator@VLaserWall@@@std@@@std@@QEAAPEAVLaserWall@@XZ 000000014003a772     GameTest.obj
 0003:0000a777       $ip2state$?_Unchecked_begin@?$vector@VLaserWall@@V?$allocator@VLaserWall@@@std@@@std@@QEAAPEAVLaserWall@@XZ 000000014003a777     GameTest.obj
 0003:0000a77c       $unwind$?_Unchecked_end@?$vector@VLaserWall@@V?$allocator@VLaserWall@@@std@@@std@@QEAAPEAVLaserWall@@XZ 000000014003a77c     GameTest.obj
 0003:0000a796       $cppxdata$?_Unchecked_end@?$vector@VLaserWall@@V?$allocator@VLaserWall@@@std@@@std@@QEAAPEAVLaserWall@@XZ 000000014003a796     GameTest.obj
 0003:0000a79b       $ip2state$?_Unchecked_end@?$vector@VLaserWall@@V?$allocator@VLaserWall@@@std@@@std@@QEAAPEAVLaserWall@@XZ 000000014003a79b     GameTest.obj
 0003:0000a7a0       $unwind$?max_size@?$vector@VLaserWall@@V?$allocator@VLaserWall@@@std@@@std@@QEBA_KXZ 000000014003a7a0     GameTest.obj
 0003:0000a7ba       $cppxdata$?max_size@?$vector@VLaserWall@@V?$allocator@VLaserWall@@@std@@@std@@QEBA_KXZ 000000014003a7ba     GameTest.obj
 0003:0000a7bf       $ip2state$?max_size@?$vector@VLaserWall@@V?$allocator@VLaserWall@@@std@@@std@@QEBA_KXZ 000000014003a7bf     GameTest.obj
 0003:0000a7c4       $unwind$?capacity@?$vector@VLaserWall@@V?$allocator@VLaserWall@@@std@@@std@@QEBA_KXZ 000000014003a7c4     GameTest.obj
 0003:0000a7de       $cppxdata$?capacity@?$vector@VLaserWall@@V?$allocator@VLaserWall@@@std@@@std@@QEBA_KXZ 000000014003a7de     GameTest.obj
 0003:0000a7e3       $ip2state$?capacity@?$vector@VLaserWall@@V?$allocator@VLaserWall@@@std@@@std@@QEBA_KXZ 000000014003a7e3     GameTest.obj
 0003:0000a7e8       $unwind$?_Umove@?$vector@VLaserWall@@V?$allocator@VLaserWall@@@std@@@std@@AEAAPEAVLaserWall@@PEAV3@00@Z 000000014003a7e8     GameTest.obj
 0003:0000a7fc       $unwind$?_Umove_if_noexcept1@?$vector@VLaserWall@@V?$allocator@VLaserWall@@@std@@@std@@AEAAXPEAVLaserWall@@00U?$integral_constant@_N$00@2@@Z 000000014003a7fc     GameTest.obj
 0003:0000a810       $unwind$?_Umove_if_noexcept@?$vector@VLaserWall@@V?$allocator@VLaserWall@@@std@@@std@@AEAAXPEAVLaserWall@@00@Z 000000014003a810     GameTest.obj
 0003:0000a824       $unwind$?_Destroy@?$vector@VLaserWall@@V?$allocator@VLaserWall@@@std@@@std@@AEAAXPEAVLaserWall@@0@Z 000000014003a824     GameTest.obj
 0003:0000a838       $unwind$?_Calculate_growth@?$vector@VLaserWall@@V?$allocator@VLaserWall@@@std@@@std@@AEBA_K_K@Z 000000014003a838     GameTest.obj
 0003:0000a84c       $unwind$?_Change_array@?$vector@VLaserWall@@V?$allocator@VLaserWall@@@std@@@std@@AEAAXQEAVLaserWall@@_K1@Z 000000014003a84c     GameTest.obj
 0003:0000a860       $unwind$?_Tidy@?$vector@VLaserWall@@V?$allocator@VLaserWall@@@std@@@std@@AEAAXXZ 000000014003a860     GameTest.obj
 0003:0000a87a       $cppxdata$?_Tidy@?$vector@VLaserWall@@V?$allocator@VLaserWall@@@std@@@std@@AEAAXXZ 000000014003a87a     GameTest.obj
 0003:0000a87f       $ip2state$?_Tidy@?$vector@VLaserWall@@V?$allocator@VLaserWall@@@std@@@std@@AEAAXXZ 000000014003a87f     GameTest.obj
 0003:0000a884       $unwind$?_Xlength@?$vector@VLaserWall@@V?$allocator@VLaserWall@@@std@@@std@@CAXXZ 000000014003a884     GameTest.obj
 0003:0000a898       $unwind$?_Orphan_range@?$vector@VLaserWall@@V?$allocator@VLaserWall@@@std@@@std@@AEBAXPEAVLaserWall@@0@Z 000000014003a898     GameTest.obj
 0003:0000a8b4       $unwind$?_Getal@?$vector@VLaserWall@@V?$allocator@VLaserWall@@@std@@@std@@AEAAAEAV?$allocator@VLaserWall@@@2@XZ 000000014003a8b4     GameTest.obj
 0003:0000a8ce       $cppxdata$?_Getal@?$vector@VLaserWall@@V?$allocator@VLaserWall@@@std@@@std@@AEAAAEAV?$allocator@VLaserWall@@@2@XZ 000000014003a8ce     GameTest.obj
 0003:0000a8d3       $ip2state$?_Getal@?$vector@VLaserWall@@V?$allocator@VLaserWall@@@std@@@std@@AEAAAEAV?$allocator@VLaserWall@@@2@XZ 000000014003a8d3     GameTest.obj
 0003:0000a8d8       $unwind$?_Getal@?$vector@VLaserWall@@V?$allocator@VLaserWall@@@std@@@std@@AEBAAEBV?$allocator@VLaserWall@@@2@XZ 000000014003a8d8     GameTest.obj
 0003:0000a8f2       $cppxdata$?_Getal@?$vector@VLaserWall@@V?$allocator@VLaserWall@@@std@@@std@@AEBAAEBV?$allocator@VLaserWall@@@2@XZ 000000014003a8f2     GameTest.obj
 0003:0000a8f7       $ip2state$?_Getal@?$vector@VLaserWall@@V?$allocator@VLaserWall@@@std@@@std@@AEBAAEBV?$allocator@VLaserWall@@@2@XZ 000000014003a8f7     GameTest.obj
 0003:0000a8fc       $unwind$??0?$_Vector_val@U?$_Simple_types@VLaserWall@@@std@@@std@@QEAA@XZ 000000014003a8fc     GameTest.obj
 0003:0000a910       $unwind$?_Get_first@?$_Compressed_pair@V?$allocator@VLaserWall@@@std@@V?$_Vector_val@U?$_Simple_types@VLaserWall@@@std@@@2@$00@std@@QEAAAEAV?$allocator@VLaserWall@@@2@XZ 000000014003a910     GameTest.obj
 0003:0000a92a       $cppxdata$?_Get_first@?$_Compressed_pair@V?$allocator@VLaserWall@@@std@@V?$_Vector_val@U?$_Simple_types@VLaserWall@@@std@@@2@$00@std@@QEAAAEAV?$allocator@VLaserWall@@@2@XZ 000000014003a92a     GameTest.obj
 0003:0000a92f       $ip2state$?_Get_first@?$_Compressed_pair@V?$allocator@VLaserWall@@@std@@V?$_Vector_val@U?$_Simple_types@VLaserWall@@@std@@@2@$00@std@@QEAAAEAV?$allocator@VLaserWall@@@2@XZ 000000014003a92f     GameTest.obj
 0003:0000a934       $unwind$?_Get_first@?$_Compressed_pair@V?$allocator@VLaserWall@@@std@@V?$_Vector_val@U?$_Simple_types@VLaserWall@@@std@@@2@$00@std@@QEBAAEBV?$allocator@VLaserWall@@@2@XZ 000000014003a934     GameTest.obj
 0003:0000a94e       $cppxdata$?_Get_first@?$_Compressed_pair@V?$allocator@VLaserWall@@@std@@V?$_Vector_val@U?$_Simple_types@VLaserWall@@@std@@@2@$00@std@@QEBAAEBV?$allocator@VLaserWall@@@2@XZ 000000014003a94e     GameTest.obj
 0003:0000a953       $ip2state$?_Get_first@?$_Compressed_pair@V?$allocator@VLaserWall@@@std@@V?$_Vector_val@U?$_Simple_types@VLaserWall@@@std@@@2@$00@std@@QEBAAEBV?$allocator@VLaserWall@@@2@XZ 000000014003a953     GameTest.obj
 0003:0000a958       $unwind$?__autoclassinit2@?$vector@VLaserWall@@V?$allocator@VLaserWall@@@std@@@std@@QEAAX_K@Z 000000014003a958     GameTest.obj
 0003:0000a96c       $unwind$??__EwallList@@YAXXZ 000000014003a96c     GameTest.obj
 0003:0000a980       $unwind$??__FwallList@@YAXXZ 000000014003a980     GameTest.obj
 0003:0000a994       $unwind$?Init@@YAXXZ       000000014003a994     GameTest.obj
 0003:0000a9b2       $cppxdata$?Init@@YAXXZ     000000014003a9b2     GameTest.obj
 0003:0000a9bb       $stateUnwindMap$?Init@@YAXXZ 000000014003a9bb     GameTest.obj
 0003:0000a9e8       $ip2state$?Init@@YAXXZ     000000014003a9e8     GameTest.obj
 0003:0000aa10       $unwind$?dtor$0@?0??Init@@YAXXZ@4HA 000000014003aa10     GameTest.obj
 0003:0000aa20       $unwind$?dtor$1@?0??Init@@YAXXZ@4HA 000000014003aa20     GameTest.obj
 0003:0000aa30       $unwind$?dtor$2@?0??Init@@YAXXZ@4HA 000000014003aa30     GameTest.obj
 0003:0000aa40       $unwind$?dtor$3@?0??Init@@YAXXZ@4HA 000000014003aa40     GameTest.obj
 0003:0000aa50       $unwind$?dtor$4@?0??Init@@YAXXZ@4HA 000000014003aa50     GameTest.obj
 0003:0000aa60       $unwind$?dtor$5@?0??Init@@YAXXZ@4HA 000000014003aa60     GameTest.obj
 0003:0000aa70       $unwind$?dtor$6@?0??Init@@YAXXZ@4HA 000000014003aa70     GameTest.obj
 0003:0000aa80       $unwind$?dtor$7@?0??Init@@YAXXZ@4HA 000000014003aa80     GameTest.obj
 0003:0000aa90       $unwind$?StartEndGame@@YAXXZ 000000014003aa90     GameTest.obj
 0003:0000aaa4       $unwind$?Update@@YAXM@Z    000000014003aaa4     GameTest.obj
 0003:0000aac2       $cppxdata$?Update@@YAXM@Z  000000014003aac2     GameTest.obj
 0003:0000aacb       $stateUnwindMap$?Update@@YAXM@Z 000000014003aacb     GameTest.obj
 0003:0000aad1       $ip2state$?Update@@YAXM@Z  000000014003aad1     GameTest.obj
 0003:0000aadc       $unwind$?dtor$0@?0??Update@@YAXM@Z@4HA 000000014003aadc     GameTest.obj
 0003:0000aaec       $unwind$?Render@@YAXXZ     000000014003aaec     GameTest.obj
 0003:0000ab0a       $cppxdata$?Render@@YAXXZ   000000014003ab0a     GameTest.obj
 0003:0000ab13       $stateUnwindMap$?Render@@YAXXZ 000000014003ab13     GameTest.obj
 0003:0000ab19       $ip2state$?Render@@YAXXZ   000000014003ab19     GameTest.obj
 0003:0000ab24       $unwind$?dtor$0@?0??Render@@YAXXZ@4HA 000000014003ab24     GameTest.obj
 0003:0000ab34       $unwind$?Shutdown@@YAXXZ   000000014003ab34     GameTest.obj
 0003:0000ab48       $unwind$??$emplace_back@AEBVLaserWall@@@?$vector@VLaserWall@@V?$allocator@VLaserWall@@@std@@@std@@QEAA@AEBVLaserWall@@@Z 000000014003ab48     GameTest.obj
 0003:0000ab5c       $unwind$??$forward@AEBVLaserWall@@@std@@YAAEBVLaserWall@@AEBV1@@Z 000000014003ab5c     GameTest.obj
 0003:0000ab76       $cppxdata$??$forward@AEBVLaserWall@@@std@@YAAEBVLaserWall@@AEBV1@@Z 000000014003ab76     GameTest.obj
 0003:0000ab7b       $ip2state$??$forward@AEBVLaserWall@@@std@@YAAEBVLaserWall@@AEBV1@@Z 000000014003ab7b     GameTest.obj
 0003:0000ab80       $unwind$??$_Emplace_back_with_unused_capacity@AEBVLaserWall@@@?$vector@VLaserWall@@V?$allocator@VLaserWall@@@std@@@std@@AEAA@AEBVLaserWall@@@Z 000000014003ab80     GameTest.obj
 0003:0000ab94       $unwind$??$_Unfancy@VLaserWall@@@std@@YAPEAVLaserWall@@PEAV1@@Z 000000014003ab94     GameTest.obj
 0003:0000aba8       $unwind$??$construct@VLaserWall@@AEBV1@@?$_Default_allocator_traits@V?$allocator@VLaserWall@@@std@@@std@@SAXAEAV?$allocator@VLaserWall@@@1@QEAVLaserWall@@AEBV3@@Z 000000014003aba8     GameTest.obj
 0003:0000abbc       $unwind$??$_Emplace_reallocate@AEBVLaserWall@@@?$vector@VLaserWall@@V?$allocator@VLaserWall@@@std@@@std@@QEAAPEAVLaserWall@@QEAV2@AEBV2@@Z 000000014003abbc     GameTest.obj
 0003:0000abd6       $cppxdata$??$_Emplace_reallocate@AEBVLaserWall@@@?$vector@VLaserWall@@V?$allocator@VLaserWall@@@std@@@std@@QEAAPEAVLaserWall@@QEAV2@AEBV2@@Z 000000014003abd6     GameTest.obj
 0003:0000abe4       $stateUnwindMap$??$_Emplace_reallocate@AEBVLaserWall@@@?$vector@VLaserWall@@V?$allocator@VLaserWall@@@std@@@std@@QEAAPEAVLaserWall@@QEAV2@AEBV2@@Z 000000014003abe4     GameTest.obj
 0003:0000abe7       $tryMap$??$_Emplace_reallocate@AEBVLaserWall@@@?$vector@VLaserWall@@V?$allocator@VLaserWall@@@std@@@std@@QEAAPEAVLaserWall@@QEAV2@AEBV2@@Z 000000014003abe7     GameTest.obj
 0003:0000abef       $handlerMap$??$_Emplace_reallocate@AEBVLaserWall@@@?$vector@VLaserWall@@V?$allocator@VLaserWall@@@std@@@std@@QEAAPEAVLaserWall@@QEAV2@AEBV2@@Z 000000014003abef     GameTest.obj
 0003:0000abf6       $ip2state$??$_Emplace_reallocate@AEBVLaserWall@@@?$vector@VLaserWall@@V?$allocator@VLaserWall@@@std@@@std@@QEAAPEAVLaserWall@@QEAV2@AEBV2@@Z 000000014003abf6     GameTest.obj
 0003:0000ac00       $unwind$?catch$0@?0???$_Emplace_reallocate@AEBVLaserWall@@@?$vector@VLaserWall@@V?$allocator@VLaserWall@@@std@@@std@@QEAAPEAVLaserWall@@QEAV2@AEBV2@@Z@4HA 000000014003ac00     GameTest.obj
 0003:0000ac10       $unwind$?allocate@?$allocator@U_Container_proxy@std@@@std@@QEAAPEAU_Container_proxy@2@_K@Z 000000014003ac10     GameTest.obj
 0003:0000ac24       $unwind$??$?0VLaserWall@@@?$allocator@U_Container_proxy@std@@@std@@QEAA@AEBV?$allocator@VLaserWall@@@1@@Z 000000014003ac24     GameTest.obj
 0003:0000ac3e       $cppxdata$??$?0VLaserWall@@@?$allocator@U_Container_proxy@std@@@std@@QEAA@AEBV?$allocator@VLaserWall@@@1@@Z 000000014003ac3e     GameTest.obj
 0003:0000ac43       $ip2state$??$?0VLaserWall@@@?$allocator@U_Container_proxy@std@@@std@@QEAA@AEBV?$allocator@VLaserWall@@@1@@Z 000000014003ac43     GameTest.obj
 0003:0000ac48       $unwind$??$exchange@PEAU_Container_proxy@std@@$$T@std@@YAPEAU_Container_proxy@0@AEAPEAU10@$$QEA$$T@Z 000000014003ac48     GameTest.obj
 0003:0000ac5c       $unwind$??$_Delete_plain_internal@V?$allocator@U_Container_proxy@std@@@std@@@std@@YAXAEAV?$allocator@U_Container_proxy@std@@@0@QEAU_Container_proxy@0@@Z 000000014003ac5c     GameTest.obj
 0003:0000ac76       $cppxdata$??$_Delete_plain_internal@V?$allocator@U_Container_proxy@std@@@std@@@std@@YAXAEAV?$allocator@U_Container_proxy@std@@@0@QEAU_Container_proxy@0@@Z 000000014003ac76     GameTest.obj
 0003:0000ac7b       $ip2state$??$_Delete_plain_internal@V?$allocator@U_Container_proxy@std@@@std@@@std@@YAXAEAV?$allocator@U_Container_proxy@std@@@0@QEAU_Container_proxy@0@@Z 000000014003ac7b     GameTest.obj
 0003:0000ac80       $unwind$??$?0$$V@?$_Compressed_pair@V?$allocator@VLaserWall@@@std@@V?$_Vector_val@U?$_Simple_types@VLaserWall@@@std@@@2@$00@std@@QEAA@U_Zero_then_variadic_args_t@1@@Z 000000014003ac80     GameTest.obj
 0003:0000ac94       $unwind$??$_Alloc_proxy@V?$allocator@U_Container_proxy@std@@@std@@@_Container_base12@std@@QEAAX$$QEAV?$allocator@U_Container_proxy@std@@@1@@Z 000000014003ac94     GameTest.obj
 0003:0000aca8       $unwind$??$_Destroy_range@V?$allocator@VLaserWall@@@std@@@std@@YAXPEAVLaserWall@@QEAV1@AEAV?$allocator@VLaserWall@@@0@@Z 000000014003aca8     GameTest.obj
 0003:0000acc2       $cppxdata$??$_Destroy_range@V?$allocator@VLaserWall@@@std@@@std@@YAXPEAVLaserWall@@QEAV1@AEAV?$allocator@VLaserWall@@@0@@Z 000000014003acc2     GameTest.obj
 0003:0000acc7       $ip2state$??$_Destroy_range@V?$allocator@VLaserWall@@@std@@@std@@YAXPEAVLaserWall@@QEAV1@AEAV?$allocator@VLaserWall@@@0@@Z 000000014003acc7     GameTest.obj
 0003:0000accc       $unwind$??$_Deallocate@$0BA@$0A@@std@@YAXPEAX_K@Z 000000014003accc     GameTest.obj
 0003:0000ace6       $cppxdata$??$_Deallocate@$0BA@$0A@@std@@YAXPEAX_K@Z 000000014003ace6     GameTest.obj
 0003:0000aceb       $ip2state$??$_Deallocate@$0BA@$0A@@std@@YAXPEAX_K@Z 000000014003aceb     GameTest.obj
 0003:0000acf0       $unwind$??$_Deallocate_plain@V?$allocator@U_Container_proxy@std@@@std@@@std@@YAXAEAV?$allocator@U_Container_proxy@std@@@0@QEAU_Container_proxy@0@@Z 000000014003acf0     GameTest.obj
 0003:0000ad0a       $cppxdata$??$_Deallocate_plain@V?$allocator@U_Container_proxy@std@@@std@@@std@@YAXAEAV?$allocator@U_Container_proxy@std@@@0@QEAU_Container_proxy@0@@Z 000000014003ad0a     GameTest.obj
 0003:0000ad0f       $ip2state$??$_Deallocate_plain@V?$allocator@U_Container_proxy@std@@@std@@@std@@YAXAEAV?$allocator@U_Container_proxy@std@@@0@QEAU_Container_proxy@0@@Z 000000014003ad0f     GameTest.obj
 0003:0000ad14       $unwind$??$_Unfancy@U_Container_proxy@std@@@std@@YAPEAU_Container_proxy@0@PEAU10@@Z 000000014003ad14     GameTest.obj
 0003:0000ad28       $unwind$??$_Construct_in_place@U_Container_proxy@std@@PEAU_Container_base12@2@@std@@YAXAEAU_Container_proxy@0@$$QEAPEAU_Container_base12@0@@Z 000000014003ad28     GameTest.obj
 0003:0000ad42       $cppxdata$??$_Construct_in_place@U_Container_proxy@std@@PEAU_Container_base12@2@@std@@YAXAEAU_Container_proxy@0@$$QEAPEAU_Container_base12@0@@Z 000000014003ad42     GameTest.obj
 0003:0000ad47       $ip2state$??$_Construct_in_place@U_Container_proxy@std@@PEAU_Container_base12@2@@std@@YAXAEAU_Container_proxy@0@$$QEAPEAU_Container_base12@0@@Z 000000014003ad47     GameTest.obj
 0003:0000ad4c       $unwind$??$destroy@VLaserWall@@@?$_Default_allocator_traits@V?$allocator@VLaserWall@@@std@@@std@@SAXAEAV?$allocator@VLaserWall@@@1@QEAVLaserWall@@@Z 000000014003ad4c     GameTest.obj
 0003:0000ad60       $unwind$??$_Get_size_of_n@$0BA@@std@@YA_K_K@Z 000000014003ad60     GameTest.obj
 0003:0000ad74       $unwind$??$_Allocate@$0BA@U_Default_allocate_traits@std@@$0A@@std@@YAPEAX_K@Z 000000014003ad74     GameTest.obj
 0003:0000ad88       $unwind$??$_Uninitialized_move@PEAVLaserWall@@V?$allocator@VLaserWall@@@std@@@std@@YAPEAVLaserWall@@QEAV1@0PEAV1@AEAV?$allocator@VLaserWall@@@0@@Z 000000014003ad88     GameTest.obj
 0003:0000ada6       $cppxdata$??$_Uninitialized_move@PEAVLaserWall@@V?$allocator@VLaserWall@@@std@@@std@@YAPEAVLaserWall@@QEAV1@0PEAV1@AEAV?$allocator@VLaserWall@@@0@@Z 000000014003ada6     GameTest.obj
 0003:0000adaf       $stateUnwindMap$??$_Uninitialized_move@PEAVLaserWall@@V?$allocator@VLaserWall@@@std@@@std@@YAPEAVLaserWall@@QEAV1@0PEAV1@AEAV?$allocator@VLaserWall@@@0@@Z 000000014003adaf     GameTest.obj
 0003:0000adb5       $ip2state$??$_Uninitialized_move@PEAVLaserWall@@V?$allocator@VLaserWall@@@std@@@std@@YAPEAVLaserWall@@QEAV1@0PEAV1@AEAV?$allocator@VLaserWall@@@0@@Z 000000014003adb5     GameTest.obj
 0003:0000adc0       $unwind$?dtor$0@?0???$_Uninitialized_move@PEAVLaserWall@@V?$allocator@VLaserWall@@@std@@@std@@YAPEAVLaserWall@@QEAV1@0PEAV1@AEAV?$allocator@VLaserWall@@@0@@Z@4HA 000000014003adc0     GameTest.obj
 0003:0000add0       $unwind$??$_Min_value@_K@std@@YAAEB_KAEB_K0@Z 000000014003add0     GameTest.obj
 0003:0000adea       $cppxdata$??$_Min_value@_K@std@@YAAEB_KAEB_K0@Z 000000014003adea     GameTest.obj
 0003:0000adef       $ip2state$??$_Min_value@_K@std@@YAAEB_KAEB_K0@Z 000000014003adef     GameTest.obj
 0003:0000adf4       $unwind$?deallocate@?$_Default_allocator_traits@V?$allocator@U_Container_proxy@std@@@std@@@std@@SAXAEAV?$allocator@U_Container_proxy@std@@@2@QEAU_Container_proxy@2@_K@Z 000000014003adf4     GameTest.obj
 0003:0000ae08       $unwind$??$addressof@U_Container_proxy@std@@@std@@YAPEAU_Container_proxy@0@AEAU10@@Z 000000014003ae08     GameTest.obj
 0003:0000ae22       $cppxdata$??$addressof@U_Container_proxy@std@@@std@@YAPEAU_Container_proxy@0@AEAU10@@Z 000000014003ae22     GameTest.obj
 0003:0000ae27       $ip2state$??$addressof@U_Container_proxy@std@@@std@@YAPEAU_Container_proxy@0@AEAU10@@Z 000000014003ae27     GameTest.obj
 0003:0000ae2c       $unwind$??$forward@PEAU_Container_base12@std@@@std@@YA$$QEAPEAU_Container_base12@0@AEAPEAU10@@Z 000000014003ae2c     GameTest.obj
 0003:0000ae46       $cppxdata$??$forward@PEAU_Container_base12@std@@@std@@YA$$QEAPEAU_Container_base12@0@AEAPEAU10@@Z 000000014003ae46     GameTest.obj
 0003:0000ae4b       $ip2state$??$forward@PEAU_Container_base12@std@@@std@@YA$$QEAPEAU_Container_base12@0@AEAPEAU10@@Z 000000014003ae4b     GameTest.obj
 0003:0000ae50       $unwind$??$_Allocate_manually_vector_aligned@U_Default_allocate_traits@std@@@std@@YAPEAX_K@Z 000000014003ae50     GameTest.obj
 0003:0000ae64       $unwind$??$_Get_unwrapped@VLaserWall@@@std@@YAPEAVLaserWall@@QEAV1@@Z 000000014003ae64     GameTest.obj
 0003:0000ae78       $unwind$??$move@AEAVLaserWall@@@std@@YA$$QEAVLaserWall@@AEAV1@@Z 000000014003ae78     GameTest.obj
 0003:0000ae92       $cppxdata$??$move@AEAVLaserWall@@@std@@YA$$QEAVLaserWall@@AEAV1@@Z 000000014003ae92     GameTest.obj
 0003:0000ae97       $ip2state$??$move@AEAVLaserWall@@@std@@YA$$QEAVLaserWall@@AEAV1@@Z 000000014003ae97     GameTest.obj
 0003:0000ae9c       $unwind$??0?$_Uninitialized_backout_al@V?$allocator@VLaserWall@@@std@@@std@@QEAA@PEAVLaserWall@@AEAV?$allocator@VLaserWall@@@1@@Z 000000014003ae9c     GameTest.obj
 0003:0000aeb0       $unwind$??1?$_Uninitialized_backout_al@V?$allocator@VLaserWall@@@std@@@std@@QEAA@XZ 000000014003aeb0     GameTest.obj
 0003:0000aeca       $cppxdata$??1?$_Uninitialized_backout_al@V?$allocator@VLaserWall@@@std@@@std@@QEAA@XZ 000000014003aeca     GameTest.obj
 0003:0000aecf       $ip2state$??1?$_Uninitialized_backout_al@V?$allocator@VLaserWall@@@std@@@std@@QEAA@XZ 000000014003aecf     GameTest.obj
 0003:0000aed4       $unwind$?_Release@?$_Uninitialized_backout_al@V?$allocator@VLaserWall@@@std@@@std@@QEAAPEAVLaserWall@@XZ 000000014003aed4     GameTest.obj
 0003:0000aee8       $unwind$?__autoclassinit2@?$_Uninitialized_backout_al@V?$allocator@VLaserWall@@@std@@@std@@QEAAX_K@Z 000000014003aee8     GameTest.obj
 0003:0000aefc       $unwind$??$_Emplace_back@VLaserWall@@@?$_Uninitialized_backout_al@V?$allocator@VLaserWall@@@std@@@std@@QEAAX$$QEAVLaserWall@@@Z 000000014003aefc     GameTest.obj
 0003:0000af10       $unwind$??$forward@VLaserWall@@@std@@YA$$QEAVLaserWall@@AEAV1@@Z 000000014003af10     GameTest.obj
 0003:0000af2a       $cppxdata$??$forward@VLaserWall@@@std@@YA$$QEAVLaserWall@@AEAV1@@Z 000000014003af2a     GameTest.obj
 0003:0000af2f       $ip2state$??$forward@VLaserWall@@@std@@YA$$QEAVLaserWall@@AEAV1@@Z 000000014003af2f     GameTest.obj
 0003:0000af34       $unwind$??$construct@VLaserWall@@V1@@?$_Default_allocator_traits@V?$allocator@VLaserWall@@@std@@@std@@SAXAEAV?$allocator@VLaserWall@@@1@QEAVLaserWall@@$$QEAV3@@Z 000000014003af34     GameTest.obj
 0003:0000af48       $unwind$??0LaserWall@@QEAA@MMMM@Z 000000014003af48     LaserWall.obj
 0003:0000af5c       $unwind$?Render@LaserWall@@QEAAXXZ 000000014003af5c     LaserWall.obj
 0003:0000af70       $unwind$??0MainCharacter@@QEAA@XZ 000000014003af70     MainCharacter.obj
 0003:0000af84       $unwind$??1MainCharacter@@QEAA@XZ 000000014003af84     MainCharacter.obj
 0003:0000af9e       $cppxdata$??1MainCharacter@@QEAA@XZ 000000014003af9e     MainCharacter.obj
 0003:0000afa3       $ip2state$??1MainCharacter@@QEAA@XZ 000000014003afa3     MainCharacter.obj
 0003:0000afa8       $unwind$?Update@MainCharacter@@QEAAXM@Z 000000014003afa8     MainCharacter.obj
 0003:0000afc4       $unwind$?Render@MainCharacter@@QEAAXXZ 000000014003afc4     MainCharacter.obj
 0003:0000afd8       $unwind$?DebugRender@MainCharacter@@QEAAXXZ 000000014003afd8     MainCharacter.obj
 0003:0000aff4       $unwind$?StartEndGame@MainCharacter@@QEAAXXZ 000000014003aff4     MainCharacter.obj
 0003:0000b008       $unwind$?GetCenterPos@MainCharacter@@QEAAXAEAM0@Z 000000014003b008     MainCharacter.obj
 0003:0000b01c       $unwind$?UpdateAABB@MainCharacter@@AEAAXXZ 000000014003b01c     MainCharacter.obj
 0003:0000b038       $unwind$?GetLeftThumbStickX@CController@@QEBAMXZ 000000014003b038     MainCharacter.obj
 0003:0000b04c       $unwind$?GetLeftThumbStickY@CController@@QEBAMH@Z 000000014003b04c     MainCharacter.obj
 0003:0000b060       $unwind$?SetPosition@CSimpleSprite@@QEAAXMM@Z 000000014003b060     MainCharacter.obj
 0003:0000b074       $unwind$?SetScale@CSimpleSprite@@QEAAXM@Z 000000014003b074     MainCharacter.obj
 0003:0000b088       $unwind$?GetPosition@CSimpleSprite@@QEAAXAEAM0@Z 000000014003b088     MainCharacter.obj
 0003:0000b09c       $unwind$?GetWidth@CSimpleSprite@@QEBAMXZ 000000014003b09c     MainCharacter.obj
 0003:0000b0b0       $unwind$?GetHeight@CSimpleSprite@@QEBAMXZ 000000014003b0b0     MainCharacter.obj
 0003:0000b0c4       $unwind$?__empty_global_delete@@YAXPEAX@Z 000000014003b0c4     Framework:main.obj
 0003:0000b0d8       $unwind$?__empty_global_delete@@YAXPEAX_K@Z 000000014003b0d8     Framework:main.obj
 0003:0000b0ec       $unwind$__local_stdio_printf_options 000000014003b0ec     Framework:main.obj
 0003:0000b100       $unwind$_vfprintf_l        000000014003b100     Framework:main.obj
 0003:0000b114       $unwind$printf             000000014003b114     Framework:main.obj
 0003:0000b130       $unwind$_vsnprintf_l       000000014003b130     Framework:main.obj
 0003:0000b144       $unwind$_vsprintf_l        000000014003b144     Framework:main.obj
 0003:0000b158       $unwind$sprintf            000000014003b158     Framework:main.obj
 0003:0000b174       $unwind$wWinMain           000000014003b174     Framework:main.obj
 0003:0000b190       $unwind$glutInit_ATEXIT_HACK 000000014003b190     Framework:main.obj
 0003:0000b1a4       $unwind$glutCreateWindow_ATEXIT_HACK 000000014003b1a4     Framework:main.obj
 0003:0000b1b8       $unwind$?StartCounter@@YAXXZ 000000014003b1b8     Framework:main.obj
 0003:0000b1d4       $unwind$?GetCounter@@YANXZ 000000014003b1d4     Framework:main.obj
 0003:0000b1f0       $unwind$??0CProfiler@@QEAA@XZ 000000014003b1f0     Framework:main.obj
 0003:0000b204       $unwind$?Start@CProfiler@@QEAAXXZ 000000014003b204     Framework:main.obj
 0003:0000b218       $unwind$?Stop@CProfiler@@QEAANXZ 000000014003b218     Framework:main.obj
 0003:0000b22c       $unwind$?Print@CProfiler@@QEAAXMMPEBD@Z 000000014003b22c     Framework:main.obj
 0003:0000b248       $unwind$??__EgUserRenderProfiler@@YAXXZ 000000014003b248     Framework:main.obj
 0003:0000b25c       $unwind$??__EgUserUpdateProfiler@@YAXXZ 000000014003b25c     Framework:main.obj
 0003:0000b270       $unwind$??__EgUpdateDeltaTime@@YAXXZ 000000014003b270     Framework:main.obj
 0003:0000b284       $unwind$?InitGL@@YAXXZ     000000014003b284     Framework:main.obj
 0003:0000b298       $unwind$?Display@@YAXXZ    000000014003b298     Framework:main.obj
 0003:0000b2ac       $unwind$?Idle@@YAXXZ       000000014003b2ac     Framework:main.obj
 0003:0000b2ca       $cppxdata$?Idle@@YAXXZ     000000014003b2ca     Framework:main.obj
 0003:0000b2d3       $stateUnwindMap$?Idle@@YAXXZ 000000014003b2d3     Framework:main.obj
 0003:0000b2d9       $ip2state$?Idle@@YAXXZ     000000014003b2d9     Framework:main.obj
 0003:0000b2e0       $unwind$?dtor$0@?0??Idle@@YAXXZ@4HA 000000014003b2e0     Framework:main.obj
 0003:0000b2f0       $unwind$?CheckMemCallback@@YAXXZ 000000014003b2f0     Framework:main.obj
 0003:0000b304       $unwind$?GetController@CSimpleControllers@@QEAAAEBVCController@@H@Z 000000014003b304     Framework:app.obj
 0003:0000b318       $unwind$?DrawLine@App@@YAXMMMMMMM@Z 000000014003b318     Framework:app.obj
 0003:0000b32c       $unwind$?Print@App@@YAXMMPEBDMMMPEAX@Z 000000014003b32c     Framework:app.obj
 0003:0000b340       $unwind$?CreateSprite@App@@YAPEAVCSimpleSprite@@PEBD@Z 000000014003b340     Framework:app.obj
 0003:0000b35a       $cppxdata$?CreateSprite@App@@YAPEAVCSimpleSprite@@PEBD@Z 000000014003b35a     Framework:app.obj
 0003:0000b363       $stateUnwindMap$?CreateSprite@App@@YAPEAVCSimpleSprite@@PEBD@Z 000000014003b363     Framework:app.obj
 0003:0000b369       $ip2state$?CreateSprite@App@@YAPEAVCSimpleSprite@@PEBD@Z 000000014003b369     Framework:app.obj
 0003:0000b370       $unwind$?dtor$0@?0??CreateSprite@App@@YAPEAVCSimpleSprite@@PEBD@Z@4HA 000000014003b370     Framework:app.obj
 0003:0000b380       $unwind$?StartSound@App@@YAXPEBD_N@Z 000000014003b380     Framework:app.obj
 0003:0000b394       $unwind$?StopSound@App@@YAXPEBD@Z 000000014003b394     Framework:app.obj
 0003:0000b3a8       $unwind$?IsSoundPlaying@App@@YA_NPEBD@Z 000000014003b3a8     Framework:app.obj
 0003:0000b3bc       $unwind$?IsKeyPressed@App@@YA_NH@Z 000000014003b3bc     Framework:app.obj
 0003:0000b3d0       $unwind$?GetMousePos@App@@YAXAEAM0@Z 000000014003b3d0     Framework:app.obj
 0003:0000b3ec       $unwind$?GetController@App@@YAAEBVCController@@H@Z 000000014003b3ec     Framework:app.obj
 0003:0000b400       $unwind$??0?$tuple@$$V@std@@QEAA@XZ 000000014003b400     Framework:SimpleSprite.obj
 0003:0000b41a       $cppxdata$??0?$tuple@$$V@std@@QEAA@XZ 000000014003b41a     Framework:SimpleSprite.obj
 0003:0000b41f       $ip2state$??0?$tuple@$$V@std@@QEAA@XZ 000000014003b41f     Framework:SimpleSprite.obj
 0003:0000b424       $unwind$??0?$tuple@$$V@std@@QEAA@AEBV01@@Z 000000014003b424     Framework:SimpleSprite.obj
 0003:0000b43e       $cppxdata$??0?$tuple@$$V@std@@QEAA@AEBV01@@Z 000000014003b43e     Framework:SimpleSprite.obj
 0003:0000b443       $ip2state$??0?$tuple@$$V@std@@QEAA@AEBV01@@Z 000000014003b443     Framework:SimpleSprite.obj
 0003:0000b448       $unwind$??0_Iterator_base12@std@@QEAA@XZ 000000014003b448     Framework:SimpleSprite.obj
 0003:0000b462       $cppxdata$??0_Iterator_base12@std@@QEAA@XZ 000000014003b462     Framework:SimpleSprite.obj
 0003:0000b467       $ip2state$??0_Iterator_base12@std@@QEAA@XZ 000000014003b467     Framework:SimpleSprite.obj
 0003:0000b46c       $unwind$??1_Iterator_base12@std@@QEAA@XZ 000000014003b46c     Framework:SimpleSprite.obj
 0003:0000b48a       $cppxdata$??1_Iterator_base12@std@@QEAA@XZ 000000014003b48a     Framework:SimpleSprite.obj
 0003:0000b48f       $ip2state$??1_Iterator_base12@std@@QEAA@XZ 000000014003b48f     Framework:SimpleSprite.obj
 0003:0000b494       $unwind$?_Adopt@_Iterator_base12@std@@QEAAXPEBU_Container_base12@2@@Z 000000014003b494     Framework:SimpleSprite.obj
 0003:0000b4b2       $cppxdata$?_Adopt@_Iterator_base12@std@@QEAAXPEBU_Container_base12@2@@Z 000000014003b4b2     Framework:SimpleSprite.obj
 0003:0000b4b7       $ip2state$?_Adopt@_Iterator_base12@std@@QEAAXPEBU_Container_base12@2@@Z 000000014003b4b7     Framework:SimpleSprite.obj
 0003:0000b4bc       $unwind$?_Getcont@_Iterator_base12@std@@QEBAPEBU_Container_base12@2@XZ 000000014003b4bc     Framework:SimpleSprite.obj
 0003:0000b4d6       $cppxdata$?_Getcont@_Iterator_base12@std@@QEBAPEBU_Container_base12@2@XZ 000000014003b4d6     Framework:SimpleSprite.obj
 0003:0000b4db       $ip2state$?_Getcont@_Iterator_base12@std@@QEBAPEBU_Container_base12@2@XZ 000000014003b4db     Framework:SimpleSprite.obj
 0003:0000b4e0       $unwind$?_Orphan_me@_Iterator_base12@std@@QEAAXXZ 000000014003b4e0     Framework:SimpleSprite.obj
 0003:0000b4fa       $cppxdata$?_Orphan_me@_Iterator_base12@std@@QEAAXXZ 000000014003b4fa     Framework:SimpleSprite.obj
 0003:0000b4ff       $ip2state$?_Orphan_me@_Iterator_base12@std@@QEAAXXZ 000000014003b4ff     Framework:SimpleSprite.obj
 0003:0000b504       $unwind$?_Release@_Basic_container_proxy_ptr12@std@@QEAAXXZ 000000014003b504     Framework:SimpleSprite.obj
 0003:0000b51e       $cppxdata$?_Release@_Basic_container_proxy_ptr12@std@@QEAAXXZ 000000014003b51e     Framework:SimpleSprite.obj
 0003:0000b523       $ip2state$?_Release@_Basic_container_proxy_ptr12@std@@QEAAXXZ 000000014003b523     Framework:SimpleSprite.obj
 0003:0000b528       $unwind$?_Throw_tree_length_error@std@@YAXXZ 000000014003b528     Framework:SimpleSprite.obj
 0003:0000b53c       $unwind$??0CSimpleSprite@@QEAA@PEBD@Z 000000014003b53c     Framework:SimpleSprite.obj
 0003:0000b550       $unwind$?Draw@CSimpleSprite@@QEAAXXZ 000000014003b550     Framework:SimpleSprite.obj
 0003:0000b564       $unwind$?CalculateUVs@CSimpleSprite@@AEAAXXZ 000000014003b564     Framework:SimpleSprite.obj
 0003:0000b578       $unwind$?LoadTexture@CSimpleSprite@@AEAA_NPEBD@Z 000000014003b578     Framework:SimpleSprite.obj
 0003:0000b596       $cppxdata$?LoadTexture@CSimpleSprite@@AEAA_NPEBD@Z 000000014003b596     Framework:SimpleSprite.obj
 0003:0000b59f       $stateUnwindMap$?LoadTexture@CSimpleSprite@@AEAA_NPEBD@Z 000000014003b59f     Framework:SimpleSprite.obj
 0003:0000b5ab       $ip2state$?LoadTexture@CSimpleSprite@@AEAA_NPEBD@Z 000000014003b5ab     Framework:SimpleSprite.obj
 0003:0000b5b8       $unwind$?dtor$0@?0??LoadTexture@CSimpleSprite@@AEAA_NPEBD@Z@4HA 000000014003b5b8     Framework:SimpleSprite.obj
 0003:0000b5c8       $unwind$?dtor$1@?0??LoadTexture@CSimpleSprite@@AEAA_NPEBD@Z@4HA 000000014003b5c8     Framework:SimpleSprite.obj
 0003:0000b5d8       $unwind$??0?$allocator@U?$_Tree_node@U?$pair@QEBDUsTextureDef@CSimpleSprite@@@std@@PEAX@std@@@std@@QEAA@XZ 000000014003b5d8     Framework:SimpleSprite.obj
 0003:0000b5f2       $cppxdata$??0?$allocator@U?$_Tree_node@U?$pair@QEBDUsTextureDef@CSimpleSprite@@@std@@PEAX@std@@@std@@QEAA@XZ 000000014003b5f2     Framework:SimpleSprite.obj
 0003:0000b5f7       $ip2state$??0?$allocator@U?$_Tree_node@U?$pair@QEBDUsTextureDef@CSimpleSprite@@@std@@PEAX@std@@@std@@QEAA@XZ 000000014003b5f7     Framework:SimpleSprite.obj
 0003:0000b5fc       $unwind$?deallocate@?$allocator@U?$_Tree_node@U?$pair@QEBDUsTextureDef@CSimpleSprite@@@std@@PEAX@std@@@std@@QEAAXQEAU?$_Tree_node@U?$pair@QEBDUsTextureDef@CSimpleSprite@@@std@@PEAX@2@_K@Z 000000014003b5fc     Framework:SimpleSprite.obj
 0003:0000b610       $unwind$?allocate@?$allocator@U?$_Tree_node@U?$pair@QEBDUsTextureDef@CSimpleSprite@@@std@@PEAX@std@@@std@@QEAAPEAU?$_Tree_node@U?$pair@QEBDUsTextureDef@CSimpleSprite@@@std@@PEAX@2@_K@Z 000000014003b610     Framework:SimpleSprite.obj
 0003:0000b624       $unwind$?deallocate@?$_Default_allocator_traits@V?$allocator@U?$_Tree_node@U?$pair@QEBDUsTextureDef@CSimpleSprite@@@std@@PEAX@std@@@std@@@std@@SAXAEAV?$allocator@U?$_Tree_node@U?$pair@QEBDUsTextureDef@CSimpleSprite@@@std@@PEAX@std@@@2@QEAU?$_Tree_node@U?$pair@QEBDUsTextureDef@CSimpleSprite@@@std@@PEAX@2@_K@Z 000000014003b624     Framework:SimpleSprite.obj
 0003:0000b638       $unwind$?max_size@?$_Default_allocator_traits@V?$allocator@U?$_Tree_node@U?$pair@QEBDUsTextureDef@CSimpleSprite@@@std@@PEAX@std@@@std@@@std@@SA_KAEBV?$allocator@U?$_Tree_node@U?$pair@QEBDUsTextureDef@CSimpleSprite@@@std@@PEAX@std@@@2@@Z 000000014003b638     Framework:SimpleSprite.obj
 0003:0000b652       $cppxdata$?max_size@?$_Default_allocator_traits@V?$allocator@U?$_Tree_node@U?$pair@QEBDUsTextureDef@CSimpleSprite@@@std@@PEAX@std@@@std@@@std@@SA_KAEBV?$allocator@U?$_Tree_node@U?$pair@QEBDUsTextureDef@CSimpleSprite@@@std@@PEAX@std@@@2@@Z 000000014003b652     Framework:SimpleSprite.obj
 0003:0000b657       $ip2state$?max_size@?$_Default_allocator_traits@V?$allocator@U?$_Tree_node@U?$pair@QEBDUsTextureDef@CSimpleSprite@@@std@@PEAX@std@@@std@@@std@@SA_KAEBV?$allocator@U?$_Tree_node@U?$pair@QEBDUsTextureDef@CSimpleSprite@@@std@@PEAX@std@@@2@@Z 000000014003b657     Framework:SimpleSprite.obj
 0003:0000b65c       $unwind$??0?$_Tree@V?$_Tmap_traits@PEBDUsTextureDef@CSimpleSprite@@U?$less@PEBD@std@@V?$allocator@U?$pair@QEBDUsTextureDef@CSimpleSprite@@@std@@@4@$0A@@std@@@std@@QEAA@AEBU?$less@PEBD@1@@Z 000000014003b65c     Framework:SimpleSprite.obj
 0003:0000b670       $unwind$??1?$_Tree@V?$_Tmap_traits@PEBDUsTextureDef@CSimpleSprite@@U?$less@PEBD@std@@V?$allocator@U?$pair@QEBDUsTextureDef@CSimpleSprite@@@std@@@4@$0A@@std@@@std@@QEAA@XZ 000000014003b670     Framework:SimpleSprite.obj
 0003:0000b68e       $cppxdata$??1?$_Tree@V?$_Tmap_traits@PEBDUsTextureDef@CSimpleSprite@@U?$less@PEBD@std@@V?$allocator@U?$pair@QEBDUsTextureDef@CSimpleSprite@@@std@@@4@$0A@@std@@@std@@QEAA@XZ 000000014003b68e     Framework:SimpleSprite.obj
 0003:0000b693       $ip2state$??1?$_Tree@V?$_Tmap_traits@PEBDUsTextureDef@CSimpleSprite@@U?$less@PEBD@std@@V?$allocator@U?$pair@QEBDUsTextureDef@CSimpleSprite@@@std@@@4@$0A@@std@@@std@@QEAA@XZ 000000014003b693     Framework:SimpleSprite.obj
 0003:0000b698       $unwind$?end@?$_Tree@V?$_Tmap_traits@PEBDUsTextureDef@CSimpleSprite@@U?$less@PEBD@std@@V?$allocator@U?$pair@QEBDUsTextureDef@CSimpleSprite@@@std@@@4@$0A@@std@@@std@@QEAA?AV?$_Tree_iterator@V?$_Tree_val@U?$_Tree_simple_types@U?$pair@QEBDUsTextureDef@CSimpleSprite@@@std@@@std@@@std@@@2@XZ 000000014003b698     Framework:SimpleSprite.obj
 0003:0000b6b2       $cppxdata$?end@?$_Tree@V?$_Tmap_traits@PEBDUsTextureDef@CSimpleSprite@@U?$less@PEBD@std@@V?$allocator@U?$pair@QEBDUsTextureDef@CSimpleSprite@@@std@@@4@$0A@@std@@@std@@QEAA?AV?$_Tree_iterator@V?$_Tree_val@U?$_Tree_simple_types@U?$pair@QEBDUsTextureDef@CSimpleSprite@@@std@@@std@@@std@@@2@XZ 000000014003b6b2     Framework:SimpleSprite.obj
 0003:0000b6b7       $ip2state$?end@?$_Tree@V?$_Tmap_traits@PEBDUsTextureDef@CSimpleSprite@@U?$less@PEBD@std@@V?$allocator@U?$pair@QEBDUsTextureDef@CSimpleSprite@@@std@@@4@$0A@@std@@@std@@QEAA?AV?$_Tree_iterator@V?$_Tree_val@U?$_Tree_simple_types@U?$pair@QEBDUsTextureDef@CSimpleSprite@@@std@@@std@@@std@@@2@XZ 000000014003b6b7     Framework:SimpleSprite.obj
 0003:0000b6bc       $unwind$?max_size@?$_Tree@V?$_Tmap_traits@PEBDUsTextureDef@CSimpleSprite@@U?$less@PEBD@std@@V?$allocator@U?$pair@QEBDUsTextureDef@CSimpleSprite@@@std@@@4@$0A@@std@@@std@@QEBA_KXZ 000000014003b6bc     Framework:SimpleSprite.obj
 0003:0000b6d6       $cppxdata$?max_size@?$_Tree@V?$_Tmap_traits@PEBDUsTextureDef@CSimpleSprite@@U?$less@PEBD@std@@V?$allocator@U?$pair@QEBDUsTextureDef@CSimpleSprite@@@std@@@4@$0A@@std@@@std@@QEBA_KXZ 000000014003b6d6     Framework:SimpleSprite.obj
 0003:0000b6db       $ip2state$?max_size@?$_Tree@V?$_Tmap_traits@PEBDUsTextureDef@CSimpleSprite@@U?$less@PEBD@std@@V?$allocator@U?$pair@QEBDUsTextureDef@CSimpleSprite@@@std@@@4@$0A@@std@@@std@@QEBA_KXZ 000000014003b6db     Framework:SimpleSprite.obj
 0003:0000b6e0       $unwind$?find@?$_Tree@V?$_Tmap_traits@PEBDUsTextureDef@CSimpleSprite@@U?$less@PEBD@std@@V?$allocator@U?$pair@QEBDUsTextureDef@CSimpleSprite@@@std@@@4@$0A@@std@@@std@@QEAA?AV?$_Tree_iterator@V?$_Tree_val@U?$_Tree_simple_types@U?$pair@QEBDUsTextureDef@CSimpleSprite@@@std@@@std@@@std@@@2@AEBQEBD@Z 000000014003b6e0     Framework:SimpleSprite.obj
 0003:0000b6f4       $unwind$?_Check_grow_by_1@?$_Tree@V?$_Tmap_traits@PEBDUsTextureDef@CSimpleSprite@@U?$less@PEBD@std@@V?$allocator@U?$pair@QEBDUsTextureDef@CSimpleSprite@@@std@@@4@$0A@@std@@@std@@IEAAXXZ 000000014003b6f4     Framework:SimpleSprite.obj
 0003:0000b708       $unwind$?_Alloc_sentinel_and_proxy@?$_Tree@V?$_Tmap_traits@PEBDUsTextureDef@CSimpleSprite@@U?$less@PEBD@std@@V?$allocator@U?$pair@QEBDUsTextureDef@CSimpleSprite@@@std@@@4@$0A@@std@@@std@@IEAAXXZ 000000014003b708     Framework:SimpleSprite.obj
 0003:0000b726       $cppxdata$?_Alloc_sentinel_and_proxy@?$_Tree@V?$_Tmap_traits@PEBDUsTextureDef@CSimpleSprite@@U?$less@PEBD@std@@V?$allocator@U?$pair@QEBDUsTextureDef@CSimpleSprite@@@std@@@4@$0A@@std@@@std@@IEAAXXZ 000000014003b726     Framework:SimpleSprite.obj
 0003:0000b72f       $stateUnwindMap$?_Alloc_sentinel_and_proxy@?$_Tree@V?$_Tmap_traits@PEBDUsTextureDef@CSimpleSprite@@U?$less@PEBD@std@@V?$allocator@U?$pair@QEBDUsTextureDef@CSimpleSprite@@@std@@@4@$0A@@std@@@std@@IEAAXXZ 000000014003b72f     Framework:SimpleSprite.obj
 0003:0000b735       $ip2state$?_Alloc_sentinel_and_proxy@?$_Tree@V?$_Tmap_traits@PEBDUsTextureDef@CSimpleSprite@@U?$less@PEBD@std@@V?$allocator@U?$pair@QEBDUsTextureDef@CSimpleSprite@@@std@@@4@$0A@@std@@@std@@IEAAXXZ 000000014003b735     Framework:SimpleSprite.obj
 0003:0000b740       $unwind$?dtor$0@?0??_Alloc_sentinel_and_proxy@?$_Tree@V?$_Tmap_traits@PEBDUsTextureDef@CSimpleSprite@@U?$less@PEBD@std@@V?$allocator@U?$pair@QEBDUsTextureDef@CSimpleSprite@@@std@@@4@$0A@@std@@@std@@IEAAXXZ@4HA 000000014003b740     Framework:SimpleSprite.obj
 0003:0000b750       $unwind$?_Getcomp@?$_Tree@V?$_Tmap_traits@PEBDUsTextureDef@CSimpleSprite@@U?$less@PEBD@std@@V?$allocator@U?$pair@QEBDUsTextureDef@CSimpleSprite@@@std@@@4@$0A@@std@@@std@@IEBAAEBU?$less@PEBD@2@XZ 000000014003b750     Framework:SimpleSprite.obj
 0003:0000b76a       $cppxdata$?_Getcomp@?$_Tree@V?$_Tmap_traits@PEBDUsTextureDef@CSimpleSprite@@U?$less@PEBD@std@@V?$allocator@U?$pair@QEBDUsTextureDef@CSimpleSprite@@@std@@@4@$0A@@std@@@std@@IEBAAEBU?$less@PEBD@2@XZ 000000014003b76a     Framework:SimpleSprite.obj
 0003:0000b76f       $ip2state$?_Getcomp@?$_Tree@V?$_Tmap_traits@PEBDUsTextureDef@CSimpleSprite@@U?$less@PEBD@std@@V?$allocator@U?$pair@QEBDUsTextureDef@CSimpleSprite@@@std@@@4@$0A@@std@@@std@@IEBAAEBU?$less@PEBD@2@XZ 000000014003b76f     Framework:SimpleSprite.obj
 0003:0000b774       $unwind$?_Getal@?$_Tree@V?$_Tmap_traits@PEBDUsTextureDef@CSimpleSprite@@U?$less@PEBD@std@@V?$allocator@U?$pair@QEBDUsTextureDef@CSimpleSprite@@@std@@@4@$0A@@std@@@std@@IEAAAEAV?$allocator@U?$_Tree_node@U?$pair@QEBDUsTextureDef@CSimpleSprite@@@std@@PEAX@std@@@2@XZ 000000014003b774     Framework:SimpleSprite.obj
 0003:0000b78e       $cppxdata$?_Getal@?$_Tree@V?$_Tmap_traits@PEBDUsTextureDef@CSimpleSprite@@U?$less@PEBD@std@@V?$allocator@U?$pair@QEBDUsTextureDef@CSimpleSprite@@@std@@@4@$0A@@std@@@std@@IEAAAEAV?$allocator@U?$_Tree_node@U?$pair@QEBDUsTextureDef@CSimpleSprite@@@std@@PEAX@std@@@2@XZ 000000014003b78e     Framework:SimpleSprite.obj
 0003:0000b793       $ip2state$?_Getal@?$_Tree@V?$_Tmap_traits@PEBDUsTextureDef@CSimpleSprite@@U?$less@PEBD@std@@V?$allocator@U?$pair@QEBDUsTextureDef@CSimpleSprite@@@std@@@4@$0A@@std@@@std@@IEAAAEAV?$allocator@U?$_Tree_node@U?$pair@QEBDUsTextureDef@CSimpleSprite@@@std@@PEAX@std@@@2@XZ 000000014003b793     Framework:SimpleSprite.obj
 0003:0000b798       $unwind$?_Getal@?$_Tree@V?$_Tmap_traits@PEBDUsTextureDef@CSimpleSprite@@U?$less@PEBD@std@@V?$allocator@U?$pair@QEBDUsTextureDef@CSimpleSprite@@@std@@@4@$0A@@std@@@std@@IEBAAEBV?$allocator@U?$_Tree_node@U?$pair@QEBDUsTextureDef@CSimpleSprite@@@std@@PEAX@std@@@2@XZ 000000014003b798     Framework:SimpleSprite.obj
 0003:0000b7b2       $cppxdata$?_Getal@?$_Tree@V?$_Tmap_traits@PEBDUsTextureDef@CSimpleSprite@@U?$less@PEBD@std@@V?$allocator@U?$pair@QEBDUsTextureDef@CSimpleSprite@@@std@@@4@$0A@@std@@@std@@IEBAAEBV?$allocator@U?$_Tree_node@U?$pair@QEBDUsTextureDef@CSimpleSprite@@@std@@PEAX@std@@@2@XZ 000000014003b7b2     Framework:SimpleSprite.obj
 0003:0000b7b7       $ip2state$?_Getal@?$_Tree@V?$_Tmap_traits@PEBDUsTextureDef@CSimpleSprite@@U?$less@PEBD@std@@V?$allocator@U?$pair@QEBDUsTextureDef@CSimpleSprite@@@std@@@4@$0A@@std@@@std@@IEBAAEBV?$allocator@U?$_Tree_node@U?$pair@QEBDUsTextureDef@CSimpleSprite@@@std@@PEAX@std@@@2@XZ 000000014003b7b7     Framework:SimpleSprite.obj
 0003:0000b7bc       $unwind$?_Get_scary@?$_Tree@V?$_Tmap_traits@PEBDUsTextureDef@CSimpleSprite@@U?$less@PEBD@std@@V?$allocator@U?$pair@QEBDUsTextureDef@CSimpleSprite@@@std@@@4@$0A@@std@@@std@@IEAAPEAV?$_Tree_val@U?$_Tree_simple_types@U?$pair@QEBDUsTextureDef@CSimpleSprite@@@std@@@std@@@2@XZ 000000014003b7bc     Framework:SimpleSprite.obj
 0003:0000b7d6       $cppxdata$?_Get_scary@?$_Tree@V?$_Tmap_traits@PEBDUsTextureDef@CSimpleSprite@@U?$less@PEBD@std@@V?$allocator@U?$pair@QEBDUsTextureDef@CSimpleSprite@@@std@@@4@$0A@@std@@@std@@IEAAPEAV?$_Tree_val@U?$_Tree_simple_types@U?$pair@QEBDUsTextureDef@CSimpleSprite@@@std@@@std@@@2@XZ 000000014003b7d6     Framework:SimpleSprite.obj
 0003:0000b7db       $ip2state$?_Get_scary@?$_Tree@V?$_Tmap_traits@PEBDUsTextureDef@CSimpleSprite@@U?$less@PEBD@std@@V?$allocator@U?$pair@QEBDUsTextureDef@CSimpleSprite@@@std@@@4@$0A@@std@@@std@@IEAAPEAV?$_Tree_val@U?$_Tree_simple_types@U?$pair@QEBDUsTextureDef@CSimpleSprite@@@std@@@std@@@2@XZ 000000014003b7db     Framework:SimpleSprite.obj
 0003:0000b7e0       $unwind$?_Get_scary@?$_Tree@V?$_Tmap_traits@PEBDUsTextureDef@CSimpleSprite@@U?$less@PEBD@std@@V?$allocator@U?$pair@QEBDUsTextureDef@CSimpleSprite@@@std@@@4@$0A@@std@@@std@@IEBAPEBV?$_Tree_val@U?$_Tree_simple_types@U?$pair@QEBDUsTextureDef@CSimpleSprite@@@std@@@std@@@2@XZ 000000014003b7e0     Framework:SimpleSprite.obj
 0003:0000b7fa       $cppxdata$?_Get_scary@?$_Tree@V?$_Tmap_traits@PEBDUsTextureDef@CSimpleSprite@@U?$less@PEBD@std@@V?$allocator@U?$pair@QEBDUsTextureDef@CSimpleSprite@@@std@@@4@$0A@@std@@@std@@IEBAPEBV?$_Tree_val@U?$_Tree_simple_types@U?$pair@QEBDUsTextureDef@CSimpleSprite@@@std@@@std@@@2@XZ 000000014003b7fa     Framework:SimpleSprite.obj
 0003:0000b7ff       $ip2state$?_Get_scary@?$_Tree@V?$_Tmap_traits@PEBDUsTextureDef@CSimpleSprite@@U?$less@PEBD@std@@V?$allocator@U?$pair@QEBDUsTextureDef@CSimpleSprite@@@std@@@4@$0A@@std@@@std@@IEBAPEBV?$_Tree_val@U?$_Tree_simple_types@U?$pair@QEBDUsTextureDef@CSimpleSprite@@@std@@@std@@@2@XZ 000000014003b7ff     Framework:SimpleSprite.obj
 0003:0000b804       $unwind$??R?$less@PEBD@std@@QEBA_NAEBQEBD0@Z 000000014003b804     Framework:SimpleSprite.obj
 0003:0000b818       $unwind$??0?$_Tree_val@U?$_Tree_simple_types@U?$pair@QEBDUsTextureDef@CSimpleSprite@@@std@@@std@@@std@@QEAA@XZ 000000014003b818     Framework:SimpleSprite.obj
 0003:0000b82c       $unwind$?_Lrotate@?$_Tree_val@U?$_Tree_simple_types@U?$pair@QEBDUsTextureDef@CSimpleSprite@@@std@@@std@@@std@@QEAAXPEAU?$_Tree_node@U?$pair@QEBDUsTextureDef@CSimpleSprite@@@std@@PEAX@2@@Z 000000014003b82c     Framework:SimpleSprite.obj
 0003:0000b840       $unwind$?_Rrotate@?$_Tree_val@U?$_Tree_simple_types@U?$pair@QEBDUsTextureDef@CSimpleSprite@@@std@@@std@@@std@@QEAAXPEAU?$_Tree_node@U?$pair@QEBDUsTextureDef@CSimpleSprite@@@std@@PEAX@2@@Z 000000014003b840     Framework:SimpleSprite.obj
 0003:0000b854       $unwind$?_Insert_node@?$_Tree_val@U?$_Tree_simple_types@U?$pair@QEBDUsTextureDef@CSimpleSprite@@@std@@@std@@@std@@QEAAPEAU?$_Tree_node@U?$pair@QEBDUsTextureDef@CSimpleSprite@@@std@@PEAX@2@U?$_Tree_id@PEAU?$_Tree_node@U?$pair@QEBDUsTextureDef@CSimpleSprite@@@std@@PEAX@std@@@2@QEAU32@@Z 000000014003b854     Framework:SimpleSprite.obj
 0003:0000b86e       $cppxdata$?_Insert_node@?$_Tree_val@U?$_Tree_simple_types@U?$pair@QEBDUsTextureDef@CSimpleSprite@@@std@@@std@@@std@@QEAAPEAU?$_Tree_node@U?$pair@QEBDUsTextureDef@CSimpleSprite@@@std@@PEAX@2@U?$_Tree_id@PEAU?$_Tree_node@U?$pair@QEBDUsTextureDef@CSimpleSprite@@@std@@PEAX@std@@@2@QEAU32@@Z 000000014003b86e     Framework:SimpleSprite.obj
 0003:0000b873       $ip2state$?_Insert_node@?$_Tree_val@U?$_Tree_simple_types@U?$pair@QEBDUsTextureDef@CSimpleSprite@@@std@@@std@@@std@@QEAAPEAU?$_Tree_node@U?$pair@QEBDUsTextureDef@CSimpleSprite@@@std@@PEAX@2@U?$_Tree_id@PEAU?$_Tree_node@U?$pair@QEBDUsTextureDef@CSimpleSprite@@@std@@PEAX@std@@@2@QEAU32@@Z 000000014003b873     Framework:SimpleSprite.obj
 0003:0000b878       $unwind$?_Get_first@?$_Compressed_pair@V?$allocator@U?$_Tree_node@U?$pair@QEBDUsTextureDef@CSimpleSprite@@@std@@PEAX@std@@@std@@V?$_Tree_val@U?$_Tree_simple_types@U?$pair@QEBDUsTextureDef@CSimpleSprite@@@std@@@std@@@2@$00@std@@QEAAAEAV?$allocator@U?$_Tree_node@U?$pair@QEBDUsTextureDef@CSimpleSprite@@@std@@PEAX@std@@@2@XZ 000000014003b878     Framework:SimpleSprite.obj
 0003:0000b892       $cppxdata$?_Get_first@?$_Compressed_pair@V?$allocator@U?$_Tree_node@U?$pair@QEBDUsTextureDef@CSimpleSprite@@@std@@PEAX@std@@@std@@V?$_Tree_val@U?$_Tree_simple_types@U?$pair@QEBDUsTextureDef@CSimpleSprite@@@std@@@std@@@2@$00@std@@QEAAAEAV?$allocator@U?$_Tree_node@U?$pair@QEBDUsTextureDef@CSimpleSprite@@@std@@PEAX@std@@@2@XZ 000000014003b892     Framework:SimpleSprite.obj
 0003:0000b897       $ip2state$?_Get_first@?$_Compressed_pair@V?$allocator@U?$_Tree_node@U?$pair@QEBDUsTextureDef@CSimpleSprite@@@std@@PEAX@std@@@std@@V?$_Tree_val@U?$_Tree_simple_types@U?$pair@QEBDUsTextureDef@CSimpleSprite@@@std@@@std@@@2@$00@std@@QEAAAEAV?$allocator@U?$_Tree_node@U?$pair@QEBDUsTextureDef@CSimpleSprite@@@std@@PEAX@std@@@2@XZ 000000014003b897     Framework:SimpleSprite.obj
 0003:0000b89c       $unwind$?_Get_first@?$_Compressed_pair@V?$allocator@U?$_Tree_node@U?$pair@QEBDUsTextureDef@CSimpleSprite@@@std@@PEAX@std@@@std@@V?$_Tree_val@U?$_Tree_simple_types@U?$pair@QEBDUsTextureDef@CSimpleSprite@@@std@@@std@@@2@$00@std@@QEBAAEBV?$allocator@U?$_Tree_node@U?$pair@QEBDUsTextureDef@CSimpleSprite@@@std@@PEAX@std@@@2@XZ 000000014003b89c     Framework:SimpleSprite.obj
 0003:0000b8b6       $cppxdata$?_Get_first@?$_Compressed_pair@V?$allocator@U?$_Tree_node@U?$pair@QEBDUsTextureDef@CSimpleSprite@@@std@@PEAX@std@@@std@@V?$_Tree_val@U?$_Tree_simple_types@U?$pair@QEBDUsTextureDef@CSimpleSprite@@@std@@@std@@@2@$00@std@@QEBAAEBV?$allocator@U?$_Tree_node@U?$pair@QEBDUsTextureDef@CSimpleSprite@@@std@@PEAX@std@@@2@XZ 000000014003b8b6     Framework:SimpleSprite.obj
 0003:0000b8bb       $ip2state$?_Get_first@?$_Compressed_pair@V?$allocator@U?$_Tree_node@U?$pair@QEBDUsTextureDef@CSimpleSprite@@@std@@PEAX@std@@@std@@V?$_Tree_val@U?$_Tree_simple_types@U?$pair@QEBDUsTextureDef@CSimpleSprite@@@std@@@std@@@2@$00@std@@QEBAAEBV?$allocator@U?$_Tree_node@U?$pair@QEBDUsTextureDef@CSimpleSprite@@@std@@PEAX@std@@@2@XZ 000000014003b8bb     Framework:SimpleSprite.obj
 0003:0000b8c0       $unwind$?_Get_first@?$_Compressed_pair@U?$less@PEBD@std@@V?$_Compressed_pair@V?$allocator@U?$_Tree_node@U?$pair@QEBDUsTextureDef@CSimpleSprite@@@std@@PEAX@std@@@std@@V?$_Tree_val@U?$_Tree_simple_types@U?$pair@QEBDUsTextureDef@CSimpleSprite@@@std@@@std@@@2@$00@2@$00@std@@QEBAAEBU?$less@PEBD@2@XZ 000000014003b8c0     Framework:SimpleSprite.obj
 0003:0000b8da       $cppxdata$?_Get_first@?$_Compressed_pair@U?$less@PEBD@std@@V?$_Compressed_pair@V?$allocator@U?$_Tree_node@U?$pair@QEBDUsTextureDef@CSimpleSprite@@@std@@PEAX@std@@@std@@V?$_Tree_val@U?$_Tree_simple_types@U?$pair@QEBDUsTextureDef@CSimpleSprite@@@std@@@std@@@2@$00@2@$00@std@@QEBAAEBU?$less@PEBD@2@XZ 000000014003b8da     Framework:SimpleSprite.obj
 0003:0000b8df       $ip2state$?_Get_first@?$_Compressed_pair@U?$less@PEBD@std@@V?$_Compressed_pair@V?$allocator@U?$_Tree_node@U?$pair@QEBDUsTextureDef@CSimpleSprite@@@std@@PEAX@std@@@std@@V?$_Tree_val@U?$_Tree_simple_types@U?$pair@QEBDUsTextureDef@CSimpleSprite@@@std@@@std@@@2@$00@2@$00@std@@QEBAAEBU?$less@PEBD@2@XZ 000000014003b8df     Framework:SimpleSprite.obj
 0003:0000b8e4       $unwind$??$?0$$V@?$_Compressed_pair@V?$allocator@U?$_Tree_node@U?$pair@QEBDUsTextureDef@CSimpleSprite@@@std@@PEAX@std@@@std@@V?$_Tree_val@U?$_Tree_simple_types@U?$pair@QEBDUsTextureDef@CSimpleSprite@@@std@@@std@@@2@$00@std@@QEAA@U_Zero_then_variadic_args_t@1@@Z 000000014003b8e4     Framework:SimpleSprite.obj
 0003:0000b8f8       $unwind$??0?$map@PEBDUsTextureDef@CSimpleSprite@@U?$less@PEBD@std@@V?$allocator@U?$pair@QEBDUsTextureDef@CSimpleSprite@@@std@@@4@@std@@QEAA@XZ 000000014003b8f8     Framework:SimpleSprite.obj
 0003:0000b90c       $unwind$??A?$map@PEBDUsTextureDef@CSimpleSprite@@U?$less@PEBD@std@@V?$allocator@U?$pair@QEBDUsTextureDef@CSimpleSprite@@@std@@@4@@std@@QEAAAEAUsTextureDef@CSimpleSprite@@AEBQEBD@Z 000000014003b90c     Framework:SimpleSprite.obj
 0003:0000b920       $unwind$??1?$map@PEBDUsTextureDef@CSimpleSprite@@U?$less@PEBD@std@@V?$allocator@U?$pair@QEBDUsTextureDef@CSimpleSprite@@@std@@@4@@std@@QEAA@XZ 000000014003b920     Framework:SimpleSprite.obj
 0003:0000b934       $unwind$?__autoclassinit2@?$map@PEBDUsTextureDef@CSimpleSprite@@U?$less@PEBD@std@@V?$allocator@U?$pair@QEBDUsTextureDef@CSimpleSprite@@@std@@@4@@std@@QEAAX_K@Z 000000014003b934     Framework:SimpleSprite.obj
 0003:0000b948       $unwind$??__E?m_textures@CSimpleSprite@@0V?$map@PEBDUsTextureDef@CSimpleSprite@@U?$less@PEBD@std@@V?$allocator@U?$pair@QEBDUsTextureDef@CSimpleSprite@@@std@@@4@@std@@A@@YAXXZ 000000014003b948     Framework:SimpleSprite.obj
 0003:0000b95c       $unwind$??__F?m_textures@CSimpleSprite@@0V?$map@PEBDUsTextureDef@CSimpleSprite@@U?$less@PEBD@std@@V?$allocator@U?$pair@QEBDUsTextureDef@CSimpleSprite@@@std@@@4@@std@@A@@YAXXZ 000000014003b95c     Framework:SimpleSprite.obj
 0003:0000b970       $unwind$??0?$_Tree_unchecked_const_iterator@V?$_Tree_val@U?$_Tree_simple_types@U?$pair@QEBDUsTextureDef@CSimpleSprite@@@std@@@std@@@std@@U_Iterator_base12@2@@std@@QEAA@PEAU?$_Tree_node@U?$pair@QEBDUsTextureDef@CSimpleSprite@@@std@@PEAX@1@PEBV?$_Tree_val@U?$_Tree_simple_types@U?$pair@QEBDUsTextureDef@CSimpleSprite@@@std@@@std@@@1@@Z 000000014003b970     Framework:SimpleSprite.obj
 0003:0000b984       $unwind$??1?$_Tree_unchecked_const_iterator@V?$_Tree_val@U?$_Tree_simple_types@U?$pair@QEBDUsTextureDef@CSimpleSprite@@@std@@@std@@@std@@U_Iterator_base12@2@@std@@QEAA@XZ 000000014003b984     Framework:SimpleSprite.obj
 0003:0000b998       $unwind$??0?$_Tree_const_iterator@V?$_Tree_val@U?$_Tree_simple_types@U?$pair@QEBDUsTextureDef@CSimpleSprite@@@std@@@std@@@std@@@std@@QEAA@PEAU?$_Tree_node@U?$pair@QEBDUsTextureDef@CSimpleSprite@@@std@@PEAX@1@PEBV?$_Tree_val@U?$_Tree_simple_types@U?$pair@QEBDUsTextureDef@CSimpleSprite@@@std@@@std@@@1@@Z 000000014003b998     Framework:SimpleSprite.obj
 0003:0000b9ac       $unwind$??8?$_Tree_const_iterator@V?$_Tree_val@U?$_Tree_simple_types@U?$pair@QEBDUsTextureDef@CSimpleSprite@@@std@@@std@@@std@@@std@@QEBA_NAEBV01@@Z 000000014003b9ac     Framework:SimpleSprite.obj
 0003:0000b9c0       $unwind$??9?$_Tree_const_iterator@V?$_Tree_val@U?$_Tree_simple_types@U?$pair@QEBDUsTextureDef@CSimpleSprite@@@std@@@std@@@std@@@std@@QEBA_NAEBV01@@Z 000000014003b9c0     Framework:SimpleSprite.obj
 0003:0000b9d4       $unwind$??1?$_Tree_const_iterator@V?$_Tree_val@U?$_Tree_simple_types@U?$pair@QEBDUsTextureDef@CSimpleSprite@@@std@@@std@@@std@@@std@@QEAA@XZ 000000014003b9d4     Framework:SimpleSprite.obj
 0003:0000b9e8       $unwind$??0?$_Tree_iterator@V?$_Tree_val@U?$_Tree_simple_types@U?$pair@QEBDUsTextureDef@CSimpleSprite@@@std@@@std@@@std@@@std@@QEAA@PEAU?$_Tree_node@U?$pair@QEBDUsTextureDef@CSimpleSprite@@@std@@PEAX@1@PEBV?$_Tree_val@U?$_Tree_simple_types@U?$pair@QEBDUsTextureDef@CSimpleSprite@@@std@@@std@@@1@@Z 000000014003b9e8     Framework:SimpleSprite.obj
 0003:0000b9fc       $unwind$??1?$_Tree_iterator@V?$_Tree_val@U?$_Tree_simple_types@U?$pair@QEBDUsTextureDef@CSimpleSprite@@@std@@@std@@@std@@@std@@QEAA@XZ 000000014003b9fc     Framework:SimpleSprite.obj
 0003:0000ba10       $unwind$??$_Try_emplace@AEBQEBD$$V@?$map@PEBDUsTextureDef@CSimpleSprite@@U?$less@PEBD@std@@V?$allocator@U?$pair@QEBDUsTextureDef@CSimpleSprite@@@std@@@4@@std@@AEAA?AU?$pair@PEAU?$_Tree_node@U?$pair@QEBDUsTextureDef@CSimpleSprite@@@std@@PEAX@std@@_N@1@AEBQEBD@Z 000000014003ba10     Framework:SimpleSprite.obj
 0003:0000ba2c       $unwind$??$_Find@PEBD@?$_Tree@V?$_Tmap_traits@PEBDUsTextureDef@CSimpleSprite@@U?$less@PEBD@std@@V?$allocator@U?$pair@QEBDUsTextureDef@CSimpleSprite@@@std@@@4@$0A@@std@@@std@@AEBAPEAU?$_Tree_node@U?$pair@QEBDUsTextureDef@CSimpleSprite@@@std@@PEAX@1@AEBQEBD@Z 000000014003ba2c     Framework:SimpleSprite.obj
 0003:0000ba48       $unwind$??$_Erase_head@V?$allocator@U?$_Tree_node@U?$pair@QEBDUsTextureDef@CSimpleSprite@@@std@@PEAX@std@@@std@@@?$_Tree_val@U?$_Tree_simple_types@U?$pair@QEBDUsTextureDef@CSimpleSprite@@@std@@@std@@@std@@QEAAXAEAV?$allocator@U?$_Tree_node@U?$pair@QEBDUsTextureDef@CSimpleSprite@@@std@@PEAX@std@@@1@@Z 000000014003ba48     Framework:SimpleSprite.obj
 0003:0000ba62       $cppxdata$??$_Erase_head@V?$allocator@U?$_Tree_node@U?$pair@QEBDUsTextureDef@CSimpleSprite@@@std@@PEAX@std@@@std@@@?$_Tree_val@U?$_Tree_simple_types@U?$pair@QEBDUsTextureDef@CSimpleSprite@@@std@@@std@@@std@@QEAAXAEAV?$allocator@U?$_Tree_node@U?$pair@QEBDUsTextureDef@CSimpleSprite@@@std@@PEAX@std@@@1@@Z 000000014003ba62     Framework:SimpleSprite.obj
 0003:0000ba67       $ip2state$??$_Erase_head@V?$allocator@U?$_Tree_node@U?$pair@QEBDUsTextureDef@CSimpleSprite@@@std@@PEAX@std@@@std@@@?$_Tree_val@U?$_Tree_simple_types@U?$pair@QEBDUsTextureDef@CSimpleSprite@@@std@@@std@@@std@@QEAAXAEAV?$allocator@U?$_Tree_node@U?$pair@QEBDUsTextureDef@CSimpleSprite@@@std@@PEAX@std@@@1@@Z 000000014003ba67     Framework:SimpleSprite.obj
 0003:0000ba6c       $unwind$??$?0U?$_Tree_node@U?$pair@QEBDUsTextureDef@CSimpleSprite@@@std@@PEAX@std@@@?$allocator@U_Container_proxy@std@@@std@@QEAA@AEBV?$allocator@U?$_Tree_node@U?$pair@QEBDUsTextureDef@CSimpleSprite@@@std@@PEAX@std@@@1@@Z 000000014003ba6c     Framework:SimpleSprite.obj
 0003:0000ba86       $cppxdata$??$?0U?$_Tree_node@U?$pair@QEBDUsTextureDef@CSimpleSprite@@@std@@PEAX@std@@@?$allocator@U_Container_proxy@std@@@std@@QEAA@AEBV?$allocator@U?$_Tree_node@U?$pair@QEBDUsTextureDef@CSimpleSprite@@@std@@PEAX@std@@@1@@Z 000000014003ba86     Framework:SimpleSprite.obj
 0003:0000ba8b       $ip2state$??$?0U?$_Tree_node@U?$pair@QEBDUsTextureDef@CSimpleSprite@@@std@@PEAX@std@@@?$allocator@U_Container_proxy@std@@@std@@QEAA@AEBV?$allocator@U?$_Tree_node@U?$pair@QEBDUsTextureDef@CSimpleSprite@@@std@@PEAX@std@@@1@@Z 000000014003ba8b     Framework:SimpleSprite.obj
 0003:0000ba90       $unwind$??$addressof@V?$_Tree_val@U?$_Tree_simple_types@U?$pair@QEBDUsTextureDef@CSimpleSprite@@@std@@@std@@@std@@@std@@YAPEAV?$_Tree_val@U?$_Tree_simple_types@U?$pair@QEBDUsTextureDef@CSimpleSprite@@@std@@@std@@@0@AEAV10@@Z 000000014003ba90     Framework:SimpleSprite.obj
 0003:0000baaa       $cppxdata$??$addressof@V?$_Tree_val@U?$_Tree_simple_types@U?$pair@QEBDUsTextureDef@CSimpleSprite@@@std@@@std@@@std@@@std@@YAPEAV?$_Tree_val@U?$_Tree_simple_types@U?$pair@QEBDUsTextureDef@CSimpleSprite@@@std@@@std@@@0@AEAV10@@Z 000000014003baaa     Framework:SimpleSprite.obj
 0003:0000baaf       $ip2state$??$addressof@V?$_Tree_val@U?$_Tree_simple_types@U?$pair@QEBDUsTextureDef@CSimpleSprite@@@std@@@std@@@std@@@std@@YAPEAV?$_Tree_val@U?$_Tree_simple_types@U?$pair@QEBDUsTextureDef@CSimpleSprite@@@std@@@std@@@0@AEAV10@@Z 000000014003baaf     Framework:SimpleSprite.obj
 0003:0000bab4       $unwind$??$?0AEBU?$less@PEBD@std@@U_Zero_then_variadic_args_t@1@@?$_Compressed_pair@U?$less@PEBD@std@@V?$_Compressed_pair@V?$allocator@U?$_Tree_node@U?$pair@QEBDUsTextureDef@CSimpleSprite@@@std@@PEAX@std@@@std@@V?$_Tree_val@U?$_Tree_simple_types@U?$pair@QEBDUsTextureDef@CSimpleSprite@@@std@@@std@@@2@$00@2@$00@std@@QEAA@U_One_then_variadic_args_t@1@AEBU?$less@PEBD@1@$$QEAU_Zero_then_variadic_args_t@1@@Z 000000014003bab4     Framework:SimpleSprite.obj
 0003:0000bac8       $unwind$??0?$_Container_proxy_ptr12@V?$allocator@U_Container_proxy@std@@@std@@@std@@QEAA@AEAV?$allocator@U_Container_proxy@std@@@1@AEAU_Container_base12@1@@Z 000000014003bac8     Framework:SimpleSprite.obj
 0003:0000badc       $unwind$??1?$_Container_proxy_ptr12@V?$allocator@U_Container_proxy@std@@@std@@@std@@QEAA@XZ 000000014003badc     Framework:SimpleSprite.obj
 0003:0000baf6       $cppxdata$??1?$_Container_proxy_ptr12@V?$allocator@U_Container_proxy@std@@@std@@@std@@QEAA@XZ 000000014003baf6     Framework:SimpleSprite.obj
 0003:0000bafb       $ip2state$??1?$_Container_proxy_ptr12@V?$allocator@U_Container_proxy@std@@@std@@@std@@QEAA@XZ 000000014003bafb     Framework:SimpleSprite.obj
 0003:0000bb00       $unwind$??$_Buyheadnode@V?$allocator@U?$_Tree_node@U?$pair@QEBDUsTextureDef@CSimpleSprite@@@std@@PEAX@std@@@std@@@?$_Tree_node@U?$pair@QEBDUsTextureDef@CSimpleSprite@@@std@@PEAX@std@@SAPEAU01@AEAV?$allocator@U?$_Tree_node@U?$pair@QEBDUsTextureDef@CSimpleSprite@@@std@@PEAX@std@@@1@@Z 000000014003bb00     Framework:SimpleSprite.obj
 0003:0000bb1c       $unwind$??$addressof@U_Container_base12@std@@@std@@YAPEAU_Container_base12@0@AEAU10@@Z 000000014003bb1c     Framework:SimpleSprite.obj
 0003:0000bb36       $cppxdata$??$addressof@U_Container_base12@std@@@std@@YAPEAU_Container_base12@0@AEAU10@@Z 000000014003bb36     Framework:SimpleSprite.obj
 0003:0000bb3b       $ip2state$??$addressof@U_Container_base12@std@@@std@@YAPEAU_Container_base12@0@AEAU10@@Z 000000014003bb3b     Framework:SimpleSprite.obj
 0003:0000bb40       $unwind$??$_Find_lower_bound@PEBD@?$_Tree@V?$_Tmap_traits@PEBDUsTextureDef@CSimpleSprite@@U?$less@PEBD@std@@V?$allocator@U?$pair@QEBDUsTextureDef@CSimpleSprite@@@std@@@4@$0A@@std@@@std@@IEBA?AU?$_Tree_find_result@PEAU?$_Tree_node@U?$pair@QEBDUsTextureDef@CSimpleSprite@@@std@@PEAX@std@@@1@AEBQEBD@Z 000000014003bb40     Framework:SimpleSprite.obj
 0003:0000bb5c       $unwind$??$_Lower_bound_duplicate@PEBD@?$_Tree@V?$_Tmap_traits@PEBDUsTextureDef@CSimpleSprite@@U?$less@PEBD@std@@V?$allocator@U?$pair@QEBDUsTextureDef@CSimpleSprite@@@std@@@4@$0A@@std@@@std@@IEBA_NQEAU?$_Tree_node@U?$pair@QEBDUsTextureDef@CSimpleSprite@@@std@@PEAX@1@AEBQEBD@Z 000000014003bb5c     Framework:SimpleSprite.obj
 0003:0000bb70       $unwind$??$?0AEBQEAU?$_Tree_node@U?$pair@QEBDUsTextureDef@CSimpleSprite@@@std@@PEAX@std@@_N$0A@@?$pair@PEAU?$_Tree_node@U?$pair@QEBDUsTextureDef@CSimpleSprite@@@std@@PEAX@std@@_N@std@@QEAA@AEBQEAU?$_Tree_node@U?$pair@QEBDUsTextureDef@CSimpleSprite@@@std@@PEAX@1@$$QEA_N@Z 000000014003bb70     Framework:SimpleSprite.obj
 0003:0000bb8a       $cppxdata$??$?0AEBQEAU?$_Tree_node@U?$pair@QEBDUsTextureDef@CSimpleSprite@@@std@@PEAX@std@@_N$0A@@?$pair@PEAU?$_Tree_node@U?$pair@QEBDUsTextureDef@CSimpleSprite@@@std@@PEAX@std@@_N@std@@QEAA@AEBQEAU?$_Tree_node@U?$pair@QEBDUsTextureDef@CSimpleSprite@@@std@@PEAX@1@$$QEA_N@Z 000000014003bb8a     Framework:SimpleSprite.obj
 0003:0000bb8f       $ip2state$??$?0AEBQEAU?$_Tree_node@U?$pair@QEBDUsTextureDef@CSimpleSprite@@@std@@PEAX@std@@_N$0A@@?$pair@PEAU?$_Tree_node@U?$pair@QEBDUsTextureDef@CSimpleSprite@@@std@@PEAX@std@@_N@std@@QEAA@AEBQEAU?$_Tree_node@U?$pair@QEBDUsTextureDef@CSimpleSprite@@@std@@PEAX@1@$$QEA_N@Z 000000014003bb8f     Framework:SimpleSprite.obj
 0003:0000bb94       $unwind$??$forward@AEBQEBD@std@@YAAEBQEBDAEBQEBD@Z 000000014003bb94     Framework:SimpleSprite.obj
 0003:0000bbae       $cppxdata$??$forward@AEBQEBD@std@@YAAEBQEBDAEBQEBD@Z 000000014003bbae     Framework:SimpleSprite.obj
 0003:0000bbb3       $ip2state$??$forward@AEBQEBD@std@@YAAEBQEBDAEBQEBD@Z 000000014003bbb3     Framework:SimpleSprite.obj
 0003:0000bbb8       $unwind$??$forward_as_tuple@AEBQEBD@std@@YA?AV?$tuple@AEBQEBD@0@AEBQEBD@Z 000000014003bbb8     Framework:SimpleSprite.obj
 0003:0000bbd2       $cppxdata$??$forward_as_tuple@AEBQEBD@std@@YA?AV?$tuple@AEBQEBD@0@AEBQEBD@Z 000000014003bbd2     Framework:SimpleSprite.obj
 0003:0000bbd7       $ip2state$??$forward_as_tuple@AEBQEBD@std@@YA?AV?$tuple@AEBQEBD@0@AEBQEBD@Z 000000014003bbd7     Framework:SimpleSprite.obj
 0003:0000bbdc       $unwind$??0?$tuple@AEBQEBD@std@@QEAA@$$QEAV01@@Z 000000014003bbdc     Framework:SimpleSprite.obj
 0003:0000bbf6       $cppxdata$??0?$tuple@AEBQEBD@std@@QEAA@$$QEAV01@@Z 000000014003bbf6     Framework:SimpleSprite.obj
 0003:0000bbfb       $ip2state$??0?$tuple@AEBQEBD@std@@QEAA@$$QEAV01@@Z 000000014003bbfb     Framework:SimpleSprite.obj
 0003:0000bc00       $unwind$??$forward_as_tuple@$$V@std@@YA?AV?$tuple@$$V@0@XZ 000000014003bc00     Framework:SimpleSprite.obj
 0003:0000bc1a       $cppxdata$??$forward_as_tuple@$$V@std@@YA?AV?$tuple@$$V@0@XZ 000000014003bc1a     Framework:SimpleSprite.obj
 0003:0000bc1f       $ip2state$??$forward_as_tuple@$$V@std@@YA?AV?$tuple@$$V@0@XZ 000000014003bc1f     Framework:SimpleSprite.obj
 0003:0000bc24       $unwind$??0?$_Alloc_construct_ptr@V?$allocator@U?$_Tree_node@U?$pair@QEBDUsTextureDef@CSimpleSprite@@@std@@PEAX@std@@@std@@@std@@QEAA@AEAV?$allocator@U?$_Tree_node@U?$pair@QEBDUsTextureDef@CSimpleSprite@@@std@@PEAX@std@@@1@@Z 000000014003bc24     Framework:SimpleSprite.obj
 0003:0000bc38       $unwind$?_Release@?$_Alloc_construct_ptr@V?$allocator@U?$_Tree_node@U?$pair@QEBDUsTextureDef@CSimpleSprite@@@std@@PEAX@std@@@std@@@std@@QEAAPEAU?$_Tree_node@U?$pair@QEBDUsTextureDef@CSimpleSprite@@@std@@PEAX@2@XZ 000000014003bc38     Framework:SimpleSprite.obj
 0003:0000bc52       $cppxdata$?_Release@?$_Alloc_construct_ptr@V?$allocator@U?$_Tree_node@U?$pair@QEBDUsTextureDef@CSimpleSprite@@@std@@PEAX@std@@@std@@@std@@QEAAPEAU?$_Tree_node@U?$pair@QEBDUsTextureDef@CSimpleSprite@@@std@@PEAX@2@XZ 000000014003bc52     Framework:SimpleSprite.obj
 0003:0000bc57       $ip2state$?_Release@?$_Alloc_construct_ptr@V?$allocator@U?$_Tree_node@U?$pair@QEBDUsTextureDef@CSimpleSprite@@@std@@PEAX@std@@@std@@@std@@QEAAPEAU?$_Tree_node@U?$pair@QEBDUsTextureDef@CSimpleSprite@@@std@@PEAX@2@XZ 000000014003bc57     Framework:SimpleSprite.obj
 0003:0000bc5c       $unwind$?_Allocate@?$_Alloc_construct_ptr@V?$allocator@U?$_Tree_node@U?$pair@QEBDUsTextureDef@CSimpleSprite@@@std@@PEAX@std@@@std@@@std@@QEAAXXZ 000000014003bc5c     Framework:SimpleSprite.obj
 0003:0000bc70       $unwind$??1?$_Alloc_construct_ptr@V?$allocator@U?$_Tree_node@U?$pair@QEBDUsTextureDef@CSimpleSprite@@@std@@PEAX@std@@@std@@@std@@QEAA@XZ 000000014003bc70     Framework:SimpleSprite.obj
 0003:0000bc8a       $cppxdata$??1?$_Alloc_construct_ptr@V?$allocator@U?$_Tree_node@U?$pair@QEBDUsTextureDef@CSimpleSprite@@@std@@PEAX@std@@@std@@@std@@QEAA@XZ 000000014003bc8a     Framework:SimpleSprite.obj
 0003:0000bc8f       $ip2state$??1?$_Alloc_construct_ptr@V?$allocator@U?$_Tree_node@U?$pair@QEBDUsTextureDef@CSimpleSprite@@@std@@PEAX@std@@@std@@@std@@QEAA@XZ 000000014003bc8f     Framework:SimpleSprite.obj
 0003:0000bc94       $unwind$??0?$_Tree_temp_node_alloc@V?$allocator@U?$_Tree_node@U?$pair@QEBDUsTextureDef@CSimpleSprite@@@std@@PEAX@std@@@std@@@std@@QEAA@AEAV?$allocator@U?$_Tree_node@U?$pair@QEBDUsTextureDef@CSimpleSprite@@@std@@PEAX@std@@@1@@Z 000000014003bc94     Framework:SimpleSprite.obj
 0003:0000bcae       $cppxdata$??0?$_Tree_temp_node_alloc@V?$allocator@U?$_Tree_node@U?$pair@QEBDUsTextureDef@CSimpleSprite@@@std@@PEAX@std@@@std@@@std@@QEAA@AEAV?$allocator@U?$_Tree_node@U?$pair@QEBDUsTextureDef@CSimpleSprite@@@std@@PEAX@std@@@1@@Z 000000014003bcae     Framework:SimpleSprite.obj
 0003:0000bcb7       $stateUnwindMap$??0?$_Tree_temp_node_alloc@V?$allocator@U?$_Tree_node@U?$pair@QEBDUsTextureDef@CSimpleSprite@@@std@@PEAX@std@@@std@@@std@@QEAA@AEAV?$allocator@U?$_Tree_node@U?$pair@QEBDUsTextureDef@CSimpleSprite@@@std@@PEAX@std@@@1@@Z 000000014003bcb7     Framework:SimpleSprite.obj
 0003:0000bcbd       $ip2state$??0?$_Tree_temp_node_alloc@V?$allocator@U?$_Tree_node@U?$pair@QEBDUsTextureDef@CSimpleSprite@@@std@@PEAX@std@@@std@@@std@@QEAA@AEAV?$allocator@U?$_Tree_node@U?$pair@QEBDUsTextureDef@CSimpleSprite@@@std@@PEAX@std@@@1@@Z 000000014003bcbd     Framework:SimpleSprite.obj
 0003:0000bcc4       $unwind$?dtor$0@?0???0?$_Tree_temp_node_alloc@V?$allocator@U?$_Tree_node@U?$pair@QEBDUsTextureDef@CSimpleSprite@@@std@@PEAX@std@@@std@@@std@@QEAA@AEAV?$allocator@U?$_Tree_node@U?$pair@QEBDUsTextureDef@CSimpleSprite@@@std@@PEAX@std@@@1@@Z@4HA 000000014003bcc4     Framework:SimpleSprite.obj
 0003:0000bcd4       $unwind$??1?$_Tree_temp_node_alloc@V?$allocator@U?$_Tree_node@U?$pair@QEBDUsTextureDef@CSimpleSprite@@@std@@PEAX@std@@@std@@@std@@QEAA@XZ 000000014003bcd4     Framework:SimpleSprite.obj
 0003:0000bce8       $unwind$??1?$_Tree_temp_node@V?$allocator@U?$_Tree_node@U?$pair@QEBDUsTextureDef@CSimpleSprite@@@std@@PEAX@std@@@std@@@std@@QEAA@XZ 000000014003bce8     Framework:SimpleSprite.obj
 0003:0000bd02       $cppxdata$??1?$_Tree_temp_node@V?$allocator@U?$_Tree_node@U?$pair@QEBDUsTextureDef@CSimpleSprite@@@std@@PEAX@std@@@std@@@std@@QEAA@XZ 000000014003bd02     Framework:SimpleSprite.obj
 0003:0000bd07       $ip2state$??1?$_Tree_temp_node@V?$allocator@U?$_Tree_node@U?$pair@QEBDUsTextureDef@CSimpleSprite@@@std@@PEAX@std@@@std@@@std@@QEAA@XZ 000000014003bd07     Framework:SimpleSprite.obj
 0003:0000bd0c       $unwind$??$?0AEBUpiecewise_construct_t@std@@V?$tuple@AEBQEBD@1@V?$tuple@$$V@1@@?$_Tree_temp_node@V?$allocator@U?$_Tree_node@U?$pair@QEBDUsTextureDef@CSimpleSprite@@@std@@PEAX@std@@@std@@@std@@QEAA@AEAV?$allocator@U?$_Tree_node@U?$pair@QEBDUsTextureDef@CSimpleSprite@@@std@@PEAX@std@@@1@PEAU?$_Tree_node@U?$pair@QEBDUsTextureDef@CSimpleSprite@@@std@@PEAX@1@AEBUpiecewise_construct_t@1@$$QEAV?$tuple@AEBQEBD@1@$$QEAV?$tuple@$$V@1@@Z 000000014003bd0c     Framework:SimpleSprite.obj
 0003:0000bd26       $cppxdata$??$?0AEBUpiecewise_construct_t@std@@V?$tuple@AEBQEBD@1@V?$tuple@$$V@1@@?$_Tree_temp_node@V?$allocator@U?$_Tree_node@U?$pair@QEBDUsTextureDef@CSimpleSprite@@@std@@PEAX@std@@@std@@@std@@QEAA@AEAV?$allocator@U?$_Tree_node@U?$pair@QEBDUsTextureDef@CSimpleSprite@@@std@@PEAX@std@@@1@PEAU?$_Tree_node@U?$pair@QEBDUsTextureDef@CSimpleSprite@@@std@@PEAX@1@AEBUpiecewise_construct_t@1@$$QEAV?$tuple@AEBQEBD@1@$$QEAV?$tuple@$$V@1@@Z 000000014003bd26     Framework:SimpleSprite.obj
 0003:0000bd2f       $stateUnwindMap$??$?0AEBUpiecewise_construct_t@std@@V?$tuple@AEBQEBD@1@V?$tuple@$$V@1@@?$_Tree_temp_node@V?$allocator@U?$_Tree_node@U?$pair@QEBDUsTextureDef@CSimpleSprite@@@std@@PEAX@std@@@std@@@std@@QEAA@AEAV?$allocator@U?$_Tree_node@U?$pair@QEBDUsTextureDef@CSimpleSprite@@@std@@PEAX@std@@@1@PEAU?$_Tree_node@U?$pair@QEBDUsTextureDef@CSimpleSprite@@@std@@PEAX@1@AEBUpiecewise_construct_t@1@$$QEAV?$tuple@AEBQEBD@1@$$QEAV?$tuple@$$V@1@@Z 000000014003bd2f     Framework:SimpleSprite.obj
 0003:0000bd35       $ip2state$??$?0AEBUpiecewise_construct_t@std@@V?$tuple@AEBQEBD@1@V?$tuple@$$V@1@@?$_Tree_temp_node@V?$allocator@U?$_Tree_node@U?$pair@QEBDUsTextureDef@CSimpleSprite@@@std@@PEAX@std@@@std@@@std@@QEAA@AEAV?$allocator@U?$_Tree_node@U?$pair@QEBDUsTextureDef@CSimpleSprite@@@std@@PEAX@std@@@1@PEAU?$_Tree_node@U?$pair@QEBDUsTextureDef@CSimpleSprite@@@std@@PEAX@1@AEBUpiecewise_construct_t@1@$$QEAV?$tuple@AEBQEBD@1@$$QEAV?$tuple@$$V@1@@Z 000000014003bd35     Framework:SimpleSprite.obj
 0003:0000bd40       $unwind$?dtor$0@?0???$?0AEBUpiecewise_construct_t@std@@V?$tuple@AEBQEBD@1@V?$tuple@$$V@1@@?$_Tree_temp_node@V?$allocator@U?$_Tree_node@U?$pair@QEBDUsTextureDef@CSimpleSprite@@@std@@PEAX@std@@@std@@@std@@QEAA@AEAV?$allocator@U?$_Tree_node@U?$pair@QEBDUsTextureDef@CSimpleSprite@@@std@@PEAX@std@@@1@PEAU?$_Tree_node@U?$pair@QEBDUsTextureDef@CSimpleSprite@@@std@@PEAX@1@AEBUpiecewise_construct_t@1@$$QEAV?$tuple@AEBQEBD@1@$$QEAV?$tuple@$$V@1@@Z@4HA 000000014003bd40     Framework:SimpleSprite.obj
 0003:0000bd50       $unwind$??$?0PEAU?$_Tree_node@U?$pair@QEBDUsTextureDef@CSimpleSprite@@@std@@PEAX@std@@_N$0A@@?$pair@PEAU?$_Tree_node@U?$pair@QEBDUsTextureDef@CSimpleSprite@@@std@@PEAX@std@@_N@std@@QEAA@$$QEAPEAU?$_Tree_node@U?$pair@QEBDUsTextureDef@CSimpleSprite@@@std@@PEAX@1@$$QEA_N@Z 000000014003bd50     Framework:SimpleSprite.obj
 0003:0000bd6a       $cppxdata$??$?0PEAU?$_Tree_node@U?$pair@QEBDUsTextureDef@CSimpleSprite@@@std@@PEAX@std@@_N$0A@@?$pair@PEAU?$_Tree_node@U?$pair@QEBDUsTextureDef@CSimpleSprite@@@std@@PEAX@std@@_N@std@@QEAA@$$QEAPEAU?$_Tree_node@U?$pair@QEBDUsTextureDef@CSimpleSprite@@@std@@PEAX@1@$$QEA_N@Z 000000014003bd6a     Framework:SimpleSprite.obj
 0003:0000bd6f       $ip2state$??$?0PEAU?$_Tree_node@U?$pair@QEBDUsTextureDef@CSimpleSprite@@@std@@PEAX@std@@_N$0A@@?$pair@PEAU?$_Tree_node@U?$pair@QEBDUsTextureDef@CSimpleSprite@@@std@@PEAX@std@@_N@std@@QEAA@$$QEAPEAU?$_Tree_node@U?$pair@QEBDUsTextureDef@CSimpleSprite@@@std@@PEAX@1@$$QEA_N@Z 000000014003bd6f     Framework:SimpleSprite.obj
 0003:0000bd74       $unwind$??$_Erase_tree@V?$allocator@U?$_Tree_node@U?$pair@QEBDUsTextureDef@CSimpleSprite@@@std@@PEAX@std@@@std@@@?$_Tree_val@U?$_Tree_simple_types@U?$pair@QEBDUsTextureDef@CSimpleSprite@@@std@@@std@@@std@@QEAAXAEAV?$allocator@U?$_Tree_node@U?$pair@QEBDUsTextureDef@CSimpleSprite@@@std@@PEAX@std@@@1@PEAU?$_Tree_node@U?$pair@QEBDUsTextureDef@CSimpleSprite@@@std@@PEAX@1@@Z 000000014003bd74     Framework:SimpleSprite.obj
 0003:0000bd8e       $cppxdata$??$_Erase_tree@V?$allocator@U?$_Tree_node@U?$pair@QEBDUsTextureDef@CSimpleSprite@@@std@@PEAX@std@@@std@@@?$_Tree_val@U?$_Tree_simple_types@U?$pair@QEBDUsTextureDef@CSimpleSprite@@@std@@@std@@@std@@QEAAXAEAV?$allocator@U?$_Tree_node@U?$pair@QEBDUsTextureDef@CSimpleSprite@@@std@@PEAX@std@@@1@PEAU?$_Tree_node@U?$pair@QEBDUsTextureDef@CSimpleSprite@@@std@@PEAX@1@@Z 000000014003bd8e     Framework:SimpleSprite.obj
 0003:0000bd93       $ip2state$??$_Erase_tree@V?$allocator@U?$_Tree_node@U?$pair@QEBDUsTextureDef@CSimpleSprite@@@std@@PEAX@std@@@std@@@?$_Tree_val@U?$_Tree_simple_types@U?$pair@QEBDUsTextureDef@CSimpleSprite@@@std@@@std@@@std@@QEAAXAEAV?$allocator@U?$_Tree_node@U?$pair@QEBDUsTextureDef@CSimpleSprite@@@std@@PEAX@std@@@1@PEAU?$_Tree_node@U?$pair@QEBDUsTextureDef@CSimpleSprite@@@std@@PEAX@1@@Z 000000014003bd93     Framework:SimpleSprite.obj
 0003:0000bd98       $unwind$??$_Freenode0@V?$allocator@U?$_Tree_node@U?$pair@QEBDUsTextureDef@CSimpleSprite@@@std@@PEAX@std@@@std@@@?$_Tree_node@U?$pair@QEBDUsTextureDef@CSimpleSprite@@@std@@PEAX@std@@SAXAEAV?$allocator@U?$_Tree_node@U?$pair@QEBDUsTextureDef@CSimpleSprite@@@std@@PEAX@std@@@1@PEAU01@@Z 000000014003bd98     Framework:SimpleSprite.obj
 0003:0000bdb2       $cppxdata$??$_Freenode0@V?$allocator@U?$_Tree_node@U?$pair@QEBDUsTextureDef@CSimpleSprite@@@std@@PEAX@std@@@std@@@?$_Tree_node@U?$pair@QEBDUsTextureDef@CSimpleSprite@@@std@@PEAX@std@@SAXAEAV?$allocator@U?$_Tree_node@U?$pair@QEBDUsTextureDef@CSimpleSprite@@@std@@PEAX@std@@@1@PEAU01@@Z 000000014003bdb2     Framework:SimpleSprite.obj
 0003:0000bdb7       $ip2state$??$_Freenode0@V?$allocator@U?$_Tree_node@U?$pair@QEBDUsTextureDef@CSimpleSprite@@@std@@PEAX@std@@@std@@@?$_Tree_node@U?$pair@QEBDUsTextureDef@CSimpleSprite@@@std@@PEAX@std@@SAXAEAV?$allocator@U?$_Tree_node@U?$pair@QEBDUsTextureDef@CSimpleSprite@@@std@@PEAX@std@@@1@PEAU01@@Z 000000014003bdb7     Framework:SimpleSprite.obj
 0003:0000bdbc       $unwind$??$forward@AEBU?$less@PEBD@std@@@std@@YAAEBU?$less@PEBD@0@AEBU10@@Z 000000014003bdbc     Framework:SimpleSprite.obj
 0003:0000bdd6       $cppxdata$??$forward@AEBU?$less@PEBD@std@@@std@@YAAEBU?$less@PEBD@0@AEBU10@@Z 000000014003bdd6     Framework:SimpleSprite.obj
 0003:0000bddb       $ip2state$??$forward@AEBU?$less@PEBD@std@@@std@@YAAEBU?$less@PEBD@0@AEBU10@@Z 000000014003bddb     Framework:SimpleSprite.obj
 0003:0000bde0       $unwind$??$forward@U_Zero_then_variadic_args_t@std@@@std@@YA$$QEAU_Zero_then_variadic_args_t@0@AEAU10@@Z 000000014003bde0     Framework:SimpleSprite.obj
 0003:0000bdfa       $cppxdata$??$forward@U_Zero_then_variadic_args_t@std@@@std@@YA$$QEAU_Zero_then_variadic_args_t@0@AEAU10@@Z 000000014003bdfa     Framework:SimpleSprite.obj
 0003:0000bdff       $ip2state$??$forward@U_Zero_then_variadic_args_t@std@@@std@@YA$$QEAU_Zero_then_variadic_args_t@0@AEAU10@@Z 000000014003bdff     Framework:SimpleSprite.obj
 0003:0000be04       $unwind$??$_Construct_in_place@PEAU?$_Tree_node@U?$pair@QEBDUsTextureDef@CSimpleSprite@@@std@@PEAX@std@@AEBQEAU12@@std@@YAXAEAPEAU?$_Tree_node@U?$pair@QEBDUsTextureDef@CSimpleSprite@@@std@@PEAX@0@AEBQEAU10@@Z 000000014003be04     Framework:SimpleSprite.obj
 0003:0000be1e       $cppxdata$??$_Construct_in_place@PEAU?$_Tree_node@U?$pair@QEBDUsTextureDef@CSimpleSprite@@@std@@PEAX@std@@AEBQEAU12@@std@@YAXAEAPEAU?$_Tree_node@U?$pair@QEBDUsTextureDef@CSimpleSprite@@@std@@PEAX@0@AEBQEAU10@@Z 000000014003be1e     Framework:SimpleSprite.obj
 0003:0000be23       $ip2state$??$_Construct_in_place@PEAU?$_Tree_node@U?$pair@QEBDUsTextureDef@CSimpleSprite@@@std@@PEAX@std@@AEBQEAU12@@std@@YAXAEAPEAU?$_Tree_node@U?$pair@QEBDUsTextureDef@CSimpleSprite@@@std@@PEAX@0@AEBQEAU10@@Z 000000014003be23     Framework:SimpleSprite.obj
 0003:0000be28       $unwind$??$_Destroy_in_place@PEAU?$_Tree_node@U?$pair@QEBDUsTextureDef@CSimpleSprite@@@std@@PEAX@std@@@std@@YAXAEAPEAU?$_Tree_node@U?$pair@QEBDUsTextureDef@CSimpleSprite@@@std@@PEAX@0@@Z 000000014003be28     Framework:SimpleSprite.obj
 0003:0000be42       $cppxdata$??$_Destroy_in_place@PEAU?$_Tree_node@U?$pair@QEBDUsTextureDef@CSimpleSprite@@@std@@PEAX@std@@@std@@YAXAEAPEAU?$_Tree_node@U?$pair@QEBDUsTextureDef@CSimpleSprite@@@std@@PEAX@0@@Z 000000014003be42     Framework:SimpleSprite.obj
 0003:0000be47       $ip2state$??$_Destroy_in_place@PEAU?$_Tree_node@U?$pair@QEBDUsTextureDef@CSimpleSprite@@@std@@PEAX@std@@@std@@YAXAEAPEAU?$_Tree_node@U?$pair@QEBDUsTextureDef@CSimpleSprite@@@std@@PEAX@0@@Z 000000014003be47     Framework:SimpleSprite.obj
 0003:0000be4c       $unwind$??$addressof@U?$pair@QEBDUsTextureDef@CSimpleSprite@@@std@@@std@@YAPEAU?$pair@QEBDUsTextureDef@CSimpleSprite@@@0@AEAU10@@Z 000000014003be4c     Framework:SimpleSprite.obj
 0003:0000be66       $cppxdata$??$addressof@U?$pair@QEBDUsTextureDef@CSimpleSprite@@@std@@@std@@YAPEAU?$pair@QEBDUsTextureDef@CSimpleSprite@@@0@AEAU10@@Z 000000014003be66     Framework:SimpleSprite.obj
 0003:0000be6b       $ip2state$??$addressof@U?$pair@QEBDUsTextureDef@CSimpleSprite@@@std@@@std@@YAPEAU?$pair@QEBDUsTextureDef@CSimpleSprite@@@0@AEAU10@@Z 000000014003be6b     Framework:SimpleSprite.obj
 0003:0000be70       $unwind$??$destroy@U?$pair@QEBDUsTextureDef@CSimpleSprite@@@std@@@?$_Default_allocator_traits@V?$allocator@U?$_Tree_node@U?$pair@QEBDUsTextureDef@CSimpleSprite@@@std@@PEAX@std@@@std@@@std@@SAXAEAV?$allocator@U?$_Tree_node@U?$pair@QEBDUsTextureDef@CSimpleSprite@@@std@@PEAX@std@@@1@QEAU?$pair@QEBDUsTextureDef@CSimpleSprite@@@1@@Z 000000014003be70     Framework:SimpleSprite.obj
 0003:0000be84       $unwind$??$exchange@PEAU?$_Tree_node@U?$pair@QEBDUsTextureDef@CSimpleSprite@@@std@@PEAX@std@@$$T@std@@YAPEAU?$_Tree_node@U?$pair@QEBDUsTextureDef@CSimpleSprite@@@std@@PEAX@0@AEAPEAU10@$$QEA$$T@Z 000000014003be84     Framework:SimpleSprite.obj
 0003:0000be98       $unwind$??$addressof@$$CBV?$_Tree_val@U?$_Tree_simple_types@U?$pair@QEBDUsTextureDef@CSimpleSprite@@@std@@@std@@@std@@@std@@YAPEBV?$_Tree_val@U?$_Tree_simple_types@U?$pair@QEBDUsTextureDef@CSimpleSprite@@@std@@@std@@@0@AEBV10@@Z 000000014003be98     Framework:SimpleSprite.obj
 0003:0000beb2       $cppxdata$??$addressof@$$CBV?$_Tree_val@U?$_Tree_simple_types@U?$pair@QEBDUsTextureDef@CSimpleSprite@@@std@@@std@@@std@@@std@@YAPEBV?$_Tree_val@U?$_Tree_simple_types@U?$pair@QEBDUsTextureDef@CSimpleSprite@@@std@@@std@@@0@AEBV10@@Z 000000014003beb2     Framework:SimpleSprite.obj
 0003:0000beb7       $ip2state$??$addressof@$$CBV?$_Tree_val@U?$_Tree_simple_types@U?$pair@QEBDUsTextureDef@CSimpleSprite@@@std@@@std@@@std@@@std@@YAPEBV?$_Tree_val@U?$_Tree_simple_types@U?$pair@QEBDUsTextureDef@CSimpleSprite@@@std@@@std@@@0@AEBV10@@Z 000000014003beb7     Framework:SimpleSprite.obj
 0003:0000bebc       $unwind$??$_Get_size_of_n@$0DI@@std@@YA_K_K@Z 000000014003bebc     Framework:SimpleSprite.obj
 0003:0000bed0       $unwind$??$_Kfn@QEBDUsTextureDef@CSimpleSprite@@@?$_Tmap_traits@PEBDUsTextureDef@CSimpleSprite@@U?$less@PEBD@std@@V?$allocator@U?$pair@QEBDUsTextureDef@CSimpleSprite@@@std@@@4@$0A@@std@@SAAEBQEBDAEBU?$pair@QEBDUsTextureDef@CSimpleSprite@@@1@@Z 000000014003bed0     Framework:SimpleSprite.obj
 0003:0000bee4       $unwind$??$_Debug_lt_pred@AEBU?$less@PEBD@std@@AEBQEBDAEBQEBD$0A@@std@@YA_NAEBU?$less@PEBD@0@AEBQEBD1@Z 000000014003bee4     Framework:SimpleSprite.obj
 0003:0000bef8       $unwind$??$forward@AEBQEAU?$_Tree_node@U?$pair@QEBDUsTextureDef@CSimpleSprite@@@std@@PEAX@std@@@std@@YAAEBQEAU?$_Tree_node@U?$pair@QEBDUsTextureDef@CSimpleSprite@@@std@@PEAX@0@AEBQEAU10@@Z 000000014003bef8     Framework:SimpleSprite.obj
 0003:0000bf12       $cppxdata$??$forward@AEBQEAU?$_Tree_node@U?$pair@QEBDUsTextureDef@CSimpleSprite@@@std@@PEAX@std@@@std@@YAAEBQEAU?$_Tree_node@U?$pair@QEBDUsTextureDef@CSimpleSprite@@@std@@PEAX@0@AEBQEAU10@@Z 000000014003bf12     Framework:SimpleSprite.obj
 0003:0000bf17       $ip2state$??$forward@AEBQEAU?$_Tree_node@U?$pair@QEBDUsTextureDef@CSimpleSprite@@@std@@PEAX@std@@@std@@YAAEBQEAU?$_Tree_node@U?$pair@QEBDUsTextureDef@CSimpleSprite@@@std@@PEAX@0@AEBQEAU10@@Z 000000014003bf17     Framework:SimpleSprite.obj
 0003:0000bf1c       $unwind$??$forward@_N@std@@YA$$QEA_NAEA_N@Z 000000014003bf1c     Framework:SimpleSprite.obj
 0003:0000bf36       $cppxdata$??$forward@_N@std@@YA$$QEA_NAEA_N@Z 000000014003bf36     Framework:SimpleSprite.obj
 0003:0000bf3b       $ip2state$??$forward@_N@std@@YA$$QEA_NAEA_N@Z 000000014003bf3b     Framework:SimpleSprite.obj
 0003:0000bf40       $unwind$??$?0AEBQEBD$0A@@?$tuple@AEBQEBD@std@@QEAA@AEBQEBD@Z 000000014003bf40     Framework:SimpleSprite.obj
 0003:0000bf5a       $cppxdata$??$?0AEBQEBD$0A@@?$tuple@AEBQEBD@std@@QEAA@AEBQEBD@Z 000000014003bf5a     Framework:SimpleSprite.obj
 0003:0000bf5f       $ip2state$??$?0AEBQEBD$0A@@?$tuple@AEBQEBD@std@@QEAA@AEBQEBD@Z 000000014003bf5f     Framework:SimpleSprite.obj
 0003:0000bf64       $unwind$??$forward@AEBUpiecewise_construct_t@std@@@std@@YAAEBUpiecewise_construct_t@0@AEBU10@@Z 000000014003bf64     Framework:SimpleSprite.obj
 0003:0000bf7e       $cppxdata$??$forward@AEBUpiecewise_construct_t@std@@@std@@YAAEBUpiecewise_construct_t@0@AEBU10@@Z 000000014003bf7e     Framework:SimpleSprite.obj
 0003:0000bf83       $ip2state$??$forward@AEBUpiecewise_construct_t@std@@@std@@YAAEBUpiecewise_construct_t@0@AEBU10@@Z 000000014003bf83     Framework:SimpleSprite.obj
 0003:0000bf88       $unwind$??$forward@V?$tuple@AEBQEBD@std@@@std@@YA$$QEAV?$tuple@AEBQEBD@0@AEAV10@@Z 000000014003bf88     Framework:SimpleSprite.obj
 0003:0000bfa2       $cppxdata$??$forward@V?$tuple@AEBQEBD@std@@@std@@YA$$QEAV?$tuple@AEBQEBD@0@AEAV10@@Z 000000014003bfa2     Framework:SimpleSprite.obj
 0003:0000bfa7       $ip2state$??$forward@V?$tuple@AEBQEBD@std@@@std@@YA$$QEAV?$tuple@AEBQEBD@0@AEAV10@@Z 000000014003bfa7     Framework:SimpleSprite.obj
 0003:0000bfac       $unwind$??$forward@V?$tuple@$$V@std@@@std@@YA$$QEAV?$tuple@$$V@0@AEAV10@@Z 000000014003bfac     Framework:SimpleSprite.obj
 0003:0000bfc6       $cppxdata$??$forward@V?$tuple@$$V@std@@@std@@YA$$QEAV?$tuple@$$V@0@AEAV10@@Z 000000014003bfc6     Framework:SimpleSprite.obj
 0003:0000bfcb       $ip2state$??$forward@V?$tuple@$$V@std@@@std@@YA$$QEAV?$tuple@$$V@0@AEAV10@@Z 000000014003bfcb     Framework:SimpleSprite.obj
 0003:0000bfd0       $unwind$??$construct@U?$pair@QEBDUsTextureDef@CSimpleSprite@@@std@@AEBUpiecewise_construct_t@2@V?$tuple@AEBQEBD@2@V?$tuple@$$V@2@@?$_Default_allocator_traits@V?$allocator@U?$_Tree_node@U?$pair@QEBDUsTextureDef@CSimpleSprite@@@std@@PEAX@std@@@std@@@std@@SAXAEAV?$allocator@U?$_Tree_node@U?$pair@QEBDUsTextureDef@CSimpleSprite@@@std@@PEAX@std@@@1@QEAU?$pair@QEBDUsTextureDef@CSimpleSprite@@@1@AEBUpiecewise_construct_t@1@$$QEAV?$tuple@AEBQEBD@1@$$QEAV?$tuple@$$V@1@@Z 000000014003bfd0     Framework:SimpleSprite.obj
 0003:0000bfe4       $unwind$??$_Construct_in_place@PEAU?$_Tree_node@U?$pair@QEBDUsTextureDef@CSimpleSprite@@@std@@PEAX@std@@AEAPEAU12@@std@@YAXAEAPEAU?$_Tree_node@U?$pair@QEBDUsTextureDef@CSimpleSprite@@@std@@PEAX@0@0@Z 000000014003bfe4     Framework:SimpleSprite.obj
 0003:0000bffe       $cppxdata$??$_Construct_in_place@PEAU?$_Tree_node@U?$pair@QEBDUsTextureDef@CSimpleSprite@@@std@@PEAX@std@@AEAPEAU12@@std@@YAXAEAPEAU?$_Tree_node@U?$pair@QEBDUsTextureDef@CSimpleSprite@@@std@@PEAX@0@0@Z 000000014003bffe     Framework:SimpleSprite.obj
 0003:0000c003       $ip2state$??$_Construct_in_place@PEAU?$_Tree_node@U?$pair@QEBDUsTextureDef@CSimpleSprite@@@std@@PEAX@std@@AEAPEAU12@@std@@YAXAEAPEAU?$_Tree_node@U?$pair@QEBDUsTextureDef@CSimpleSprite@@@std@@PEAX@0@0@Z 000000014003c003     Framework:SimpleSprite.obj
 0003:0000c008       $unwind$??$forward@PEAU?$_Tree_node@U?$pair@QEBDUsTextureDef@CSimpleSprite@@@std@@PEAX@std@@@std@@YA$$QEAPEAU?$_Tree_node@U?$pair@QEBDUsTextureDef@CSimpleSprite@@@std@@PEAX@0@AEAPEAU10@@Z 000000014003c008     Framework:SimpleSprite.obj
 0003:0000c022       $cppxdata$??$forward@PEAU?$_Tree_node@U?$pair@QEBDUsTextureDef@CSimpleSprite@@@std@@PEAX@std@@@std@@YA$$QEAPEAU?$_Tree_node@U?$pair@QEBDUsTextureDef@CSimpleSprite@@@std@@PEAX@0@AEAPEAU10@@Z 000000014003c022     Framework:SimpleSprite.obj
 0003:0000c027       $ip2state$??$forward@PEAU?$_Tree_node@U?$pair@QEBDUsTextureDef@CSimpleSprite@@@std@@PEAX@std@@@std@@YA$$QEAPEAU?$_Tree_node@U?$pair@QEBDUsTextureDef@CSimpleSprite@@@std@@PEAX@0@AEAPEAU10@@Z 000000014003c027     Framework:SimpleSprite.obj
 0003:0000c02c       $unwind$??$exchange@PEAU?$_Tree_node@U?$pair@QEBDUsTextureDef@CSimpleSprite@@@std@@PEAX@std@@AEAPEAU12@@std@@YAPEAU?$_Tree_node@U?$pair@QEBDUsTextureDef@CSimpleSprite@@@std@@PEAX@0@AEAPEAU10@0@Z 000000014003c02c     Framework:SimpleSprite.obj
 0003:0000c040       $unwind$??$_Freenode@V?$allocator@U?$_Tree_node@U?$pair@QEBDUsTextureDef@CSimpleSprite@@@std@@PEAX@std@@@std@@@?$_Tree_node@U?$pair@QEBDUsTextureDef@CSimpleSprite@@@std@@PEAX@std@@SAXAEAV?$allocator@U?$_Tree_node@U?$pair@QEBDUsTextureDef@CSimpleSprite@@@std@@PEAX@std@@@1@PEAU01@@Z 000000014003c040     Framework:SimpleSprite.obj
 0003:0000c05a       $cppxdata$??$_Freenode@V?$allocator@U?$_Tree_node@U?$pair@QEBDUsTextureDef@CSimpleSprite@@@std@@PEAX@std@@@std@@@?$_Tree_node@U?$pair@QEBDUsTextureDef@CSimpleSprite@@@std@@PEAX@std@@SAXAEAV?$allocator@U?$_Tree_node@U?$pair@QEBDUsTextureDef@CSimpleSprite@@@std@@PEAX@std@@@1@PEAU01@@Z 000000014003c05a     Framework:SimpleSprite.obj
 0003:0000c05f       $ip2state$??$_Freenode@V?$allocator@U?$_Tree_node@U?$pair@QEBDUsTextureDef@CSimpleSprite@@@std@@PEAX@std@@@std@@@?$_Tree_node@U?$pair@QEBDUsTextureDef@CSimpleSprite@@@std@@PEAX@std@@SAXAEAV?$allocator@U?$_Tree_node@U?$pair@QEBDUsTextureDef@CSimpleSprite@@@std@@PEAX@std@@@1@PEAU01@@Z 000000014003c05f     Framework:SimpleSprite.obj
 0003:0000c064       $unwind$??$addressof@PEAU?$_Tree_node@U?$pair@QEBDUsTextureDef@CSimpleSprite@@@std@@PEAX@std@@@std@@YAPEAPEAU?$_Tree_node@U?$pair@QEBDUsTextureDef@CSimpleSprite@@@std@@PEAX@0@AEAPEAU10@@Z 000000014003c064     Framework:SimpleSprite.obj
 0003:0000c07e       $cppxdata$??$addressof@PEAU?$_Tree_node@U?$pair@QEBDUsTextureDef@CSimpleSprite@@@std@@PEAX@std@@@std@@YAPEAPEAU?$_Tree_node@U?$pair@QEBDUsTextureDef@CSimpleSprite@@@std@@PEAX@0@AEAPEAU10@@Z 000000014003c07e     Framework:SimpleSprite.obj
 0003:0000c083       $ip2state$??$addressof@PEAU?$_Tree_node@U?$pair@QEBDUsTextureDef@CSimpleSprite@@@std@@PEAX@std@@@std@@YAPEAPEAU?$_Tree_node@U?$pair@QEBDUsTextureDef@CSimpleSprite@@@std@@PEAX@0@AEAPEAU10@@Z 000000014003c083     Framework:SimpleSprite.obj
 0003:0000c088       $unwind$??$?0U_Exact_args_t@std@@AEBQEBD$$V$0A@@?$tuple@AEBQEBD@std@@QEAA@U_Exact_args_t@1@AEBQEBD@Z 000000014003c088     Framework:SimpleSprite.obj
 0003:0000c09c       $unwind$??$?0AEBQEBD$$Z$$V@?$pair@QEBDUsTextureDef@CSimpleSprite@@@std@@QEAA@Upiecewise_construct_t@1@V?$tuple@AEBQEBD@1@V?$tuple@$$V@1@@Z 000000014003c09c     Framework:SimpleSprite.obj
 0003:0000c0b0       $unwind$??$forward@AEAPEAU?$_Tree_node@U?$pair@QEBDUsTextureDef@CSimpleSprite@@@std@@PEAX@std@@@std@@YAAEAPEAU?$_Tree_node@U?$pair@QEBDUsTextureDef@CSimpleSprite@@@std@@PEAX@0@AEAPEAU10@@Z 000000014003c0b0     Framework:SimpleSprite.obj
 0003:0000c0ca       $cppxdata$??$forward@AEAPEAU?$_Tree_node@U?$pair@QEBDUsTextureDef@CSimpleSprite@@@std@@PEAX@std@@@std@@YAAEAPEAU?$_Tree_node@U?$pair@QEBDUsTextureDef@CSimpleSprite@@@std@@PEAX@0@AEAPEAU10@@Z 000000014003c0ca     Framework:SimpleSprite.obj
 0003:0000c0cf       $ip2state$??$forward@AEAPEAU?$_Tree_node@U?$pair@QEBDUsTextureDef@CSimpleSprite@@@std@@PEAX@std@@@std@@YAAEAPEAU?$_Tree_node@U?$pair@QEBDUsTextureDef@CSimpleSprite@@@std@@PEAX@0@AEAPEAU10@@Z 000000014003c0cf     Framework:SimpleSprite.obj
 0003:0000c0d4       $unwind$??$?0U_Exact_args_t@std@@$0A@@?$tuple@$$V@std@@QEAA@U_Exact_args_t@1@@Z 000000014003c0d4     Framework:SimpleSprite.obj
 0003:0000c0ee       $cppxdata$??$?0U_Exact_args_t@std@@$0A@@?$tuple@$$V@std@@QEAA@U_Exact_args_t@1@@Z 000000014003c0ee     Framework:SimpleSprite.obj
 0003:0000c0f3       $ip2state$??$?0U_Exact_args_t@std@@$0A@@?$tuple@$$V@std@@QEAA@U_Exact_args_t@1@@Z 000000014003c0f3     Framework:SimpleSprite.obj
 0003:0000c0f8       $unwind$??$?0AEBQEBD@?$_Tuple_val@AEBQEBD@std@@QEAA@AEBQEBD@Z 000000014003c0f8     Framework:SimpleSprite.obj
 0003:0000c10c       $unwind$??$?0V?$tuple@AEBQEBD@std@@V?$tuple@$$V@1@$0A@$$Z$S@?$pair@QEBDUsTextureDef@CSimpleSprite@@@std@@QEAA@AEAV?$tuple@AEBQEBD@1@AEAV?$tuple@$$V@1@U?$integer_sequence@_K$0A@@1@U?$integer_sequence@_K$S@1@@Z 000000014003c10c     Framework:SimpleSprite.obj
 0003:0000c120       $unwind$??$move@AEAV?$tuple@AEBQEBD@std@@@std@@YA$$QEAV?$tuple@AEBQEBD@0@AEAV10@@Z 000000014003c120     Framework:SimpleSprite.obj
 0003:0000c13a       $cppxdata$??$move@AEAV?$tuple@AEBQEBD@std@@@std@@YA$$QEAV?$tuple@AEBQEBD@0@AEAV10@@Z 000000014003c13a     Framework:SimpleSprite.obj
 0003:0000c13f       $ip2state$??$move@AEAV?$tuple@AEBQEBD@std@@@std@@YA$$QEAV?$tuple@AEBQEBD@0@AEAV10@@Z 000000014003c13f     Framework:SimpleSprite.obj
 0003:0000c144       $unwind$??$get@$0A@AEBQEBD@std@@YAAEBQEBD$$QEAV?$tuple@AEBQEBD@0@@Z 000000014003c144     Framework:SimpleSprite.obj
 0003:0000c15e       $cppxdata$??$get@$0A@AEBQEBD@std@@YAAEBQEBD$$QEAV?$tuple@AEBQEBD@0@@Z 000000014003c15e     Framework:SimpleSprite.obj
 0003:0000c163       $ip2state$??$get@$0A@AEBQEBD@std@@YAAEBQEBD$$QEAV?$tuple@AEBQEBD@0@@Z 000000014003c163     Framework:SimpleSprite.obj
 0003:0000c168       $unwind$??_H@YAXPEAX_K1P6APEAX0@Z@Z 000000014003c168     Framework:SimpleController.obj
 0003:0000c17c       $unwind$??0CController@@QEAA@XZ 000000014003c17c     Framework:SimpleController.obj
 0003:0000c190       $unwind$?GetInstance@CSimpleControllers@@SAAEAV1@XZ 000000014003c190     Framework:SimpleController.obj
 0003:0000c1aa       $cppxdata$?GetInstance@CSimpleControllers@@SAAEAV1@XZ 000000014003c1aa     Framework:SimpleController.obj
 0003:0000c1b3       $stateUnwindMap$?GetInstance@CSimpleControllers@@SAAEAV1@XZ 000000014003c1b3     Framework:SimpleController.obj
 0003:0000c1b9       $ip2state$?GetInstance@CSimpleControllers@@SAAEAV1@XZ 000000014003c1b9     Framework:SimpleController.obj
 0003:0000c1c0       $unwind$?dtor$0@?0??GetInstance@CSimpleControllers@@SAAEAV1@XZ@4HA 000000014003c1c0     Framework:SimpleController.obj
 0003:0000c1d0       $unwind$?Update@CSimpleControllers@@QEAAXXZ 000000014003c1d0     Framework:SimpleController.obj
 0003:0000c1e4       $unwind$??0CSimpleControllers@@QEAA@XZ 000000014003c1e4     Framework:SimpleController.obj
 0003:0000c1f8       $unwind$?_Adopt@_Iterator_base0@std@@QEAAXPEBX@Z 000000014003c1f8     Framework:SimpleSound.obj
 0003:0000c212       $cppxdata$?_Adopt@_Iterator_base0@std@@QEAAXPEBX@Z 000000014003c212     Framework:SimpleSound.obj
 0003:0000c217       $ip2state$?_Adopt@_Iterator_base0@std@@QEAAXPEBX@Z 000000014003c217     Framework:SimpleSound.obj
 0003:0000c21c       $unwind$?GetInstance@CSimpleSound@@SAAEAV1@XZ 000000014003c21c     Framework:SimpleSound.obj
 0003:0000c236       $cppxdata$?GetInstance@CSimpleSound@@SAAEAV1@XZ 000000014003c236     Framework:SimpleSound.obj
 0003:0000c23f       $stateUnwindMap$?GetInstance@CSimpleSound@@SAAEAV1@XZ 000000014003c23f     Framework:SimpleSound.obj
 0003:0000c245       $ip2state$?GetInstance@CSimpleSound@@SAAEAV1@XZ 000000014003c245     Framework:SimpleSound.obj
 0003:0000c24c       $unwind$?dtor$0@?0??GetInstance@CSimpleSound@@SAAEAV1@XZ@4HA 000000014003c24c     Framework:SimpleSound.obj
 0003:0000c25c       $unwind$??0CSimpleSound@@QEAA@XZ 000000014003c25c     Framework:SimpleSound.obj
 0003:0000c270       $unwind$??1CSimpleSound@@QEAA@XZ 000000014003c270     Framework:SimpleSound.obj
 0003:0000c28a       $cppxdata$??1CSimpleSound@@QEAA@XZ 000000014003c28a     Framework:SimpleSound.obj
 0003:0000c28f       $ip2state$??1CSimpleSound@@QEAA@XZ 000000014003c28f     Framework:SimpleSound.obj
 0003:0000c294       $unwind$?Initialize@CSimpleSound@@QEAA_NPEAUHWND__@@@Z 000000014003c294     Framework:SimpleSound.obj
 0003:0000c2a8       $unwind$?Shutdown@CSimpleSound@@QEAAXXZ 000000014003c2a8     Framework:SimpleSound.obj
 0003:0000c2c4       $unwind$?StartSound@CSimpleSound@@QEAA_NPEBDK@Z 000000014003c2c4     Framework:SimpleSound.obj
 0003:0000c2d8       $unwind$?StopSound@CSimpleSound@@QEAA_NPEBD@Z 000000014003c2d8     Framework:SimpleSound.obj
 0003:0000c2ec       $unwind$?IsPlaying@CSimpleSound@@QEAA_NPEBD@Z 000000014003c2ec     Framework:SimpleSound.obj
 0003:0000c308       $unwind$?InitializeDirectSound@CSimpleSound@@AEAA_NPEAUHWND__@@@Z 000000014003c308     Framework:SimpleSound.obj
 0003:0000c324       $unwind$?ShutdownDirectSound@CSimpleSound@@AEAAXXZ 000000014003c324     Framework:SimpleSound.obj
 0003:0000c338       $unwind$?LoadWaveFile@CSimpleSound@@AEAA_NPEBD@Z 000000014003c338     Framework:SimpleSound.obj
 0003:0000c354       $unwind$??0?$allocator@U?$_Tree_node@U?$pair@QEBDPEAUIDirectSoundBuffer8@@@std@@PEAX@std@@@std@@QEAA@XZ 000000014003c354     Framework:SimpleSound.obj
 0003:0000c36e       $cppxdata$??0?$allocator@U?$_Tree_node@U?$pair@QEBDPEAUIDirectSoundBuffer8@@@std@@PEAX@std@@@std@@QEAA@XZ 000000014003c36e     Framework:SimpleSound.obj
 0003:0000c373       $ip2state$??0?$allocator@U?$_Tree_node@U?$pair@QEBDPEAUIDirectSoundBuffer8@@@std@@PEAX@std@@@std@@QEAA@XZ 000000014003c373     Framework:SimpleSound.obj
 0003:0000c378       $unwind$?deallocate@?$allocator@U?$_Tree_node@U?$pair@QEBDPEAUIDirectSoundBuffer8@@@std@@PEAX@std@@@std@@QEAAXQEAU?$_Tree_node@U?$pair@QEBDPEAUIDirectSoundBuffer8@@@std@@PEAX@2@_K@Z 000000014003c378     Framework:SimpleSound.obj
 0003:0000c38c       $unwind$?allocate@?$allocator@U?$_Tree_node@U?$pair@QEBDPEAUIDirectSoundBuffer8@@@std@@PEAX@std@@@std@@QEAAPEAU?$_Tree_node@U?$pair@QEBDPEAUIDirectSoundBuffer8@@@std@@PEAX@2@_K@Z 000000014003c38c     Framework:SimpleSound.obj
 0003:0000c3a0       $unwind$?deallocate@?$_Default_allocator_traits@V?$allocator@U?$_Tree_node@U?$pair@QEBDPEAUIDirectSoundBuffer8@@@std@@PEAX@std@@@std@@@std@@SAXAEAV?$allocator@U?$_Tree_node@U?$pair@QEBDPEAUIDirectSoundBuffer8@@@std@@PEAX@std@@@2@QEAU?$_Tree_node@U?$pair@QEBDPEAUIDirectSoundBuffer8@@@std@@PEAX@2@_K@Z 000000014003c3a0     Framework:SimpleSound.obj
 0003:0000c3b4       $unwind$?max_size@?$_Default_allocator_traits@V?$allocator@U?$_Tree_node@U?$pair@QEBDPEAUIDirectSoundBuffer8@@@std@@PEAX@std@@@std@@@std@@SA_KAEBV?$allocator@U?$_Tree_node@U?$pair@QEBDPEAUIDirectSoundBuffer8@@@std@@PEAX@std@@@2@@Z 000000014003c3b4     Framework:SimpleSound.obj
 0003:0000c3ce       $cppxdata$?max_size@?$_Default_allocator_traits@V?$allocator@U?$_Tree_node@U?$pair@QEBDPEAUIDirectSoundBuffer8@@@std@@PEAX@std@@@std@@@std@@SA_KAEBV?$allocator@U?$_Tree_node@U?$pair@QEBDPEAUIDirectSoundBuffer8@@@std@@PEAX@std@@@2@@Z 000000014003c3ce     Framework:SimpleSound.obj
 0003:0000c3d3       $ip2state$?max_size@?$_Default_allocator_traits@V?$allocator@U?$_Tree_node@U?$pair@QEBDPEAUIDirectSoundBuffer8@@@std@@PEAX@std@@@std@@@std@@SA_KAEBV?$allocator@U?$_Tree_node@U?$pair@QEBDPEAUIDirectSoundBuffer8@@@std@@PEAX@std@@@2@@Z 000000014003c3d3     Framework:SimpleSound.obj
 0003:0000c3d8       $unwind$??0?$_Tree@V?$_Tmap_traits@PEBDPEAUIDirectSoundBuffer8@@U?$less@PEBD@std@@V?$allocator@U?$pair@QEBDPEAUIDirectSoundBuffer8@@@std@@@3@$0A@@std@@@std@@QEAA@AEBU?$less@PEBD@1@@Z 000000014003c3d8     Framework:SimpleSound.obj
 0003:0000c3ec       $unwind$??1?$_Tree@V?$_Tmap_traits@PEBDPEAUIDirectSoundBuffer8@@U?$less@PEBD@std@@V?$allocator@U?$pair@QEBDPEAUIDirectSoundBuffer8@@@std@@@3@$0A@@std@@@std@@QEAA@XZ 000000014003c3ec     Framework:SimpleSound.obj
 0003:0000c40a       $cppxdata$??1?$_Tree@V?$_Tmap_traits@PEBDPEAUIDirectSoundBuffer8@@U?$less@PEBD@std@@V?$allocator@U?$pair@QEBDPEAUIDirectSoundBuffer8@@@std@@@3@$0A@@std@@@std@@QEAA@XZ 000000014003c40a     Framework:SimpleSound.obj
 0003:0000c40f       $ip2state$??1?$_Tree@V?$_Tmap_traits@PEBDPEAUIDirectSoundBuffer8@@U?$less@PEBD@std@@V?$allocator@U?$pair@QEBDPEAUIDirectSoundBuffer8@@@std@@@3@$0A@@std@@@std@@QEAA@XZ 000000014003c40f     Framework:SimpleSound.obj
 0003:0000c414       $unwind$?_Unchecked_begin@?$_Tree@V?$_Tmap_traits@PEBDPEAUIDirectSoundBuffer8@@U?$less@PEBD@std@@V?$allocator@U?$pair@QEBDPEAUIDirectSoundBuffer8@@@std@@@3@$0A@@std@@@std@@QEAA?AV?$_Tree_unchecked_iterator@V?$_Tree_val@U?$_Tree_simple_types@U?$pair@QEBDPEAUIDirectSoundBuffer8@@@std@@@std@@@std@@@2@XZ 000000014003c414     Framework:SimpleSound.obj
 0003:0000c42e       $cppxdata$?_Unchecked_begin@?$_Tree@V?$_Tmap_traits@PEBDPEAUIDirectSoundBuffer8@@U?$less@PEBD@std@@V?$allocator@U?$pair@QEBDPEAUIDirectSoundBuffer8@@@std@@@3@$0A@@std@@@std@@QEAA?AV?$_Tree_unchecked_iterator@V?$_Tree_val@U?$_Tree_simple_types@U?$pair@QEBDPEAUIDirectSoundBuffer8@@@std@@@std@@@std@@@2@XZ 000000014003c42e     Framework:SimpleSound.obj
 0003:0000c433       $ip2state$?_Unchecked_begin@?$_Tree@V?$_Tmap_traits@PEBDPEAUIDirectSoundBuffer8@@U?$less@PEBD@std@@V?$allocator@U?$pair@QEBDPEAUIDirectSoundBuffer8@@@std@@@3@$0A@@std@@@std@@QEAA?AV?$_Tree_unchecked_iterator@V?$_Tree_val@U?$_Tree_simple_types@U?$pair@QEBDPEAUIDirectSoundBuffer8@@@std@@@std@@@std@@@2@XZ 000000014003c433     Framework:SimpleSound.obj
 0003:0000c438       $unwind$?_Unchecked_end@?$_Tree@V?$_Tmap_traits@PEBDPEAUIDirectSoundBuffer8@@U?$less@PEBD@std@@V?$allocator@U?$pair@QEBDPEAUIDirectSoundBuffer8@@@std@@@3@$0A@@std@@@std@@QEBA?AU_Default_sentinel@2@XZ 000000014003c438     Framework:SimpleSound.obj
 0003:0000c452       $cppxdata$?_Unchecked_end@?$_Tree@V?$_Tmap_traits@PEBDPEAUIDirectSoundBuffer8@@U?$less@PEBD@std@@V?$allocator@U?$pair@QEBDPEAUIDirectSoundBuffer8@@@std@@@3@$0A@@std@@@std@@QEBA?AU_Default_sentinel@2@XZ 000000014003c452     Framework:SimpleSound.obj
 0003:0000c457       $ip2state$?_Unchecked_end@?$_Tree@V?$_Tmap_traits@PEBDPEAUIDirectSoundBuffer8@@U?$less@PEBD@std@@V?$allocator@U?$pair@QEBDPEAUIDirectSoundBuffer8@@@std@@@3@$0A@@std@@@std@@QEBA?AU_Default_sentinel@2@XZ 000000014003c457     Framework:SimpleSound.obj
 0003:0000c45c       $unwind$?max_size@?$_Tree@V?$_Tmap_traits@PEBDPEAUIDirectSoundBuffer8@@U?$less@PEBD@std@@V?$allocator@U?$pair@QEBDPEAUIDirectSoundBuffer8@@@std@@@3@$0A@@std@@@std@@QEBA_KXZ 000000014003c45c     Framework:SimpleSound.obj
 0003:0000c476       $cppxdata$?max_size@?$_Tree@V?$_Tmap_traits@PEBDPEAUIDirectSoundBuffer8@@U?$less@PEBD@std@@V?$allocator@U?$pair@QEBDPEAUIDirectSoundBuffer8@@@std@@@3@$0A@@std@@@std@@QEBA_KXZ 000000014003c476     Framework:SimpleSound.obj
 0003:0000c47b       $ip2state$?max_size@?$_Tree@V?$_Tmap_traits@PEBDPEAUIDirectSoundBuffer8@@U?$less@PEBD@std@@V?$allocator@U?$pair@QEBDPEAUIDirectSoundBuffer8@@@std@@@3@$0A@@std@@@std@@QEBA_KXZ 000000014003c47b     Framework:SimpleSound.obj
 0003:0000c480       $unwind$?clear@?$_Tree@V?$_Tmap_traits@PEBDPEAUIDirectSoundBuffer8@@U?$less@PEBD@std@@V?$allocator@U?$pair@QEBDPEAUIDirectSoundBuffer8@@@std@@@3@$0A@@std@@@std@@QEAAXXZ 000000014003c480     Framework:SimpleSound.obj
 0003:0000c49a       $cppxdata$?clear@?$_Tree@V?$_Tmap_traits@PEBDPEAUIDirectSoundBuffer8@@U?$less@PEBD@std@@V?$allocator@U?$pair@QEBDPEAUIDirectSoundBuffer8@@@std@@@3@$0A@@std@@@std@@QEAAXXZ 000000014003c49a     Framework:SimpleSound.obj
 0003:0000c49f       $ip2state$?clear@?$_Tree@V?$_Tmap_traits@PEBDPEAUIDirectSoundBuffer8@@U?$less@PEBD@std@@V?$allocator@U?$pair@QEBDPEAUIDirectSoundBuffer8@@@std@@@3@$0A@@std@@@std@@QEAAXXZ 000000014003c49f     Framework:SimpleSound.obj
 0003:0000c4a4       $unwind$?_Check_grow_by_1@?$_Tree@V?$_Tmap_traits@PEBDPEAUIDirectSoundBuffer8@@U?$less@PEBD@std@@V?$allocator@U?$pair@QEBDPEAUIDirectSoundBuffer8@@@std@@@3@$0A@@std@@@std@@IEAAXXZ 000000014003c4a4     Framework:SimpleSound.obj
 0003:0000c4b8       $unwind$?_Alloc_sentinel_and_proxy@?$_Tree@V?$_Tmap_traits@PEBDPEAUIDirectSoundBuffer8@@U?$less@PEBD@std@@V?$allocator@U?$pair@QEBDPEAUIDirectSoundBuffer8@@@std@@@3@$0A@@std@@@std@@IEAAXXZ 000000014003c4b8     Framework:SimpleSound.obj
 0003:0000c4d6       $cppxdata$?_Alloc_sentinel_and_proxy@?$_Tree@V?$_Tmap_traits@PEBDPEAUIDirectSoundBuffer8@@U?$less@PEBD@std@@V?$allocator@U?$pair@QEBDPEAUIDirectSoundBuffer8@@@std@@@3@$0A@@std@@@std@@IEAAXXZ 000000014003c4d6     Framework:SimpleSound.obj
 0003:0000c4df       $stateUnwindMap$?_Alloc_sentinel_and_proxy@?$_Tree@V?$_Tmap_traits@PEBDPEAUIDirectSoundBuffer8@@U?$less@PEBD@std@@V?$allocator@U?$pair@QEBDPEAUIDirectSoundBuffer8@@@std@@@3@$0A@@std@@@std@@IEAAXXZ 000000014003c4df     Framework:SimpleSound.obj
 0003:0000c4e5       $ip2state$?_Alloc_sentinel_and_proxy@?$_Tree@V?$_Tmap_traits@PEBDPEAUIDirectSoundBuffer8@@U?$less@PEBD@std@@V?$allocator@U?$pair@QEBDPEAUIDirectSoundBuffer8@@@std@@@3@$0A@@std@@@std@@IEAAXXZ 000000014003c4e5     Framework:SimpleSound.obj
 0003:0000c4f0       $unwind$?dtor$0@?0??_Alloc_sentinel_and_proxy@?$_Tree@V?$_Tmap_traits@PEBDPEAUIDirectSoundBuffer8@@U?$less@PEBD@std@@V?$allocator@U?$pair@QEBDPEAUIDirectSoundBuffer8@@@std@@@3@$0A@@std@@@std@@IEAAXXZ@4HA 000000014003c4f0     Framework:SimpleSound.obj
 0003:0000c500       $unwind$?_Getcomp@?$_Tree@V?$_Tmap_traits@PEBDPEAUIDirectSoundBuffer8@@U?$less@PEBD@std@@V?$allocator@U?$pair@QEBDPEAUIDirectSoundBuffer8@@@std@@@3@$0A@@std@@@std@@IEBAAEBU?$less@PEBD@2@XZ 000000014003c500     Framework:SimpleSound.obj
 0003:0000c51a       $cppxdata$?_Getcomp@?$_Tree@V?$_Tmap_traits@PEBDPEAUIDirectSoundBuffer8@@U?$less@PEBD@std@@V?$allocator@U?$pair@QEBDPEAUIDirectSoundBuffer8@@@std@@@3@$0A@@std@@@std@@IEBAAEBU?$less@PEBD@2@XZ 000000014003c51a     Framework:SimpleSound.obj
 0003:0000c51f       $ip2state$?_Getcomp@?$_Tree@V?$_Tmap_traits@PEBDPEAUIDirectSoundBuffer8@@U?$less@PEBD@std@@V?$allocator@U?$pair@QEBDPEAUIDirectSoundBuffer8@@@std@@@3@$0A@@std@@@std@@IEBAAEBU?$less@PEBD@2@XZ 000000014003c51f     Framework:SimpleSound.obj
 0003:0000c524       $unwind$?_Getal@?$_Tree@V?$_Tmap_traits@PEBDPEAUIDirectSoundBuffer8@@U?$less@PEBD@std@@V?$allocator@U?$pair@QEBDPEAUIDirectSoundBuffer8@@@std@@@3@$0A@@std@@@std@@IEAAAEAV?$allocator@U?$_Tree_node@U?$pair@QEBDPEAUIDirectSoundBuffer8@@@std@@PEAX@std@@@2@XZ 000000014003c524     Framework:SimpleSound.obj
 0003:0000c53e       $cppxdata$?_Getal@?$_Tree@V?$_Tmap_traits@PEBDPEAUIDirectSoundBuffer8@@U?$less@PEBD@std@@V?$allocator@U?$pair@QEBDPEAUIDirectSoundBuffer8@@@std@@@3@$0A@@std@@@std@@IEAAAEAV?$allocator@U?$_Tree_node@U?$pair@QEBDPEAUIDirectSoundBuffer8@@@std@@PEAX@std@@@2@XZ 000000014003c53e     Framework:SimpleSound.obj
 0003:0000c543       $ip2state$?_Getal@?$_Tree@V?$_Tmap_traits@PEBDPEAUIDirectSoundBuffer8@@U?$less@PEBD@std@@V?$allocator@U?$pair@QEBDPEAUIDirectSoundBuffer8@@@std@@@3@$0A@@std@@@std@@IEAAAEAV?$allocator@U?$_Tree_node@U?$pair@QEBDPEAUIDirectSoundBuffer8@@@std@@PEAX@std@@@2@XZ 000000014003c543     Framework:SimpleSound.obj
 0003:0000c548       $unwind$?_Getal@?$_Tree@V?$_Tmap_traits@PEBDPEAUIDirectSoundBuffer8@@U?$less@PEBD@std@@V?$allocator@U?$pair@QEBDPEAUIDirectSoundBuffer8@@@std@@@3@$0A@@std@@@std@@IEBAAEBV?$allocator@U?$_Tree_node@U?$pair@QEBDPEAUIDirectSoundBuffer8@@@std@@PEAX@std@@@2@XZ 000000014003c548     Framework:SimpleSound.obj
 0003:0000c562       $cppxdata$?_Getal@?$_Tree@V?$_Tmap_traits@PEBDPEAUIDirectSoundBuffer8@@U?$less@PEBD@std@@V?$allocator@U?$pair@QEBDPEAUIDirectSoundBuffer8@@@std@@@3@$0A@@std@@@std@@IEBAAEBV?$allocator@U?$_Tree_node@U?$pair@QEBDPEAUIDirectSoundBuffer8@@@std@@PEAX@std@@@2@XZ 000000014003c562     Framework:SimpleSound.obj
 0003:0000c567       $ip2state$?_Getal@?$_Tree@V?$_Tmap_traits@PEBDPEAUIDirectSoundBuffer8@@U?$less@PEBD@std@@V?$allocator@U?$pair@QEBDPEAUIDirectSoundBuffer8@@@std@@@3@$0A@@std@@@std@@IEBAAEBV?$allocator@U?$_Tree_node@U?$pair@QEBDPEAUIDirectSoundBuffer8@@@std@@PEAX@std@@@2@XZ 000000014003c567     Framework:SimpleSound.obj
 0003:0000c56c       $unwind$?_Get_scary@?$_Tree@V?$_Tmap_traits@PEBDPEAUIDirectSoundBuffer8@@U?$less@PEBD@std@@V?$allocator@U?$pair@QEBDPEAUIDirectSoundBuffer8@@@std@@@3@$0A@@std@@@std@@IEAAPEAV?$_Tree_val@U?$_Tree_simple_types@U?$pair@QEBDPEAUIDirectSoundBuffer8@@@std@@@std@@@2@XZ 000000014003c56c     Framework:SimpleSound.obj
 0003:0000c586       $cppxdata$?_Get_scary@?$_Tree@V?$_Tmap_traits@PEBDPEAUIDirectSoundBuffer8@@U?$less@PEBD@std@@V?$allocator@U?$pair@QEBDPEAUIDirectSoundBuffer8@@@std@@@3@$0A@@std@@@std@@IEAAPEAV?$_Tree_val@U?$_Tree_simple_types@U?$pair@QEBDPEAUIDirectSoundBuffer8@@@std@@@std@@@2@XZ 000000014003c586     Framework:SimpleSound.obj
 0003:0000c58b       $ip2state$?_Get_scary@?$_Tree@V?$_Tmap_traits@PEBDPEAUIDirectSoundBuffer8@@U?$less@PEBD@std@@V?$allocator@U?$pair@QEBDPEAUIDirectSoundBuffer8@@@std@@@3@$0A@@std@@@std@@IEAAPEAV?$_Tree_val@U?$_Tree_simple_types@U?$pair@QEBDPEAUIDirectSoundBuffer8@@@std@@@std@@@2@XZ 000000014003c58b     Framework:SimpleSound.obj
 0003:0000c590       $unwind$?_Get_scary@?$_Tree@V?$_Tmap_traits@PEBDPEAUIDirectSoundBuffer8@@U?$less@PEBD@std@@V?$allocator@U?$pair@QEBDPEAUIDirectSoundBuffer8@@@std@@@3@$0A@@std@@@std@@IEBAPEBV?$_Tree_val@U?$_Tree_simple_types@U?$pair@QEBDPEAUIDirectSoundBuffer8@@@std@@@std@@@2@XZ 000000014003c590     Framework:SimpleSound.obj
 0003:0000c5aa       $cppxdata$?_Get_scary@?$_Tree@V?$_Tmap_traits@PEBDPEAUIDirectSoundBuffer8@@U?$less@PEBD@std@@V?$allocator@U?$pair@QEBDPEAUIDirectSoundBuffer8@@@std@@@3@$0A@@std@@@std@@IEBAPEBV?$_Tree_val@U?$_Tree_simple_types@U?$pair@QEBDPEAUIDirectSoundBuffer8@@@std@@@std@@@2@XZ 000000014003c5aa     Framework:SimpleSound.obj
 0003:0000c5af       $ip2state$?_Get_scary@?$_Tree@V?$_Tmap_traits@PEBDPEAUIDirectSoundBuffer8@@U?$less@PEBD@std@@V?$allocator@U?$pair@QEBDPEAUIDirectSoundBuffer8@@@std@@@3@$0A@@std@@@std@@IEBAPEBV?$_Tree_val@U?$_Tree_simple_types@U?$pair@QEBDPEAUIDirectSoundBuffer8@@@std@@@std@@@2@XZ 000000014003c5af     Framework:SimpleSound.obj
 0003:0000c5b4       $unwind$??0?$_Tree_val@U?$_Tree_simple_types@U?$pair@QEBDPEAUIDirectSoundBuffer8@@@std@@@std@@@std@@QEAA@XZ 000000014003c5b4     Framework:SimpleSound.obj
 0003:0000c5c8       $unwind$?_Min@?$_Tree_val@U?$_Tree_simple_types@U?$pair@QEBDPEAUIDirectSoundBuffer8@@@std@@@std@@@std@@SAPEAU?$_Tree_node@U?$pair@QEBDPEAUIDirectSoundBuffer8@@@std@@PEAX@2@PEAU32@@Z 000000014003c5c8     Framework:SimpleSound.obj
 0003:0000c5dc       $unwind$?_Lrotate@?$_Tree_val@U?$_Tree_simple_types@U?$pair@QEBDPEAUIDirectSoundBuffer8@@@std@@@std@@@std@@QEAAXPEAU?$_Tree_node@U?$pair@QEBDPEAUIDirectSoundBuffer8@@@std@@PEAX@2@@Z 000000014003c5dc     Framework:SimpleSound.obj
 0003:0000c5f0       $unwind$?_Rrotate@?$_Tree_val@U?$_Tree_simple_types@U?$pair@QEBDPEAUIDirectSoundBuffer8@@@std@@@std@@@std@@QEAAXPEAU?$_Tree_node@U?$pair@QEBDPEAUIDirectSoundBuffer8@@@std@@PEAX@2@@Z 000000014003c5f0     Framework:SimpleSound.obj
 0003:0000c604       $unwind$?_Insert_node@?$_Tree_val@U?$_Tree_simple_types@U?$pair@QEBDPEAUIDirectSoundBuffer8@@@std@@@std@@@std@@QEAAPEAU?$_Tree_node@U?$pair@QEBDPEAUIDirectSoundBuffer8@@@std@@PEAX@2@U?$_Tree_id@PEAU?$_Tree_node@U?$pair@QEBDPEAUIDirectSoundBuffer8@@@std@@PEAX@std@@@2@QEAU32@@Z 000000014003c604     Framework:SimpleSound.obj
 0003:0000c61e       $cppxdata$?_Insert_node@?$_Tree_val@U?$_Tree_simple_types@U?$pair@QEBDPEAUIDirectSoundBuffer8@@@std@@@std@@@std@@QEAAPEAU?$_Tree_node@U?$pair@QEBDPEAUIDirectSoundBuffer8@@@std@@PEAX@2@U?$_Tree_id@PEAU?$_Tree_node@U?$pair@QEBDPEAUIDirectSoundBuffer8@@@std@@PEAX@std@@@2@QEAU32@@Z 000000014003c61e     Framework:SimpleSound.obj
 0003:0000c623       $ip2state$?_Insert_node@?$_Tree_val@U?$_Tree_simple_types@U?$pair@QEBDPEAUIDirectSoundBuffer8@@@std@@@std@@@std@@QEAAPEAU?$_Tree_node@U?$pair@QEBDPEAUIDirectSoundBuffer8@@@std@@PEAX@2@U?$_Tree_id@PEAU?$_Tree_node@U?$pair@QEBDPEAUIDirectSoundBuffer8@@@std@@PEAX@std@@@2@QEAU32@@Z 000000014003c623     Framework:SimpleSound.obj
 0003:0000c628       $unwind$?_Orphan_ptr@?$_Tree_val@U?$_Tree_simple_types@U?$pair@QEBDPEAUIDirectSoundBuffer8@@@std@@@std@@@std@@QEAAXQEAU?$_Tree_node@U?$pair@QEBDPEAUIDirectSoundBuffer8@@@std@@PEAX@2@@Z 000000014003c628     Framework:SimpleSound.obj
 0003:0000c644       $unwind$?_Get_first@?$_Compressed_pair@V?$allocator@U?$_Tree_node@U?$pair@QEBDPEAUIDirectSoundBuffer8@@@std@@PEAX@std@@@std@@V?$_Tree_val@U?$_Tree_simple_types@U?$pair@QEBDPEAUIDirectSoundBuffer8@@@std@@@std@@@2@$00@std@@QEAAAEAV?$allocator@U?$_Tree_node@U?$pair@QEBDPEAUIDirectSoundBuffer8@@@std@@PEAX@std@@@2@XZ 000000014003c644     Framework:SimpleSound.obj
 0003:0000c65e       $cppxdata$?_Get_first@?$_Compressed_pair@V?$allocator@U?$_Tree_node@U?$pair@QEBDPEAUIDirectSoundBuffer8@@@std@@PEAX@std@@@std@@V?$_Tree_val@U?$_Tree_simple_types@U?$pair@QEBDPEAUIDirectSoundBuffer8@@@std@@@std@@@2@$00@std@@QEAAAEAV?$allocator@U?$_Tree_node@U?$pair@QEBDPEAUIDirectSoundBuffer8@@@std@@PEAX@std@@@2@XZ 000000014003c65e     Framework:SimpleSound.obj
 0003:0000c663       $ip2state$?_Get_first@?$_Compressed_pair@V?$allocator@U?$_Tree_node@U?$pair@QEBDPEAUIDirectSoundBuffer8@@@std@@PEAX@std@@@std@@V?$_Tree_val@U?$_Tree_simple_types@U?$pair@QEBDPEAUIDirectSoundBuffer8@@@std@@@std@@@2@$00@std@@QEAAAEAV?$allocator@U?$_Tree_node@U?$pair@QEBDPEAUIDirectSoundBuffer8@@@std@@PEAX@std@@@2@XZ 000000014003c663     Framework:SimpleSound.obj
 0003:0000c668       $unwind$?_Get_first@?$_Compressed_pair@V?$allocator@U?$_Tree_node@U?$pair@QEBDPEAUIDirectSoundBuffer8@@@std@@PEAX@std@@@std@@V?$_Tree_val@U?$_Tree_simple_types@U?$pair@QEBDPEAUIDirectSoundBuffer8@@@std@@@std@@@2@$00@std@@QEBAAEBV?$allocator@U?$_Tree_node@U?$pair@QEBDPEAUIDirectSoundBuffer8@@@std@@PEAX@std@@@2@XZ 000000014003c668     Framework:SimpleSound.obj
 0003:0000c682       $cppxdata$?_Get_first@?$_Compressed_pair@V?$allocator@U?$_Tree_node@U?$pair@QEBDPEAUIDirectSoundBuffer8@@@std@@PEAX@std@@@std@@V?$_Tree_val@U?$_Tree_simple_types@U?$pair@QEBDPEAUIDirectSoundBuffer8@@@std@@@std@@@2@$00@std@@QEBAAEBV?$allocator@U?$_Tree_node@U?$pair@QEBDPEAUIDirectSoundBuffer8@@@std@@PEAX@std@@@2@XZ 000000014003c682     Framework:SimpleSound.obj
 0003:0000c687       $ip2state$?_Get_first@?$_Compressed_pair@V?$allocator@U?$_Tree_node@U?$pair@QEBDPEAUIDirectSoundBuffer8@@@std@@PEAX@std@@@std@@V?$_Tree_val@U?$_Tree_simple_types@U?$pair@QEBDPEAUIDirectSoundBuffer8@@@std@@@std@@@2@$00@std@@QEBAAEBV?$allocator@U?$_Tree_node@U?$pair@QEBDPEAUIDirectSoundBuffer8@@@std@@PEAX@std@@@2@XZ 000000014003c687     Framework:SimpleSound.obj
 0003:0000c68c       $unwind$?_Get_first@?$_Compressed_pair@U?$less@PEBD@std@@V?$_Compressed_pair@V?$allocator@U?$_Tree_node@U?$pair@QEBDPEAUIDirectSoundBuffer8@@@std@@PEAX@std@@@std@@V?$_Tree_val@U?$_Tree_simple_types@U?$pair@QEBDPEAUIDirectSoundBuffer8@@@std@@@std@@@2@$00@2@$00@std@@QEBAAEBU?$less@PEBD@2@XZ 000000014003c68c     Framework:SimpleSound.obj
 0003:0000c6a6       $cppxdata$?_Get_first@?$_Compressed_pair@U?$less@PEBD@std@@V?$_Compressed_pair@V?$allocator@U?$_Tree_node@U?$pair@QEBDPEAUIDirectSoundBuffer8@@@std@@PEAX@std@@@std@@V?$_Tree_val@U?$_Tree_simple_types@U?$pair@QEBDPEAUIDirectSoundBuffer8@@@std@@@std@@@2@$00@2@$00@std@@QEBAAEBU?$less@PEBD@2@XZ 000000014003c6a6     Framework:SimpleSound.obj
 0003:0000c6ab       $ip2state$?_Get_first@?$_Compressed_pair@U?$less@PEBD@std@@V?$_Compressed_pair@V?$allocator@U?$_Tree_node@U?$pair@QEBDPEAUIDirectSoundBuffer8@@@std@@PEAX@std@@@std@@V?$_Tree_val@U?$_Tree_simple_types@U?$pair@QEBDPEAUIDirectSoundBuffer8@@@std@@@std@@@2@$00@2@$00@std@@QEBAAEBU?$less@PEBD@2@XZ 000000014003c6ab     Framework:SimpleSound.obj
 0003:0000c6b0       $unwind$??$?0$$V@?$_Compressed_pair@V?$allocator@U?$_Tree_node@U?$pair@QEBDPEAUIDirectSoundBuffer8@@@std@@PEAX@std@@@std@@V?$_Tree_val@U?$_Tree_simple_types@U?$pair@QEBDPEAUIDirectSoundBuffer8@@@std@@@std@@@2@$00@std@@QEAA@U_Zero_then_variadic_args_t@1@@Z 000000014003c6b0     Framework:SimpleSound.obj
 0003:0000c6c4       $unwind$??0?$map@PEBDPEAUIDirectSoundBuffer8@@U?$less@PEBD@std@@V?$allocator@U?$pair@QEBDPEAUIDirectSoundBuffer8@@@std@@@3@@std@@QEAA@XZ 000000014003c6c4     Framework:SimpleSound.obj
 0003:0000c6d8       $unwind$??A?$map@PEBDPEAUIDirectSoundBuffer8@@U?$less@PEBD@std@@V?$allocator@U?$pair@QEBDPEAUIDirectSoundBuffer8@@@std@@@3@@std@@QEAAAEAPEAUIDirectSoundBuffer8@@AEBQEBD@Z 000000014003c6d8     Framework:SimpleSound.obj
 0003:0000c6ec       $unwind$??1?$map@PEBDPEAUIDirectSoundBuffer8@@U?$less@PEBD@std@@V?$allocator@U?$pair@QEBDPEAUIDirectSoundBuffer8@@@std@@@3@@std@@QEAA@XZ 000000014003c6ec     Framework:SimpleSound.obj
 0003:0000c700       $unwind$?__autoclassinit2@CSimpleSound@@QEAAX_K@Z 000000014003c700     Framework:SimpleSound.obj
 0003:0000c714       $unwind$??__FtheSoundClass@?1??GetInstance@CSimpleSound@@SAAEAV1@XZ@YAXXZ 000000014003c714     Framework:SimpleSound.obj
 0003:0000c728       $unwind$??0?$_Tree_unchecked_const_iterator@V?$_Tree_val@U?$_Tree_simple_types@U?$pair@QEBDPEAUIDirectSoundBuffer8@@@std@@@std@@@std@@U_Iterator_base0@2@@std@@QEAA@PEAU?$_Tree_node@U?$pair@QEBDPEAUIDirectSoundBuffer8@@@std@@PEAX@1@PEBV?$_Tree_val@U?$_Tree_simple_types@U?$pair@QEBDPEAUIDirectSoundBuffer8@@@std@@@std@@@1@@Z 000000014003c728     Framework:SimpleSound.obj
 0003:0000c73c       $unwind$??D?$_Tree_unchecked_const_iterator@V?$_Tree_val@U?$_Tree_simple_types@U?$pair@QEBDPEAUIDirectSoundBuffer8@@@std@@@std@@@std@@U_Iterator_base0@2@@std@@QEBAAEBU?$pair@QEBDPEAUIDirectSoundBuffer8@@@1@XZ 000000014003c73c     Framework:SimpleSound.obj
 0003:0000c750       $unwind$??E?$_Tree_unchecked_const_iterator@V?$_Tree_val@U?$_Tree_simple_types@U?$pair@QEBDPEAUIDirectSoundBuffer8@@@std@@@std@@@std@@U_Iterator_base0@2@@std@@QEAAAEAV01@XZ 000000014003c750     Framework:SimpleSound.obj
 0003:0000c764       $unwind$??9?$_Tree_unchecked_const_iterator@V?$_Tree_val@U?$_Tree_simple_types@U?$pair@QEBDPEAUIDirectSoundBuffer8@@@std@@@std@@@std@@U_Iterator_base0@2@@std@@QEBA_NU_Default_sentinel@1@@Z 000000014003c764     Framework:SimpleSound.obj
 0003:0000c77e       $cppxdata$??9?$_Tree_unchecked_const_iterator@V?$_Tree_val@U?$_Tree_simple_types@U?$pair@QEBDPEAUIDirectSoundBuffer8@@@std@@@std@@@std@@U_Iterator_base0@2@@std@@QEBA_NU_Default_sentinel@1@@Z 000000014003c77e     Framework:SimpleSound.obj
 0003:0000c783       $ip2state$??9?$_Tree_unchecked_const_iterator@V?$_Tree_val@U?$_Tree_simple_types@U?$pair@QEBDPEAUIDirectSoundBuffer8@@@std@@@std@@@std@@U_Iterator_base0@2@@std@@QEBA_NU_Default_sentinel@1@@Z 000000014003c783     Framework:SimpleSound.obj
 0003:0000c788       $unwind$??0?$_Tree_unchecked_iterator@V?$_Tree_val@U?$_Tree_simple_types@U?$pair@QEBDPEAUIDirectSoundBuffer8@@@std@@@std@@@std@@@std@@QEAA@PEAU?$_Tree_node@U?$pair@QEBDPEAUIDirectSoundBuffer8@@@std@@PEAX@1@PEBV?$_Tree_val@U?$_Tree_simple_types@U?$pair@QEBDPEAUIDirectSoundBuffer8@@@std@@@std@@@1@@Z 000000014003c788     Framework:SimpleSound.obj
 0003:0000c79c       $unwind$??D?$_Tree_unchecked_iterator@V?$_Tree_val@U?$_Tree_simple_types@U?$pair@QEBDPEAUIDirectSoundBuffer8@@@std@@@std@@@std@@@std@@QEBAAEAU?$pair@QEBDPEAUIDirectSoundBuffer8@@@1@XZ 000000014003c79c     Framework:SimpleSound.obj
 0003:0000c7b0       $unwind$??E?$_Tree_unchecked_iterator@V?$_Tree_val@U?$_Tree_simple_types@U?$pair@QEBDPEAUIDirectSoundBuffer8@@@std@@@std@@@std@@@std@@QEAAAEAV01@XZ 000000014003c7b0     Framework:SimpleSound.obj
 0003:0000c7c4       $unwind$?__autoclassinit2@?$_Tree_unchecked_iterator@V?$_Tree_val@U?$_Tree_simple_types@U?$pair@QEBDPEAUIDirectSoundBuffer8@@@std@@@std@@@std@@@std@@QEAAX_K@Z 000000014003c7c4     Framework:SimpleSound.obj
 0003:0000c7d8       $unwind$??$_Try_emplace@AEBQEBD$$V@?$map@PEBDPEAUIDirectSoundBuffer8@@U?$less@PEBD@std@@V?$allocator@U?$pair@QEBDPEAUIDirectSoundBuffer8@@@std@@@3@@std@@AEAA?AU?$pair@PEAU?$_Tree_node@U?$pair@QEBDPEAUIDirectSoundBuffer8@@@std@@PEAX@std@@_N@1@AEBQEBD@Z 000000014003c7d8     Framework:SimpleSound.obj
 0003:0000c7f4       $unwind$??$_Erase_tree@V?$allocator@U?$_Tree_node@U?$pair@QEBDPEAUIDirectSoundBuffer8@@@std@@PEAX@std@@@std@@@?$_Tree_val@U?$_Tree_simple_types@U?$pair@QEBDPEAUIDirectSoundBuffer8@@@std@@@std@@@std@@QEAAXAEAV?$allocator@U?$_Tree_node@U?$pair@QEBDPEAUIDirectSoundBuffer8@@@std@@PEAX@std@@@1@PEAU?$_Tree_node@U?$pair@QEBDPEAUIDirectSoundBuffer8@@@std@@PEAX@1@@Z 000000014003c7f4     Framework:SimpleSound.obj
 0003:0000c80e       $cppxdata$??$_Erase_tree@V?$allocator@U?$_Tree_node@U?$pair@QEBDPEAUIDirectSoundBuffer8@@@std@@PEAX@std@@@std@@@?$_Tree_val@U?$_Tree_simple_types@U?$pair@QEBDPEAUIDirectSoundBuffer8@@@std@@@std@@@std@@QEAAXAEAV?$allocator@U?$_Tree_node@U?$pair@QEBDPEAUIDirectSoundBuffer8@@@std@@PEAX@std@@@1@PEAU?$_Tree_node@U?$pair@QEBDPEAUIDirectSoundBuffer8@@@std@@PEAX@1@@Z 000000014003c80e     Framework:SimpleSound.obj
 0003:0000c813       $ip2state$??$_Erase_tree@V?$allocator@U?$_Tree_node@U?$pair@QEBDPEAUIDirectSoundBuffer8@@@std@@PEAX@std@@@std@@@?$_Tree_val@U?$_Tree_simple_types@U?$pair@QEBDPEAUIDirectSoundBuffer8@@@std@@@std@@@std@@QEAAXAEAV?$allocator@U?$_Tree_node@U?$pair@QEBDPEAUIDirectSoundBuffer8@@@std@@PEAX@std@@@1@PEAU?$_Tree_node@U?$pair@QEBDPEAUIDirectSoundBuffer8@@@std@@PEAX@1@@Z 000000014003c813     Framework:SimpleSound.obj
 0003:0000c818       $unwind$??$_Erase_head@V?$allocator@U?$_Tree_node@U?$pair@QEBDPEAUIDirectSoundBuffer8@@@std@@PEAX@std@@@std@@@?$_Tree_val@U?$_Tree_simple_types@U?$pair@QEBDPEAUIDirectSoundBuffer8@@@std@@@std@@@std@@QEAAXAEAV?$allocator@U?$_Tree_node@U?$pair@QEBDPEAUIDirectSoundBuffer8@@@std@@PEAX@std@@@1@@Z 000000014003c818     Framework:SimpleSound.obj
 0003:0000c832       $cppxdata$??$_Erase_head@V?$allocator@U?$_Tree_node@U?$pair@QEBDPEAUIDirectSoundBuffer8@@@std@@PEAX@std@@@std@@@?$_Tree_val@U?$_Tree_simple_types@U?$pair@QEBDPEAUIDirectSoundBuffer8@@@std@@@std@@@std@@QEAAXAEAV?$allocator@U?$_Tree_node@U?$pair@QEBDPEAUIDirectSoundBuffer8@@@std@@PEAX@std@@@1@@Z 000000014003c832     Framework:SimpleSound.obj
 0003:0000c837       $ip2state$??$_Erase_head@V?$allocator@U?$_Tree_node@U?$pair@QEBDPEAUIDirectSoundBuffer8@@@std@@PEAX@std@@@std@@@?$_Tree_val@U?$_Tree_simple_types@U?$pair@QEBDPEAUIDirectSoundBuffer8@@@std@@@std@@@std@@QEAAXAEAV?$allocator@U?$_Tree_node@U?$pair@QEBDPEAUIDirectSoundBuffer8@@@std@@PEAX@std@@@1@@Z 000000014003c837     Framework:SimpleSound.obj
 0003:0000c83c       $unwind$??$?0U?$_Tree_node@U?$pair@QEBDPEAUIDirectSoundBuffer8@@@std@@PEAX@std@@@?$allocator@U_Container_proxy@std@@@std@@QEAA@AEBV?$allocator@U?$_Tree_node@U?$pair@QEBDPEAUIDirectSoundBuffer8@@@std@@PEAX@std@@@1@@Z 000000014003c83c     Framework:SimpleSound.obj
 0003:0000c856       $cppxdata$??$?0U?$_Tree_node@U?$pair@QEBDPEAUIDirectSoundBuffer8@@@std@@PEAX@std@@@?$allocator@U_Container_proxy@std@@@std@@QEAA@AEBV?$allocator@U?$_Tree_node@U?$pair@QEBDPEAUIDirectSoundBuffer8@@@std@@PEAX@std@@@1@@Z 000000014003c856     Framework:SimpleSound.obj
 0003:0000c85b       $ip2state$??$?0U?$_Tree_node@U?$pair@QEBDPEAUIDirectSoundBuffer8@@@std@@PEAX@std@@@?$allocator@U_Container_proxy@std@@@std@@QEAA@AEBV?$allocator@U?$_Tree_node@U?$pair@QEBDPEAUIDirectSoundBuffer8@@@std@@PEAX@std@@@1@@Z 000000014003c85b     Framework:SimpleSound.obj
 0003:0000c860       $unwind$??$addressof@V?$_Tree_val@U?$_Tree_simple_types@U?$pair@QEBDPEAUIDirectSoundBuffer8@@@std@@@std@@@std@@@std@@YAPEAV?$_Tree_val@U?$_Tree_simple_types@U?$pair@QEBDPEAUIDirectSoundBuffer8@@@std@@@std@@@0@AEAV10@@Z 000000014003c860     Framework:SimpleSound.obj
 0003:0000c87a       $cppxdata$??$addressof@V?$_Tree_val@U?$_Tree_simple_types@U?$pair@QEBDPEAUIDirectSoundBuffer8@@@std@@@std@@@std@@@std@@YAPEAV?$_Tree_val@U?$_Tree_simple_types@U?$pair@QEBDPEAUIDirectSoundBuffer8@@@std@@@std@@@0@AEAV10@@Z 000000014003c87a     Framework:SimpleSound.obj
 0003:0000c87f       $ip2state$??$addressof@V?$_Tree_val@U?$_Tree_simple_types@U?$pair@QEBDPEAUIDirectSoundBuffer8@@@std@@@std@@@std@@@std@@YAPEAV?$_Tree_val@U?$_Tree_simple_types@U?$pair@QEBDPEAUIDirectSoundBuffer8@@@std@@@std@@@0@AEAV10@@Z 000000014003c87f     Framework:SimpleSound.obj
 0003:0000c884       $unwind$??$?0AEBU?$less@PEBD@std@@U_Zero_then_variadic_args_t@1@@?$_Compressed_pair@U?$less@PEBD@std@@V?$_Compressed_pair@V?$allocator@U?$_Tree_node@U?$pair@QEBDPEAUIDirectSoundBuffer8@@@std@@PEAX@std@@@std@@V?$_Tree_val@U?$_Tree_simple_types@U?$pair@QEBDPEAUIDirectSoundBuffer8@@@std@@@std@@@2@$00@2@$00@std@@QEAA@U_One_then_variadic_args_t@1@AEBU?$less@PEBD@1@$$QEAU_Zero_then_variadic_args_t@1@@Z 000000014003c884     Framework:SimpleSound.obj
 0003:0000c898       $unwind$??$_Buyheadnode@V?$allocator@U?$_Tree_node@U?$pair@QEBDPEAUIDirectSoundBuffer8@@@std@@PEAX@std@@@std@@@?$_Tree_node@U?$pair@QEBDPEAUIDirectSoundBuffer8@@@std@@PEAX@std@@SAPEAU01@AEAV?$allocator@U?$_Tree_node@U?$pair@QEBDPEAUIDirectSoundBuffer8@@@std@@PEAX@std@@@1@@Z 000000014003c898     Framework:SimpleSound.obj
 0003:0000c8b4       $unwind$??$_Find_lower_bound@PEBD@?$_Tree@V?$_Tmap_traits@PEBDPEAUIDirectSoundBuffer8@@U?$less@PEBD@std@@V?$allocator@U?$pair@QEBDPEAUIDirectSoundBuffer8@@@std@@@3@$0A@@std@@@std@@IEBA?AU?$_Tree_find_result@PEAU?$_Tree_node@U?$pair@QEBDPEAUIDirectSoundBuffer8@@@std@@PEAX@std@@@1@AEBQEBD@Z 000000014003c8b4     Framework:SimpleSound.obj
 0003:0000c8d0       $unwind$??$_Lower_bound_duplicate@PEBD@?$_Tree@V?$_Tmap_traits@PEBDPEAUIDirectSoundBuffer8@@U?$less@PEBD@std@@V?$allocator@U?$pair@QEBDPEAUIDirectSoundBuffer8@@@std@@@3@$0A@@std@@@std@@IEBA_NQEAU?$_Tree_node@U?$pair@QEBDPEAUIDirectSoundBuffer8@@@std@@PEAX@1@AEBQEBD@Z 000000014003c8d0     Framework:SimpleSound.obj
 0003:0000c8e4       $unwind$??$?0AEBQEAU?$_Tree_node@U?$pair@QEBDPEAUIDirectSoundBuffer8@@@std@@PEAX@std@@_N$0A@@?$pair@PEAU?$_Tree_node@U?$pair@QEBDPEAUIDirectSoundBuffer8@@@std@@PEAX@std@@_N@std@@QEAA@AEBQEAU?$_Tree_node@U?$pair@QEBDPEAUIDirectSoundBuffer8@@@std@@PEAX@1@$$QEA_N@Z 000000014003c8e4     Framework:SimpleSound.obj
 0003:0000c8fe       $cppxdata$??$?0AEBQEAU?$_Tree_node@U?$pair@QEBDPEAUIDirectSoundBuffer8@@@std@@PEAX@std@@_N$0A@@?$pair@PEAU?$_Tree_node@U?$pair@QEBDPEAUIDirectSoundBuffer8@@@std@@PEAX@std@@_N@std@@QEAA@AEBQEAU?$_Tree_node@U?$pair@QEBDPEAUIDirectSoundBuffer8@@@std@@PEAX@1@$$QEA_N@Z 000000014003c8fe     Framework:SimpleSound.obj
 0003:0000c903       $ip2state$??$?0AEBQEAU?$_Tree_node@U?$pair@QEBDPEAUIDirectSoundBuffer8@@@std@@PEAX@std@@_N$0A@@?$pair@PEAU?$_Tree_node@U?$pair@QEBDPEAUIDirectSoundBuffer8@@@std@@PEAX@std@@_N@std@@QEAA@AEBQEAU?$_Tree_node@U?$pair@QEBDPEAUIDirectSoundBuffer8@@@std@@PEAX@1@$$QEA_N@Z 000000014003c903     Framework:SimpleSound.obj
 0003:0000c908       $unwind$??0?$_Alloc_construct_ptr@V?$allocator@U?$_Tree_node@U?$pair@QEBDPEAUIDirectSoundBuffer8@@@std@@PEAX@std@@@std@@@std@@QEAA@AEAV?$allocator@U?$_Tree_node@U?$pair@QEBDPEAUIDirectSoundBuffer8@@@std@@PEAX@std@@@1@@Z 000000014003c908     Framework:SimpleSound.obj
 0003:0000c91c       $unwind$?_Release@?$_Alloc_construct_ptr@V?$allocator@U?$_Tree_node@U?$pair@QEBDPEAUIDirectSoundBuffer8@@@std@@PEAX@std@@@std@@@std@@QEAAPEAU?$_Tree_node@U?$pair@QEBDPEAUIDirectSoundBuffer8@@@std@@PEAX@2@XZ 000000014003c91c     Framework:SimpleSound.obj
 0003:0000c936       $cppxdata$?_Release@?$_Alloc_construct_ptr@V?$allocator@U?$_Tree_node@U?$pair@QEBDPEAUIDirectSoundBuffer8@@@std@@PEAX@std@@@std@@@std@@QEAAPEAU?$_Tree_node@U?$pair@QEBDPEAUIDirectSoundBuffer8@@@std@@PEAX@2@XZ 000000014003c936     Framework:SimpleSound.obj
 0003:0000c93b       $ip2state$?_Release@?$_Alloc_construct_ptr@V?$allocator@U?$_Tree_node@U?$pair@QEBDPEAUIDirectSoundBuffer8@@@std@@PEAX@std@@@std@@@std@@QEAAPEAU?$_Tree_node@U?$pair@QEBDPEAUIDirectSoundBuffer8@@@std@@PEAX@2@XZ 000000014003c93b     Framework:SimpleSound.obj
 0003:0000c940       $unwind$?_Allocate@?$_Alloc_construct_ptr@V?$allocator@U?$_Tree_node@U?$pair@QEBDPEAUIDirectSoundBuffer8@@@std@@PEAX@std@@@std@@@std@@QEAAXXZ 000000014003c940     Framework:SimpleSound.obj
 0003:0000c954       $unwind$??1?$_Alloc_construct_ptr@V?$allocator@U?$_Tree_node@U?$pair@QEBDPEAUIDirectSoundBuffer8@@@std@@PEAX@std@@@std@@@std@@QEAA@XZ 000000014003c954     Framework:SimpleSound.obj
 0003:0000c96e       $cppxdata$??1?$_Alloc_construct_ptr@V?$allocator@U?$_Tree_node@U?$pair@QEBDPEAUIDirectSoundBuffer8@@@std@@PEAX@std@@@std@@@std@@QEAA@XZ 000000014003c96e     Framework:SimpleSound.obj
 0003:0000c973       $ip2state$??1?$_Alloc_construct_ptr@V?$allocator@U?$_Tree_node@U?$pair@QEBDPEAUIDirectSoundBuffer8@@@std@@PEAX@std@@@std@@@std@@QEAA@XZ 000000014003c973     Framework:SimpleSound.obj
 0003:0000c978       $unwind$??0?$_Tree_temp_node_alloc@V?$allocator@U?$_Tree_node@U?$pair@QEBDPEAUIDirectSoundBuffer8@@@std@@PEAX@std@@@std@@@std@@QEAA@AEAV?$allocator@U?$_Tree_node@U?$pair@QEBDPEAUIDirectSoundBuffer8@@@std@@PEAX@std@@@1@@Z 000000014003c978     Framework:SimpleSound.obj
 0003:0000c992       $cppxdata$??0?$_Tree_temp_node_alloc@V?$allocator@U?$_Tree_node@U?$pair@QEBDPEAUIDirectSoundBuffer8@@@std@@PEAX@std@@@std@@@std@@QEAA@AEAV?$allocator@U?$_Tree_node@U?$pair@QEBDPEAUIDirectSoundBuffer8@@@std@@PEAX@std@@@1@@Z 000000014003c992     Framework:SimpleSound.obj
 0003:0000c99b       $stateUnwindMap$??0?$_Tree_temp_node_alloc@V?$allocator@U?$_Tree_node@U?$pair@QEBDPEAUIDirectSoundBuffer8@@@std@@PEAX@std@@@std@@@std@@QEAA@AEAV?$allocator@U?$_Tree_node@U?$pair@QEBDPEAUIDirectSoundBuffer8@@@std@@PEAX@std@@@1@@Z 000000014003c99b     Framework:SimpleSound.obj
 0003:0000c9a1       $ip2state$??0?$_Tree_temp_node_alloc@V?$allocator@U?$_Tree_node@U?$pair@QEBDPEAUIDirectSoundBuffer8@@@std@@PEAX@std@@@std@@@std@@QEAA@AEAV?$allocator@U?$_Tree_node@U?$pair@QEBDPEAUIDirectSoundBuffer8@@@std@@PEAX@std@@@1@@Z 000000014003c9a1     Framework:SimpleSound.obj
 0003:0000c9a8       $unwind$?dtor$0@?0???0?$_Tree_temp_node_alloc@V?$allocator@U?$_Tree_node@U?$pair@QEBDPEAUIDirectSoundBuffer8@@@std@@PEAX@std@@@std@@@std@@QEAA@AEAV?$allocator@U?$_Tree_node@U?$pair@QEBDPEAUIDirectSoundBuffer8@@@std@@PEAX@std@@@1@@Z@4HA 000000014003c9a8     Framework:SimpleSound.obj
 0003:0000c9b8       $unwind$??1?$_Tree_temp_node_alloc@V?$allocator@U?$_Tree_node@U?$pair@QEBDPEAUIDirectSoundBuffer8@@@std@@PEAX@std@@@std@@@std@@QEAA@XZ 000000014003c9b8     Framework:SimpleSound.obj
 0003:0000c9cc       $unwind$??1?$_Tree_temp_node@V?$allocator@U?$_Tree_node@U?$pair@QEBDPEAUIDirectSoundBuffer8@@@std@@PEAX@std@@@std@@@std@@QEAA@XZ 000000014003c9cc     Framework:SimpleSound.obj
 0003:0000c9e6       $cppxdata$??1?$_Tree_temp_node@V?$allocator@U?$_Tree_node@U?$pair@QEBDPEAUIDirectSoundBuffer8@@@std@@PEAX@std@@@std@@@std@@QEAA@XZ 000000014003c9e6     Framework:SimpleSound.obj
 0003:0000c9eb       $ip2state$??1?$_Tree_temp_node@V?$allocator@U?$_Tree_node@U?$pair@QEBDPEAUIDirectSoundBuffer8@@@std@@PEAX@std@@@std@@@std@@QEAA@XZ 000000014003c9eb     Framework:SimpleSound.obj
 0003:0000c9f0       $unwind$??$?0AEBUpiecewise_construct_t@std@@V?$tuple@AEBQEBD@1@V?$tuple@$$V@1@@?$_Tree_temp_node@V?$allocator@U?$_Tree_node@U?$pair@QEBDPEAUIDirectSoundBuffer8@@@std@@PEAX@std@@@std@@@std@@QEAA@AEAV?$allocator@U?$_Tree_node@U?$pair@QEBDPEAUIDirectSoundBuffer8@@@std@@PEAX@std@@@1@PEAU?$_Tree_node@U?$pair@QEBDPEAUIDirectSoundBuffer8@@@std@@PEAX@1@AEBUpiecewise_construct_t@1@$$QEAV?$tuple@AEBQEBD@1@$$QEAV?$tuple@$$V@1@@Z 000000014003c9f0     Framework:SimpleSound.obj
 0003:0000ca0a       $cppxdata$??$?0AEBUpiecewise_construct_t@std@@V?$tuple@AEBQEBD@1@V?$tuple@$$V@1@@?$_Tree_temp_node@V?$allocator@U?$_Tree_node@U?$pair@QEBDPEAUIDirectSoundBuffer8@@@std@@PEAX@std@@@std@@@std@@QEAA@AEAV?$allocator@U?$_Tree_node@U?$pair@QEBDPEAUIDirectSoundBuffer8@@@std@@PEAX@std@@@1@PEAU?$_Tree_node@U?$pair@QEBDPEAUIDirectSoundBuffer8@@@std@@PEAX@1@AEBUpiecewise_construct_t@1@$$QEAV?$tuple@AEBQEBD@1@$$QEAV?$tuple@$$V@1@@Z 000000014003ca0a     Framework:SimpleSound.obj
 0003:0000ca13       $stateUnwindMap$??$?0AEBUpiecewise_construct_t@std@@V?$tuple@AEBQEBD@1@V?$tuple@$$V@1@@?$_Tree_temp_node@V?$allocator@U?$_Tree_node@U?$pair@QEBDPEAUIDirectSoundBuffer8@@@std@@PEAX@std@@@std@@@std@@QEAA@AEAV?$allocator@U?$_Tree_node@U?$pair@QEBDPEAUIDirectSoundBuffer8@@@std@@PEAX@std@@@1@PEAU?$_Tree_node@U?$pair@QEBDPEAUIDirectSoundBuffer8@@@std@@PEAX@1@AEBUpiecewise_construct_t@1@$$QEAV?$tuple@AEBQEBD@1@$$QEAV?$tuple@$$V@1@@Z 000000014003ca13     Framework:SimpleSound.obj
 0003:0000ca19       $ip2state$??$?0AEBUpiecewise_construct_t@std@@V?$tuple@AEBQEBD@1@V?$tuple@$$V@1@@?$_Tree_temp_node@V?$allocator@U?$_Tree_node@U?$pair@QEBDPEAUIDirectSoundBuffer8@@@std@@PEAX@std@@@std@@@std@@QEAA@AEAV?$allocator@U?$_Tree_node@U?$pair@QEBDPEAUIDirectSoundBuffer8@@@std@@PEAX@std@@@1@PEAU?$_Tree_node@U?$pair@QEBDPEAUIDirectSoundBuffer8@@@std@@PEAX@1@AEBUpiecewise_construct_t@1@$$QEAV?$tuple@AEBQEBD@1@$$QEAV?$tuple@$$V@1@@Z 000000014003ca19     Framework:SimpleSound.obj
 0003:0000ca24       $unwind$?dtor$0@?0???$?0AEBUpiecewise_construct_t@std@@V?$tuple@AEBQEBD@1@V?$tuple@$$V@1@@?$_Tree_temp_node@V?$allocator@U?$_Tree_node@U?$pair@QEBDPEAUIDirectSoundBuffer8@@@std@@PEAX@std@@@std@@@std@@QEAA@AEAV?$allocator@U?$_Tree_node@U?$pair@QEBDPEAUIDirectSoundBuffer8@@@std@@PEAX@std@@@1@PEAU?$_Tree_node@U?$pair@QEBDPEAUIDirectSoundBuffer8@@@std@@PEAX@1@AEBUpiecewise_construct_t@1@$$QEAV?$tuple@AEBQEBD@1@$$QEAV?$tuple@$$V@1@@Z@4HA 000000014003ca24     Framework:SimpleSound.obj
 0003:0000ca34       $unwind$??$?0PEAU?$_Tree_node@U?$pair@QEBDPEAUIDirectSoundBuffer8@@@std@@PEAX@std@@_N$0A@@?$pair@PEAU?$_Tree_node@U?$pair@QEBDPEAUIDirectSoundBuffer8@@@std@@PEAX@std@@_N@std@@QEAA@$$QEAPEAU?$_Tree_node@U?$pair@QEBDPEAUIDirectSoundBuffer8@@@std@@PEAX@1@$$QEA_N@Z 000000014003ca34     Framework:SimpleSound.obj
 0003:0000ca4e       $cppxdata$??$?0PEAU?$_Tree_node@U?$pair@QEBDPEAUIDirectSoundBuffer8@@@std@@PEAX@std@@_N$0A@@?$pair@PEAU?$_Tree_node@U?$pair@QEBDPEAUIDirectSoundBuffer8@@@std@@PEAX@std@@_N@std@@QEAA@$$QEAPEAU?$_Tree_node@U?$pair@QEBDPEAUIDirectSoundBuffer8@@@std@@PEAX@1@$$QEA_N@Z 000000014003ca4e     Framework:SimpleSound.obj
 0003:0000ca53       $ip2state$??$?0PEAU?$_Tree_node@U?$pair@QEBDPEAUIDirectSoundBuffer8@@@std@@PEAX@std@@_N$0A@@?$pair@PEAU?$_Tree_node@U?$pair@QEBDPEAUIDirectSoundBuffer8@@@std@@PEAX@std@@_N@std@@QEAA@$$QEAPEAU?$_Tree_node@U?$pair@QEBDPEAUIDirectSoundBuffer8@@@std@@PEAX@1@$$QEA_N@Z 000000014003ca53     Framework:SimpleSound.obj
 0003:0000ca58       $unwind$??$exchange@PEAU?$_Tree_node@U?$pair@QEBDPEAUIDirectSoundBuffer8@@@std@@PEAX@std@@AEAPEAU12@@std@@YAPEAU?$_Tree_node@U?$pair@QEBDPEAUIDirectSoundBuffer8@@@std@@PEAX@0@AEAPEAU10@0@Z 000000014003ca58     Framework:SimpleSound.obj
 0003:0000ca6c       $unwind$??$_Freenode@V?$allocator@U?$_Tree_node@U?$pair@QEBDPEAUIDirectSoundBuffer8@@@std@@PEAX@std@@@std@@@?$_Tree_node@U?$pair@QEBDPEAUIDirectSoundBuffer8@@@std@@PEAX@std@@SAXAEAV?$allocator@U?$_Tree_node@U?$pair@QEBDPEAUIDirectSoundBuffer8@@@std@@PEAX@std@@@1@PEAU01@@Z 000000014003ca6c     Framework:SimpleSound.obj
 0003:0000ca86       $cppxdata$??$_Freenode@V?$allocator@U?$_Tree_node@U?$pair@QEBDPEAUIDirectSoundBuffer8@@@std@@PEAX@std@@@std@@@?$_Tree_node@U?$pair@QEBDPEAUIDirectSoundBuffer8@@@std@@PEAX@std@@SAXAEAV?$allocator@U?$_Tree_node@U?$pair@QEBDPEAUIDirectSoundBuffer8@@@std@@PEAX@std@@@1@PEAU01@@Z 000000014003ca86     Framework:SimpleSound.obj
 0003:0000ca8b       $ip2state$??$_Freenode@V?$allocator@U?$_Tree_node@U?$pair@QEBDPEAUIDirectSoundBuffer8@@@std@@PEAX@std@@@std@@@?$_Tree_node@U?$pair@QEBDPEAUIDirectSoundBuffer8@@@std@@PEAX@std@@SAXAEAV?$allocator@U?$_Tree_node@U?$pair@QEBDPEAUIDirectSoundBuffer8@@@std@@PEAX@std@@@1@PEAU01@@Z 000000014003ca8b     Framework:SimpleSound.obj
 0003:0000ca90       $unwind$??$_Freenode0@V?$allocator@U?$_Tree_node@U?$pair@QEBDPEAUIDirectSoundBuffer8@@@std@@PEAX@std@@@std@@@?$_Tree_node@U?$pair@QEBDPEAUIDirectSoundBuffer8@@@std@@PEAX@std@@SAXAEAV?$allocator@U?$_Tree_node@U?$pair@QEBDPEAUIDirectSoundBuffer8@@@std@@PEAX@std@@@1@PEAU01@@Z 000000014003ca90     Framework:SimpleSound.obj
 0003:0000caaa       $cppxdata$??$_Freenode0@V?$allocator@U?$_Tree_node@U?$pair@QEBDPEAUIDirectSoundBuffer8@@@std@@PEAX@std@@@std@@@?$_Tree_node@U?$pair@QEBDPEAUIDirectSoundBuffer8@@@std@@PEAX@std@@SAXAEAV?$allocator@U?$_Tree_node@U?$pair@QEBDPEAUIDirectSoundBuffer8@@@std@@PEAX@std@@@1@PEAU01@@Z 000000014003caaa     Framework:SimpleSound.obj
 0003:0000caaf       $ip2state$??$_Freenode0@V?$allocator@U?$_Tree_node@U?$pair@QEBDPEAUIDirectSoundBuffer8@@@std@@PEAX@std@@@std@@@?$_Tree_node@U?$pair@QEBDPEAUIDirectSoundBuffer8@@@std@@PEAX@std@@SAXAEAV?$allocator@U?$_Tree_node@U?$pair@QEBDPEAUIDirectSoundBuffer8@@@std@@PEAX@std@@@1@PEAU01@@Z 000000014003caaf     Framework:SimpleSound.obj
 0003:0000cab4       $unwind$??$_Construct_in_place@PEAU?$_Tree_node@U?$pair@QEBDPEAUIDirectSoundBuffer8@@@std@@PEAX@std@@AEBQEAU12@@std@@YAXAEAPEAU?$_Tree_node@U?$pair@QEBDPEAUIDirectSoundBuffer8@@@std@@PEAX@0@AEBQEAU10@@Z 000000014003cab4     Framework:SimpleSound.obj
 0003:0000cace       $cppxdata$??$_Construct_in_place@PEAU?$_Tree_node@U?$pair@QEBDPEAUIDirectSoundBuffer8@@@std@@PEAX@std@@AEBQEAU12@@std@@YAXAEAPEAU?$_Tree_node@U?$pair@QEBDPEAUIDirectSoundBuffer8@@@std@@PEAX@0@AEBQEAU10@@Z 000000014003cace     Framework:SimpleSound.obj
 0003:0000cad3       $ip2state$??$_Construct_in_place@PEAU?$_Tree_node@U?$pair@QEBDPEAUIDirectSoundBuffer8@@@std@@PEAX@std@@AEBQEAU12@@std@@YAXAEAPEAU?$_Tree_node@U?$pair@QEBDPEAUIDirectSoundBuffer8@@@std@@PEAX@0@AEBQEAU10@@Z 000000014003cad3     Framework:SimpleSound.obj
 0003:0000cad8       $unwind$??$_Destroy_in_place@PEAU?$_Tree_node@U?$pair@QEBDPEAUIDirectSoundBuffer8@@@std@@PEAX@std@@@std@@YAXAEAPEAU?$_Tree_node@U?$pair@QEBDPEAUIDirectSoundBuffer8@@@std@@PEAX@0@@Z 000000014003cad8     Framework:SimpleSound.obj
 0003:0000caf2       $cppxdata$??$_Destroy_in_place@PEAU?$_Tree_node@U?$pair@QEBDPEAUIDirectSoundBuffer8@@@std@@PEAX@std@@@std@@YAXAEAPEAU?$_Tree_node@U?$pair@QEBDPEAUIDirectSoundBuffer8@@@std@@PEAX@0@@Z 000000014003caf2     Framework:SimpleSound.obj
 0003:0000caf7       $ip2state$??$_Destroy_in_place@PEAU?$_Tree_node@U?$pair@QEBDPEAUIDirectSoundBuffer8@@@std@@PEAX@std@@@std@@YAXAEAPEAU?$_Tree_node@U?$pair@QEBDPEAUIDirectSoundBuffer8@@@std@@PEAX@0@@Z 000000014003caf7     Framework:SimpleSound.obj
 0003:0000cafc       $unwind$??$addressof@U?$pair@QEBDPEAUIDirectSoundBuffer8@@@std@@@std@@YAPEAU?$pair@QEBDPEAUIDirectSoundBuffer8@@@0@AEAU10@@Z 000000014003cafc     Framework:SimpleSound.obj
 0003:0000cb16       $cppxdata$??$addressof@U?$pair@QEBDPEAUIDirectSoundBuffer8@@@std@@@std@@YAPEAU?$pair@QEBDPEAUIDirectSoundBuffer8@@@0@AEAU10@@Z 000000014003cb16     Framework:SimpleSound.obj
 0003:0000cb1b       $ip2state$??$addressof@U?$pair@QEBDPEAUIDirectSoundBuffer8@@@std@@@std@@YAPEAU?$pair@QEBDPEAUIDirectSoundBuffer8@@@0@AEAU10@@Z 000000014003cb1b     Framework:SimpleSound.obj
 0003:0000cb20       $unwind$??$destroy@U?$pair@QEBDPEAUIDirectSoundBuffer8@@@std@@@?$_Default_allocator_traits@V?$allocator@U?$_Tree_node@U?$pair@QEBDPEAUIDirectSoundBuffer8@@@std@@PEAX@std@@@std@@@std@@SAXAEAV?$allocator@U?$_Tree_node@U?$pair@QEBDPEAUIDirectSoundBuffer8@@@std@@PEAX@std@@@1@QEAU?$pair@QEBDPEAUIDirectSoundBuffer8@@@1@@Z 000000014003cb20     Framework:SimpleSound.obj
 0003:0000cb34       $unwind$??$exchange@PEAU?$_Tree_node@U?$pair@QEBDPEAUIDirectSoundBuffer8@@@std@@PEAX@std@@$$T@std@@YAPEAU?$_Tree_node@U?$pair@QEBDPEAUIDirectSoundBuffer8@@@std@@PEAX@0@AEAPEAU10@$$QEA$$T@Z 000000014003cb34     Framework:SimpleSound.obj
 0003:0000cb48       $unwind$??$_Get_size_of_n@$0DA@@std@@YA_K_K@Z 000000014003cb48     Framework:SimpleSound.obj
 0003:0000cb5c       $unwind$??$_Kfn@QEBDPEAUIDirectSoundBuffer8@@@?$_Tmap_traits@PEBDPEAUIDirectSoundBuffer8@@U?$less@PEBD@std@@V?$allocator@U?$pair@QEBDPEAUIDirectSoundBuffer8@@@std@@@3@$0A@@std@@SAAEBQEBDAEBU?$pair@QEBDPEAUIDirectSoundBuffer8@@@1@@Z 000000014003cb5c     Framework:SimpleSound.obj
 0003:0000cb70       $unwind$??$forward@AEBQEAU?$_Tree_node@U?$pair@QEBDPEAUIDirectSoundBuffer8@@@std@@PEAX@std@@@std@@YAAEBQEAU?$_Tree_node@U?$pair@QEBDPEAUIDirectSoundBuffer8@@@std@@PEAX@0@AEBQEAU10@@Z 000000014003cb70     Framework:SimpleSound.obj
 0003:0000cb8a       $cppxdata$??$forward@AEBQEAU?$_Tree_node@U?$pair@QEBDPEAUIDirectSoundBuffer8@@@std@@PEAX@std@@@std@@YAAEBQEAU?$_Tree_node@U?$pair@QEBDPEAUIDirectSoundBuffer8@@@std@@PEAX@0@AEBQEAU10@@Z 000000014003cb8a     Framework:SimpleSound.obj
 0003:0000cb8f       $ip2state$??$forward@AEBQEAU?$_Tree_node@U?$pair@QEBDPEAUIDirectSoundBuffer8@@@std@@PEAX@std@@@std@@YAAEBQEAU?$_Tree_node@U?$pair@QEBDPEAUIDirectSoundBuffer8@@@std@@PEAX@0@AEBQEAU10@@Z 000000014003cb8f     Framework:SimpleSound.obj
 0003:0000cb94       $unwind$??$construct@U?$pair@QEBDPEAUIDirectSoundBuffer8@@@std@@AEBUpiecewise_construct_t@2@V?$tuple@AEBQEBD@2@V?$tuple@$$V@2@@?$_Default_allocator_traits@V?$allocator@U?$_Tree_node@U?$pair@QEBDPEAUIDirectSoundBuffer8@@@std@@PEAX@std@@@std@@@std@@SAXAEAV?$allocator@U?$_Tree_node@U?$pair@QEBDPEAUIDirectSoundBuffer8@@@std@@PEAX@std@@@1@QEAU?$pair@QEBDPEAUIDirectSoundBuffer8@@@1@AEBUpiecewise_construct_t@1@$$QEAV?$tuple@AEBQEBD@1@$$QEAV?$tuple@$$V@1@@Z 000000014003cb94     Framework:SimpleSound.obj
 0003:0000cba8       $unwind$??$_Construct_in_place@PEAU?$_Tree_node@U?$pair@QEBDPEAUIDirectSoundBuffer8@@@std@@PEAX@std@@AEAPEAU12@@std@@YAXAEAPEAU?$_Tree_node@U?$pair@QEBDPEAUIDirectSoundBuffer8@@@std@@PEAX@0@0@Z 000000014003cba8     Framework:SimpleSound.obj
 0003:0000cbc2       $cppxdata$??$_Construct_in_place@PEAU?$_Tree_node@U?$pair@QEBDPEAUIDirectSoundBuffer8@@@std@@PEAX@std@@AEAPEAU12@@std@@YAXAEAPEAU?$_Tree_node@U?$pair@QEBDPEAUIDirectSoundBuffer8@@@std@@PEAX@0@0@Z 000000014003cbc2     Framework:SimpleSound.obj
 0003:0000cbc7       $ip2state$??$_Construct_in_place@PEAU?$_Tree_node@U?$pair@QEBDPEAUIDirectSoundBuffer8@@@std@@PEAX@std@@AEAPEAU12@@std@@YAXAEAPEAU?$_Tree_node@U?$pair@QEBDPEAUIDirectSoundBuffer8@@@std@@PEAX@0@0@Z 000000014003cbc7     Framework:SimpleSound.obj
 0003:0000cbcc       $unwind$??$forward@PEAU?$_Tree_node@U?$pair@QEBDPEAUIDirectSoundBuffer8@@@std@@PEAX@std@@@std@@YA$$QEAPEAU?$_Tree_node@U?$pair@QEBDPEAUIDirectSoundBuffer8@@@std@@PEAX@0@AEAPEAU10@@Z 000000014003cbcc     Framework:SimpleSound.obj
 0003:0000cbe6       $cppxdata$??$forward@PEAU?$_Tree_node@U?$pair@QEBDPEAUIDirectSoundBuffer8@@@std@@PEAX@std@@@std@@YA$$QEAPEAU?$_Tree_node@U?$pair@QEBDPEAUIDirectSoundBuffer8@@@std@@PEAX@0@AEAPEAU10@@Z 000000014003cbe6     Framework:SimpleSound.obj
 0003:0000cbeb       $ip2state$??$forward@PEAU?$_Tree_node@U?$pair@QEBDPEAUIDirectSoundBuffer8@@@std@@PEAX@std@@@std@@YA$$QEAPEAU?$_Tree_node@U?$pair@QEBDPEAUIDirectSoundBuffer8@@@std@@PEAX@0@AEAPEAU10@@Z 000000014003cbeb     Framework:SimpleSound.obj
 0003:0000cbf0       $unwind$??$addressof@PEAU?$_Tree_node@U?$pair@QEBDPEAUIDirectSoundBuffer8@@@std@@PEAX@std@@@std@@YAPEAPEAU?$_Tree_node@U?$pair@QEBDPEAUIDirectSoundBuffer8@@@std@@PEAX@0@AEAPEAU10@@Z 000000014003cbf0     Framework:SimpleSound.obj
 0003:0000cc0a       $cppxdata$??$addressof@PEAU?$_Tree_node@U?$pair@QEBDPEAUIDirectSoundBuffer8@@@std@@PEAX@std@@@std@@YAPEAPEAU?$_Tree_node@U?$pair@QEBDPEAUIDirectSoundBuffer8@@@std@@PEAX@0@AEAPEAU10@@Z 000000014003cc0a     Framework:SimpleSound.obj
 0003:0000cc0f       $ip2state$??$addressof@PEAU?$_Tree_node@U?$pair@QEBDPEAUIDirectSoundBuffer8@@@std@@PEAX@std@@@std@@YAPEAPEAU?$_Tree_node@U?$pair@QEBDPEAUIDirectSoundBuffer8@@@std@@PEAX@0@AEAPEAU10@@Z 000000014003cc0f     Framework:SimpleSound.obj
 0003:0000cc14       $unwind$??$addressof@$$CBV?$_Tree_val@U?$_Tree_simple_types@U?$pair@QEBDPEAUIDirectSoundBuffer8@@@std@@@std@@@std@@@std@@YAPEBV?$_Tree_val@U?$_Tree_simple_types@U?$pair@QEBDPEAUIDirectSoundBuffer8@@@std@@@std@@@0@AEBV10@@Z 000000014003cc14     Framework:SimpleSound.obj
 0003:0000cc2e       $cppxdata$??$addressof@$$CBV?$_Tree_val@U?$_Tree_simple_types@U?$pair@QEBDPEAUIDirectSoundBuffer8@@@std@@@std@@@std@@@std@@YAPEBV?$_Tree_val@U?$_Tree_simple_types@U?$pair@QEBDPEAUIDirectSoundBuffer8@@@std@@@std@@@0@AEBV10@@Z 000000014003cc2e     Framework:SimpleSound.obj
 0003:0000cc33       $ip2state$??$addressof@$$CBV?$_Tree_val@U?$_Tree_simple_types@U?$pair@QEBDPEAUIDirectSoundBuffer8@@@std@@@std@@@std@@@std@@YAPEBV?$_Tree_val@U?$_Tree_simple_types@U?$pair@QEBDPEAUIDirectSoundBuffer8@@@std@@@std@@@0@AEBV10@@Z 000000014003cc33     Framework:SimpleSound.obj
 0003:0000cc38       $unwind$??$?0AEBQEBD$$Z$$V@?$pair@QEBDPEAUIDirectSoundBuffer8@@@std@@QEAA@Upiecewise_construct_t@1@V?$tuple@AEBQEBD@1@V?$tuple@$$V@1@@Z 000000014003cc38     Framework:SimpleSound.obj
 0003:0000cc4c       $unwind$??$forward@AEAPEAU?$_Tree_node@U?$pair@QEBDPEAUIDirectSoundBuffer8@@@std@@PEAX@std@@@std@@YAAEAPEAU?$_Tree_node@U?$pair@QEBDPEAUIDirectSoundBuffer8@@@std@@PEAX@0@AEAPEAU10@@Z 000000014003cc4c     Framework:SimpleSound.obj
 0003:0000cc66       $cppxdata$??$forward@AEAPEAU?$_Tree_node@U?$pair@QEBDPEAUIDirectSoundBuffer8@@@std@@PEAX@std@@@std@@YAAEAPEAU?$_Tree_node@U?$pair@QEBDPEAUIDirectSoundBuffer8@@@std@@PEAX@0@AEAPEAU10@@Z 000000014003cc66     Framework:SimpleSound.obj
 0003:0000cc6b       $ip2state$??$forward@AEAPEAU?$_Tree_node@U?$pair@QEBDPEAUIDirectSoundBuffer8@@@std@@PEAX@std@@@std@@YAAEAPEAU?$_Tree_node@U?$pair@QEBDPEAUIDirectSoundBuffer8@@@std@@PEAX@0@AEAPEAU10@@Z 000000014003cc6b     Framework:SimpleSound.obj
 0003:0000cc70       $unwind$??$?0V?$tuple@AEBQEBD@std@@V?$tuple@$$V@1@$0A@$$Z$S@?$pair@QEBDPEAUIDirectSoundBuffer8@@@std@@QEAA@AEAV?$tuple@AEBQEBD@1@AEAV?$tuple@$$V@1@U?$integer_sequence@_K$0A@@1@U?$integer_sequence@_K$S@1@@Z 000000014003cc70     Framework:SimpleSound.obj
 0003:0000cc84       $unwind$memcpy_s           000000014003cc84     Framework:TextureLoader.obj
 0003:0000cc98       $unwind$?loadBMPRaw@@YAPEAEPEBDAEAI1_N@Z 000000014003cc98     Framework:TextureLoader.obj
 0003:0000ccb4       $unwind$_RTC_Shutdown      000000014003ccb4     MSVCRTD:init.obj
 0003:0000ccbc       $unwind$_RTC_InitBase      000000014003ccbc     MSVCRTD:init.obj
 0003:0000ccc4       $unwind$__CheckForDebuggerJustMyCode 000000014003ccc4     MSVCRTD:debugger_jmc.obj
 0003:0000cccc       $unwind$??2@YAPEAX_K@Z     000000014003cccc     MSVCRTD:new_scalar.obj
 0003:0000ccd4       $unwind$??3@YAXPEAX_K@Z    000000014003ccd4     MSVCRTD:delete_scalar_size.obj
 0003:0000ccdc       $unwind$atexit             000000014003ccdc     MSVCRTD:utility.obj
 0003:0000cce4       $unwind$_onexit            000000014003cce4     MSVCRTD:utility.obj
 0003:0000ccec       $unwind$at_quick_exit      000000014003ccec     MSVCRTD:utility.obj
 0003:0000ccf4       $unwind$__scrt_is_nonwritable_in_current_image 000000014003ccf4     MSVCRTD:utility.obj
 0003:0000cd18       $unwind$__scrt_is_nonwritable_in_current_image$filt$0 000000014003cd18     MSVCRTD:utility.obj
 0003:0000cd20       $unwind$__scrt_acquire_startup_lock 000000014003cd20     MSVCRTD:utility.obj
 0003:0000cd28       $unwind$__scrt_release_startup_lock 000000014003cd28     MSVCRTD:utility.obj
 0003:0000cd30       $unwind$__scrt_initialize_crt 000000014003cd30     MSVCRTD:utility.obj
 0003:0000cd38       $unwind$__scrt_uninitialize_crt 000000014003cd38     MSVCRTD:utility.obj
 0003:0000cd40       $unwind$__scrt_initialize_onexit_tables 000000014003cd40     MSVCRTD:utility.obj
 0003:0000cd50       $unwind$__scrt_dllmain_exception_filter 000000014003cd50     MSVCRTD:utility.obj
 0003:0000cd58       $unwind$__scrt_dllmain_before_initialize_c 000000014003cd58     MSVCRTD:utility.obj
 0003:0000cd60       $unwind$__scrt_dllmain_after_initialize_c 000000014003cd60     MSVCRTD:utility.obj
 0003:0000cd68       $unwind$__scrt_dllmain_uninitialize_c 000000014003cd68     MSVCRTD:utility.obj
 0003:0000cd70       $unwind$__scrt_dllmain_uninitialize_critical 000000014003cd70     MSVCRTD:utility.obj
 0003:0000cd78       $unwind$__scrt_dllmain_crt_thread_attach 000000014003cd78     MSVCRTD:utility.obj
 0003:0000cd80       $unwind$__scrt_dllmain_crt_thread_detach 000000014003cd80     MSVCRTD:utility.obj
 0003:0000cd88       $unwind$?configure_argv@__scrt_narrow_argv_policy@@SAHXZ 000000014003cd88     MSVCRTD:utility.obj
 0003:0000cd90       $unwind$?initialize_environment@__scrt_narrow_environment_policy@@SAHXZ 000000014003cd90     MSVCRTD:utility.obj
 0003:0000cd98       $unwind$?is_potentially_valid_image_base@@YA_NQEAX@Z 000000014003cd98     MSVCRTD:utility.obj
 0003:0000cda0       $unwind$?find_pe_section@@YAPEAU_IMAGE_SECTION_HEADER@@QEAE_K@Z 000000014003cda0     MSVCRTD:utility.obj
 0003:0000cda8       $unwind$_RTC_CheckStackVars 000000014003cda8     MSVCRTD:stack.obj
 0003:0000cdbc       $chain$0$_RTC_CheckStackVars 000000014003cdbc     MSVCRTD:stack.obj
 0003:0000cdd4       $chain$1$_RTC_CheckStackVars 000000014003cdd4     MSVCRTD:stack.obj
 0003:0000cde8       $unwind$_RTC_CheckStackVars2 000000014003cde8     MSVCRTD:stack.obj
 0003:0000cdf8       $chain$1$_RTC_CheckStackVars2 000000014003cdf8     MSVCRTD:stack.obj
 0003:0000ce14       $chain$2$_RTC_CheckStackVars2 000000014003ce14     MSVCRTD:stack.obj
 0003:0000ce2c       $chain$3$_RTC_CheckStackVars2 000000014003ce2c     MSVCRTD:stack.obj
 0003:0000ce44       $chain$4$_RTC_CheckStackVars2 000000014003ce44     MSVCRTD:stack.obj
 0003:0000ce58       $chain$5$_RTC_CheckStackVars2 000000014003ce58     MSVCRTD:stack.obj
 0003:0000ce6c       $chain$6$_RTC_CheckStackVars2 000000014003ce6c     MSVCRTD:stack.obj
 0003:0000ce80       $unwind$_RTC_AllocaHelper  000000014003ce80     MSVCRTD:stack.obj
 0003:0000ce88       $chain$0$_RTC_AllocaHelper 000000014003ce88     MSVCRTD:stack.obj
 0003:0000cea0       $chain$1$_RTC_AllocaHelper 000000014003cea0     MSVCRTD:stack.obj
 0003:0000ceb4       $unwind$__GSHandlerCheckCommon 000000014003ceb4     MSVCRTD:gshandler.obj
 0003:0000cebc       $unwind$__GSHandlerCheck   000000014003cebc     MSVCRTD:gshandler.obj
 0003:0000cec4       $unwind$__GSHandlerCheck_EH4 000000014003cec4     MSVCRTD:gshandlereh4.obj
 0003:0000ced0       $xdatasym                  000000014003ced0     MSVCRTD:amdsecgs.obj
 0003:0000ced4       $unwind$??_Gtype_info@@UEAAPEAXI@Z 000000014003ced4     MSVCRTD:std_type_info_static.obj
 0003:0000cedc       $unwind$?configure_argv@__scrt_wide_argv_policy@@SAHXZ 000000014003cedc     MSVCRTD:exe_wwinmain.obj
 0003:0000cee4       $unwind$?initialize_environment@__scrt_wide_environment_policy@@SAHXZ 000000014003cee4     MSVCRTD:exe_wwinmain.obj
 0003:0000ceec       $unwind$?set_app_type@__scrt_winmain_policy@@SAXXZ 000000014003ceec     MSVCRTD:exe_wwinmain.obj
 0003:0000cef4       $unwind$?set_fmode@__scrt_file_policy@@SAXXZ 000000014003cef4     MSVCRTD:exe_wwinmain.obj
 0003:0000cefc       $unwind$?set_commode@__scrt_file_policy@@SAXXZ 000000014003cefc     MSVCRTD:exe_wwinmain.obj
 0003:0000cf04       $unwind$?invoke_main@@YAHXZ 000000014003cf04     MSVCRTD:exe_wwinmain.obj
 0003:0000cf0c       $unwind$?pre_c_initialization@@YAHXZ 000000014003cf0c     MSVCRTD:exe_wwinmain.obj
 0003:0000cf14       $unwind$?post_pgo_initialization@@YAHXZ 000000014003cf14     MSVCRTD:exe_wwinmain.obj
 0003:0000cf1c       $unwind$?pre_cpp_initialization@@YAXXZ 000000014003cf1c     MSVCRTD:exe_wwinmain.obj
 0003:0000cf24       $unwind$?__scrt_common_main_seh@@YAHXZ 000000014003cf24     MSVCRTD:exe_wwinmain.obj
 0003:0000cf48       $unwind$?filt$0@?0??__scrt_common_main_seh@@YAHXZ@4HA 000000014003cf48     MSVCRTD:exe_wwinmain.obj
 0003:0000cf50       $unwind$?__scrt_common_main@@YAHXZ 000000014003cf50     MSVCRTD:exe_wwinmain.obj
 0003:0000cf58       $unwind$wWinMainCRTStartup 000000014003cf58     MSVCRTD:exe_wwinmain.obj
 0003:0000cf60       $unwind$_Init_thread_header 000000014003cf60     MSVCRTD:thread_safe_statics.obj
 0003:0000cf68       $unwind$_Init_thread_abort 000000014003cf68     MSVCRTD:thread_safe_statics.obj
 0003:0000cf70       $unwind$_Init_thread_footer 000000014003cf70     MSVCRTD:thread_safe_statics.obj
 0003:0000cf78       $unwind$_Init_thread_lock  000000014003cf78     MSVCRTD:thread_safe_statics.obj
 0003:0000cf80       $unwind$_Init_thread_unlock 000000014003cf80     MSVCRTD:thread_safe_statics.obj
 0003:0000cf88       $unwind$_Init_thread_wait  000000014003cf88     MSVCRTD:thread_safe_statics.obj
 0003:0000cf90       $unwind$_Init_thread_notify 000000014003cf90     MSVCRTD:thread_safe_statics.obj
 0003:0000cf98       $unwind$?__scrt_initialize_thread_safe_statics_platform_specific@@YAXXZ 000000014003cf98     MSVCRTD:thread_safe_statics.obj
 0003:0000cfa0       $unwind$?__scrt_uninitialize_thread_safe_statics@@YAXXZ 000000014003cfa0     MSVCRTD:thread_safe_statics.obj
 0003:0000cfa8       $unwind$?__scrt_initialize_thread_safe_statics@@YAHXZ 000000014003cfa8     MSVCRTD:thread_safe_statics.obj
 0003:0000cfb0       $unwind$??_U@YAPEAX_K@Z    000000014003cfb0     MSVCRTD:new_array.obj
 0003:0000cfb8       $unwind$??_V@YAXPEAX@Z     000000014003cfb8     MSVCRTD:delete_array.obj
 0003:0000cfc0       $unwind$??0bad_alloc@std@@QEAA@XZ 000000014003cfc0     MSVCRTD:throw_bad_alloc.obj
 0003:0000cfc8       $unwind$?__scrt_throw_std_bad_alloc@@YAXXZ 000000014003cfc8     MSVCRTD:throw_bad_alloc.obj
 0003:0000cfd0       $unwind$?__scrt_throw_std_bad_array_new_length@@YAXXZ 000000014003cfd0     MSVCRTD:throw_bad_alloc.obj
 0003:0000cfd8       $unwind$??3@YAXPEAX@Z      000000014003cfd8     MSVCRTD:delete_scalar.obj
 0003:0000cfe0       $unwind$__isa_available_init 000000014003cfe0     MSVCRTD:cpu_disp.obj
 0003:0000cff4       $unwind$__scrt_is_ucrt_dll_in_use 000000014003cff4     MSVCRTD:ucrt_detection.obj
 0003:0000cffc       $unwind$__scrt_get_show_window_mode 000000014003cffc     MSVCRTD:utility_desktop.obj
 0003:0000d00c       $unwind$__scrt_is_managed_app 000000014003d00c     MSVCRTD:utility_desktop.obj
 0003:0000d014       $unwind$__scrt_initialize_mta 000000014003d014     MSVCRTD:utility_desktop.obj
 0003:0000d01c       $unwind$__scrt_set_unhandled_exception_filter 000000014003d01c     MSVCRTD:utility_desktop.obj
 0003:0000d024       $unwind$__scrt_fastfail    000000014003d024     MSVCRTD:utility_desktop.obj
 0003:0000d034       $unwind$__scrt_unhandled_exception_filter 000000014003d034     MSVCRTD:utility_desktop.obj
 0003:0000d03c       $unwind$ReadNoFence64      000000014003d03c     MSVCRTD:guard_support.obj
 0003:0000d044       $unwind$ReadPointerNoFence 000000014003d044     MSVCRTD:guard_support.obj
 0003:0000d04c       $unwind$_guard_icall_checks_enforced 000000014003d04c     MSVCRTD:guard_support.obj
 0003:0000d054       $unwind$_RTC_UninitUse     000000014003d054     MSVCRTD:error.obj
 0003:0000d070       $unwind$?_RTC_StackFailure@@YAXPEAXPEBD@Z 000000014003d070     MSVCRTD:error.obj
 0003:0000d090       $unwind$?_RTC_AllocaFailure@@YAXPEAXPEAU_RTC_ALLOCA_NODE@@H@Z 000000014003d090     MSVCRTD:error.obj
 0003:0000d0ac       $chain$0$?_RTC_AllocaFailure@@YAXPEAXPEAU_RTC_ALLOCA_NODE@@H@Z 000000014003d0ac     MSVCRTD:error.obj
 0003:0000d0c4       $chain$1$?_RTC_AllocaFailure@@YAXPEAXPEAU_RTC_ALLOCA_NODE@@H@Z 000000014003d0c4     MSVCRTD:error.obj
 0003:0000d0d8       $unwind$_vsprintf_s_l      000000014003d0d8     MSVCRTD:error.obj
 0003:0000d0f0       $unwind$sprintf_s          000000014003d0f0     MSVCRTD:error.obj
 0003:0000d0f8       $unwind$?notify_debugger@@YAXAEBUtagEXCEPTION_VISUALCPP_DEBUG_INFO@@@Z 000000014003d0f8     MSVCRTD:error.obj
 0003:0000d11c       $unwind$?filt$0@?0??notify_debugger@@YAXAEBUtagEXCEPTION_VISUALCPP_DEBUG_INFO@@@Z@4HA 000000014003d11c     MSVCRTD:error.obj
 0003:0000d124       $unwind$?DebuggerProbe@@YA_NK@Z 000000014003d124     MSVCRTD:error.obj
 0003:0000d12c       $unwind$?DebuggerRuntime@@YA_NKHPEAXPEB_W@Z 000000014003d12c     MSVCRTD:error.obj
 0003:0000d134       $unwind$?failwithmessage@@YAXPEAXHHPEBD@Z 000000014003d134     MSVCRTD:error.obj
 0003:0000d15c       $unwind$?_getMemBlockDataString@@YAXPEAD0PEBD_K@Z 000000014003d15c     MSVCRTD:error.obj
 0003:0000d170       $chain$3$?_getMemBlockDataString@@YAXPEAD0PEBD_K@Z 000000014003d170     MSVCRTD:error.obj
 0003:0000d194       $chain$4$?_getMemBlockDataString@@YAXPEAD0PEBD_K@Z 000000014003d194     MSVCRTD:error.obj
 0003:0000d1a8       $unwind$__report_securityfailure 000000014003d1a8     MSVCRTD:gs_report.obj
 0003:0000d1b0       $unwind$__report_securityfailureEx 000000014003d1b0     MSVCRTD:gs_report.obj
 0003:0000d1b8       $unwind$__report_rangecheckfailure 000000014003d1b8     MSVCRTD:gs_report.obj
 0003:0000d1c0       $unwind$__report_gsfailure 000000014003d1c0     MSVCRTD:gs_report.obj
 0003:0000d1c8       $unwind$capture_current_context 000000014003d1c8     MSVCRTD:gs_report.obj
 0003:0000d1d0       $unwind$capture_previous_context 000000014003d1d0     MSVCRTD:gs_report.obj
 0003:0000d1d8       $unwind$__raise_securityfailure 000000014003d1d8     MSVCRTD:gs_report.obj
 0003:0000d1e0       $unwind$__security_init_cookie 000000014003d1e0     MSVCRTD:gs_support.obj
 0003:0000d1e8       $unwind$__get_entropy      000000014003d1e8     MSVCRTD:gs_support.obj
 0003:0000d1f0       $unwind$?__scrt_initialize_type_info@@YAXXZ 000000014003d1f0     MSVCRTD:tncleanup.obj
 0003:0000d1f8       $unwind$?__scrt_uninitialize_type_info@@YAXXZ 000000014003d1f8     MSVCRTD:tncleanup.obj
 0003:0000d200       $unwind$__scrt_initialize_default_local_stdio_options 000000014003d200     MSVCRTD:default_local_stdio_options.obj
 0003:0000d208       $unwind$__scrt_is_user_matherr_present 000000014003d208     MSVCRTD:matherr_detection.obj
 0003:0000d210       $unwind$_RTC_Initialize    000000014003d210     MSVCRTD:initsect.obj
 0003:0000d220       $unwind$_RTC_Terminate     000000014003d220     MSVCRTD:initsect.obj
 0003:0000d230       $xdatasym                  000000014003d230     MSVCRTD:guard_dispatch.obj
 0003:0000d234       $unwind$?_RTC_GetSrcLine@@YAHPEAEPEA_WKPEAH1K@Z 000000014003d234     MSVCRTD:pdblkup.obj
 0003:0000d250       $unwind$?GetPdbDllFromInstallPath@@YAPEAUHINSTANCE__@@XZ 000000014003d250     MSVCRTD:pdblkup.obj
 0003:0000d278       $unwind$?GetPdbDllPathFromFilePath@@YAHPEB_WPEA_W_K@Z 000000014003d278     MSVCRTD:pdblkup.obj
 0003:0000d294       $unwind$?GetPdbDll@@YAPEAUHINSTANCE__@@XZ 000000014003d294     MSVCRTD:pdblkup.obj
 0004:000003f8       ?prevTime@?1??Idle@@YAXXZ@4NA 000000014003e3f8     Framework:main.obj
 0004:00000400       ?$TSS0@?1??Idle@@YAXXZ@4HA 000000014003e400     Framework:main.obj
 0004:00000450       ?theControllers@?1??GetInstance@CSimpleControllers@@SAAEAV2@XZ@4V2@A 000000014003e450     Framework:SimpleController.obj
 0004:000004b0       ?$TSS0@?1??GetInstance@CSimpleControllers@@SAAEAV2@XZ@4HA 000000014003e4b0     Framework:SimpleController.obj
 0004:000004c8       ?theSoundClass@?1??GetInstance@CSimpleSound@@SAAEAV2@XZ@4V2@A 000000014003e4c8     Framework:SimpleSound.obj
 0004:000004f8       ?$TSS0@?1??GetInstance@CSimpleSound@@SAAEAV2@XZ@4HA 000000014003e4f8     Framework:SimpleSound.obj
 0004:00000506       ?init@?1??_RTC_InitBase@@9@4_NA 000000014003e506     MSVCRTD:init.obj
 0004:00000518       ?is_initialized_as_dll@@3_NA 000000014003e518     MSVCRTD:utility.obj
 0004:00000519       ?module_local_atexit_table_initialized@@3_NA 000000014003e519     MSVCRTD:utility.obj
 0004:00000520       ?module_local_atexit_table@@3U_onexit_table_t@@A 000000014003e520     MSVCRTD:utility.obj
 0004:00000538       ?module_local_at_quick_exit_table@@3U_onexit_table_t@@A 000000014003e538     MSVCRTD:utility.obj
 0004:00000560       ?g_tss_cv@@3U_RTL_CONDITION_VARIABLE@@A 000000014003e560     MSVCRTD:thread_safe_statics.obj
 0004:00000568       ?g_tss_event@@3PEAXEA      000000014003e568     MSVCRTD:thread_safe_statics.obj
 0004:00000570       ?g_tss_mutex@@3U_RTL_CRITICAL_SECTION@@A 000000014003e570     MSVCRTD:thread_safe_statics.obj
 0004:00000598       ?g_sleep_condition_variable_cs@@3P6AHPEAU_RTL_CONDITION_VARIABLE@@PEAU_RTL_CRITICAL_SECTION@@K@ZEA 000000014003e598     MSVCRTD:thread_safe_statics.obj
 0004:000005a0       ?g_wake_all_condition_variable@@3P6AXPEAU_RTL_CONDITION_VARIABLE@@@ZEA 000000014003e5a0     MSVCRTD:thread_safe_statics.obj
 0004:000005c0       ?_RTC_ErrorReportFunc@@3P6AHHPEBDH00ZZEA 000000014003e5c0     MSVCRTD:userapi.obj
 0004:000005c8       ?_RTC_ErrorReportFuncW@@3P6AHHPEB_WH00ZZEA 000000014003e5c8     MSVCRTD:userapi.obj
 0004:000005e0       GS_ExceptionRecord         000000014003e5e0     MSVCRTD:gs_report.obj
 0004:00000680       GS_ContextRecord           000000014003e680     MSVCRTD:gs_report.obj
 0004:00000c98       ?mspdb@@3PEAUHINSTANCE__@@EA 000000014003ec98     MSVCRTD:pdblkup.obj
 0004:00000ca1       ?alreadyTried@?1??GetPdbDll@@YAPEAUHINSTANCE__@@XZ@4_NA 000000014003eca1     MSVCRTD:pdblkup.obj
 0004:00000ca2       ?PDBOK@?1??_RTC_GetSrcLine@@YAHPEAEPEA_WKPEAH1K@Z@4_NA 000000014003eca2     MSVCRTD:pdblkup.obj
 0005:00001800       $pdata$??__EwallList@@YAXXZ 0000000140040800     GameTest.obj
 0005:0000180c       $pdata$??__EgUpdateDeltaTime@@YAXXZ 000000014004080c     Framework:main.obj
 0005:00001818       $pdata$??__EgUserRenderProfiler@@YAXXZ 0000000140040818     Framework:main.obj
 0005:00001824       $pdata$??__EgUserUpdateProfiler@@YAXXZ 0000000140040824     Framework:main.obj
 0005:00001830       $pdata$??__E?m_textures@CSimpleSprite@@0V?$map@PEBDUsTextureDef@CSimpleSprite@@U?$less@PEBD@std@@V?$allocator@U?$pair@QEBDUsTextureDef@CSimpleSprite@@@std@@@4@@std@@A@@YAXXZ 0000000140040830     Framework:SimpleSprite.obj
 0005:0000183c       $pdata$?areColliding@@YA_NAEBUAABB@@0@Z 000000014004083c     AABB.obj
 0005:00001848       $pdata$??0Door@@QEAA@MMMM@Z 0000000140040848     Door.obj
 0005:00001854       $pdata$??1Door@@QEAA@XZ    0000000140040854     Door.obj
 0005:00001860       $pdata$?IsInside@Door@@QEAA_NMM@Z 0000000140040860     Door.obj
 0005:0000186c       $pdata$?Render@Door@@QEAAXXZ 000000014004086c     Door.obj
 0005:00001878       $pdata$?StartEndGame@Door@@QEAAXXZ 0000000140040878     Door.obj
 0005:00001884       $pdata$?Update@Door@@QEAAXM@Z 0000000140040884     Door.obj
 0005:00001890       $pdata$??$?0$$V@?$_Compressed_pair@V?$allocator@VLaserWall@@@std@@V?$_Vector_val@U?$_Simple_types@VLaserWall@@@std@@@2@$00@std@@QEAA@U_Zero_then_variadic_args_t@1@@Z 0000000140040890     GameTest.obj
 0005:0000189c       $pdata$??$?0VLaserWall@@@?$allocator@U_Container_proxy@std@@@std@@QEAA@AEBV?$allocator@VLaserWall@@@1@@Z 000000014004089c     GameTest.obj
 0005:000018a8       $pdata$??$_Alloc_proxy@V?$allocator@U_Container_proxy@std@@@std@@@_Container_base12@std@@QEAAX$$QEAV?$allocator@U_Container_proxy@std@@@1@@Z 00000001400408a8     GameTest.obj
 0005:000018b4       $pdata$??$_Allocate@$0BA@U_Default_allocate_traits@std@@$0A@@std@@YAPEAX_K@Z 00000001400408b4     GameTest.obj
 0005:000018c0       $pdata$??$_Allocate_manually_vector_aligned@U_Default_allocate_traits@std@@@std@@YAPEAX_K@Z 00000001400408c0     GameTest.obj
 0005:000018cc       $pdata$??$_Construct_in_place@U_Container_proxy@std@@PEAU_Container_base12@2@@std@@YAXAEAU_Container_proxy@0@$$QEAPEAU_Container_base12@0@@Z 00000001400408cc     GameTest.obj
 0005:000018d8       $pdata$??$_Deallocate@$0BA@$0A@@std@@YAXPEAX_K@Z 00000001400408d8     GameTest.obj
 0005:000018e4       $pdata$??$_Deallocate_plain@V?$allocator@U_Container_proxy@std@@@std@@@std@@YAXAEAV?$allocator@U_Container_proxy@std@@@0@QEAU_Container_proxy@0@@Z 00000001400408e4     GameTest.obj
 0005:000018f0       $pdata$??$_Delete_plain_internal@V?$allocator@U_Container_proxy@std@@@std@@@std@@YAXAEAV?$allocator@U_Container_proxy@std@@@0@QEAU_Container_proxy@0@@Z 00000001400408f0     GameTest.obj
 0005:000018fc       $pdata$??$_Destroy_range@V?$allocator@VLaserWall@@@std@@@std@@YAXPEAVLaserWall@@QEAV1@AEAV?$allocator@VLaserWall@@@0@@Z 00000001400408fc     GameTest.obj
 0005:00001908       $pdata$??$_Emplace_back@VLaserWall@@@?$_Uninitialized_backout_al@V?$allocator@VLaserWall@@@std@@@std@@QEAAX$$QEAVLaserWall@@@Z 0000000140040908     GameTest.obj
 0005:00001914       $pdata$??$_Emplace_back_with_unused_capacity@AEBVLaserWall@@@?$vector@VLaserWall@@V?$allocator@VLaserWall@@@std@@@std@@AEAA@AEBVLaserWall@@@Z 0000000140040914     GameTest.obj
 0005:00001920       $pdata$??$_Emplace_reallocate@AEBVLaserWall@@@?$vector@VLaserWall@@V?$allocator@VLaserWall@@@std@@@std@@QEAAPEAVLaserWall@@QEAV2@AEBV2@@Z 0000000140040920     GameTest.obj
 0005:0000192c       $pdata$??$_Get_size_of_n@$0BA@@std@@YA_K_K@Z 000000014004092c     GameTest.obj
 0005:00001938       $pdata$??$_Get_unwrapped@VLaserWall@@@std@@YAPEAVLaserWall@@QEAV1@@Z 0000000140040938     GameTest.obj
 0005:00001944       $pdata$??$_Min_value@_K@std@@YAAEB_KAEB_K0@Z 0000000140040944     GameTest.obj
 0005:00001950       $pdata$??$_Unfancy@U_Container_proxy@std@@@std@@YAPEAU_Container_proxy@0@PEAU10@@Z 0000000140040950     GameTest.obj
 0005:0000195c       $pdata$??$_Unfancy@VLaserWall@@@std@@YAPEAVLaserWall@@PEAV1@@Z 000000014004095c     GameTest.obj
 0005:00001968       $pdata$??$_Uninitialized_move@PEAVLaserWall@@V?$allocator@VLaserWall@@@std@@@std@@YAPEAVLaserWall@@QEAV1@0PEAV1@AEAV?$allocator@VLaserWall@@@0@@Z 0000000140040968     GameTest.obj
 0005:00001974       $pdata$??$addressof@U_Container_proxy@std@@@std@@YAPEAU_Container_proxy@0@AEAU10@@Z 0000000140040974     GameTest.obj
 0005:00001980       $pdata$??$construct@VLaserWall@@AEBV1@@?$_Default_allocator_traits@V?$allocator@VLaserWall@@@std@@@std@@SAXAEAV?$allocator@VLaserWall@@@1@QEAVLaserWall@@AEBV3@@Z 0000000140040980     GameTest.obj
 0005:0000198c       $pdata$??$construct@VLaserWall@@V1@@?$_Default_allocator_traits@V?$allocator@VLaserWall@@@std@@@std@@SAXAEAV?$allocator@VLaserWall@@@1@QEAVLaserWall@@$$QEAV3@@Z 000000014004098c     GameTest.obj
 0005:00001998       $pdata$??$destroy@VLaserWall@@@?$_Default_allocator_traits@V?$allocator@VLaserWall@@@std@@@std@@SAXAEAV?$allocator@VLaserWall@@@1@QEAVLaserWall@@@Z 0000000140040998     GameTest.obj
 0005:000019a4       $pdata$??$emplace_back@AEBVLaserWall@@@?$vector@VLaserWall@@V?$allocator@VLaserWall@@@std@@@std@@QEAA@AEBVLaserWall@@@Z 00000001400409a4     GameTest.obj
 0005:000019b0       $pdata$??$exchange@PEAU_Container_proxy@std@@$$T@std@@YAPEAU_Container_proxy@0@AEAPEAU10@$$QEA$$T@Z 00000001400409b0     GameTest.obj
 0005:000019bc       $pdata$??$forward@AEBVLaserWall@@@std@@YAAEBVLaserWall@@AEBV1@@Z 00000001400409bc     GameTest.obj
 0005:000019c8       $pdata$??$forward@PEAU_Container_base12@std@@@std@@YA$$QEAPEAU_Container_base12@0@AEAPEAU10@@Z 00000001400409c8     GameTest.obj
 0005:000019d4       $pdata$??$forward@VLaserWall@@@std@@YA$$QEAVLaserWall@@AEAV1@@Z 00000001400409d4     GameTest.obj
 0005:000019e0       $pdata$??$move@AEAVLaserWall@@@std@@YA$$QEAVLaserWall@@AEAV1@@Z 00000001400409e0     GameTest.obj
 0005:000019ec       $pdata$??0?$_Uninitialized_backout_al@V?$allocator@VLaserWall@@@std@@@std@@QEAA@PEAVLaserWall@@AEAV?$allocator@VLaserWall@@@1@@Z 00000001400409ec     GameTest.obj
 0005:000019f8       $pdata$??0?$_Vector_val@U?$_Simple_types@VLaserWall@@@std@@@std@@QEAA@XZ 00000001400409f8     GameTest.obj
 0005:00001a04       $pdata$??0?$allocator@VLaserWall@@@std@@QEAA@XZ 0000000140040a04     GameTest.obj
 0005:00001a10       $pdata$??0?$vector@VLaserWall@@V?$allocator@VLaserWall@@@std@@@std@@QEAA@XZ 0000000140040a10     GameTest.obj
 0005:00001a1c       $pdata$??0_Container_base12@std@@QEAA@XZ 0000000140040a1c     GameTest.obj
 0005:00001a28       $pdata$??0_Container_proxy@std@@QEAA@PEAU_Container_base12@1@@Z 0000000140040a28     GameTest.obj
 0005:00001a34       $pdata$??0bad_alloc@std@@AEAA@QEBD@Z 0000000140040a34     GameTest.obj
 0005:00001a40       $pdata$??0bad_alloc@std@@QEAA@AEBV01@@Z 0000000140040a40     GameTest.obj
 0005:00001a4c       $pdata$??0bad_array_new_length@std@@QEAA@AEBV01@@Z 0000000140040a4c     GameTest.obj
 0005:00001a58       $pdata$??0bad_array_new_length@std@@QEAA@XZ 0000000140040a58     GameTest.obj
 0005:00001a64       $pdata$??0exception@std@@QEAA@AEBV01@@Z 0000000140040a64     GameTest.obj
 0005:00001a70       $pdata$??0exception@std@@QEAA@QEBDH@Z 0000000140040a70     GameTest.obj
 0005:00001a7c       $pdata$??1?$_Uninitialized_backout_al@V?$allocator@VLaserWall@@@std@@@std@@QEAA@XZ 0000000140040a7c     GameTest.obj
 0005:00001a88       $pdata$??1?$vector@VLaserWall@@V?$allocator@VLaserWall@@@std@@@std@@QEAA@XZ 0000000140040a88     GameTest.obj
 0005:00001a94       $pdata$??1LaserWall@@QEAA@XZ 0000000140040a94     GameTest.obj
 0005:00001aa0       $pdata$??1bad_alloc@std@@UEAA@XZ 0000000140040aa0     GameTest.obj
 0005:00001aac       $pdata$??1bad_array_new_length@std@@UEAA@XZ 0000000140040aac     GameTest.obj
 0005:00001ab8       $pdata$??1exception@std@@UEAA@XZ 0000000140040ab8     GameTest.obj
 0005:00001ac4       $pdata$??2@YAPEAX_KPEAX@Z  0000000140040ac4     GameTest.obj
 0005:00001ad0       $pdata$??_GDoor@@QEAAPEAXI@Z 0000000140040ad0     GameTest.obj
 0005:00001adc       $pdata$??_GLaserWall@@QEAAPEAXI@Z 0000000140040adc     GameTest.obj
 0005:00001ae8       $pdata$??_GMainCharacter@@QEAAPEAXI@Z 0000000140040ae8     GameTest.obj
 0005:00001af4       $pdata$??_Gbad_alloc@std@@UEAAPEAXI@Z 0000000140040af4     GameTest.obj
 0005:00001b00       $pdata$??_Gbad_array_new_length@std@@UEAAPEAXI@Z 0000000140040b00     GameTest.obj
 0005:00001b0c       $pdata$??_Gexception@std@@UEAAPEAXI@Z 0000000140040b0c     GameTest.obj
 0005:00001b18       $pdata$?CheckButton@CController@@QEBA_NH_N@Z 0000000140040b18     GameTest.obj
 0005:00001b24       $pdata$?GetAABB@Door@@QEBAAEBUAABB@@XZ 0000000140040b24     GameTest.obj
 0005:00001b30       $pdata$?GetAABB@LaserWall@@QEBAAEBUAABB@@XZ 0000000140040b30     GameTest.obj
 0005:00001b3c       $pdata$?GetAABB@MainCharacter@@QEBAAEBUAABB@@XZ 0000000140040b3c     GameTest.obj
 0005:00001b48       $pdata$?Init@@YAXXZ        0000000140040b48     GameTest.obj
 0005:00001b54       $pdata$?Render@@YAXXZ      0000000140040b54     GameTest.obj
 0005:00001b60       $pdata$?Shutdown@@YAXXZ    0000000140040b60     GameTest.obj
 0005:00001b6c       $pdata$?StartEndGame@@YAXXZ 0000000140040b6c     GameTest.obj
 0005:00001b78       $pdata$?Update@@YAXM@Z     0000000140040b78     GameTest.obj
 0005:00001b84       $pdata$?_Adjust_manually_vector_aligned@std@@YAXAEAPEAXAEA_K@Z 0000000140040b84     GameTest.obj
 0005:00001b90       $pdata$?_Allocate@_Default_allocate_traits@std@@SAPEAX_K@Z 0000000140040b90     GameTest.obj
 0005:00001b9c       $pdata$?_Calculate_growth@?$vector@VLaserWall@@V?$allocator@VLaserWall@@@std@@@std@@AEBA_K_K@Z 0000000140040b9c     GameTest.obj
 0005:00001ba8       $pdata$?_Change_array@?$vector@VLaserWall@@V?$allocator@VLaserWall@@@std@@@std@@AEAAXQEAVLaserWall@@_K1@Z 0000000140040ba8     GameTest.obj
 0005:00001bb4       $pdata$?_Destroy@?$vector@VLaserWall@@V?$allocator@VLaserWall@@@std@@@std@@AEAAXPEAVLaserWall@@0@Z 0000000140040bb4     GameTest.obj
 0005:00001bc0       $pdata$?_Get_first@?$_Compressed_pair@V?$allocator@VLaserWall@@@std@@V?$_Vector_val@U?$_Simple_types@VLaserWall@@@std@@@2@$00@std@@QEAAAEAV?$allocator@VLaserWall@@@2@XZ 0000000140040bc0     GameTest.obj
 0005:00001bcc       $pdata$?_Get_first@?$_Compressed_pair@V?$allocator@VLaserWall@@@std@@V?$_Vector_val@U?$_Simple_types@VLaserWall@@@std@@@2@$00@std@@QEBAAEBV?$allocator@VLaserWall@@@2@XZ 0000000140040bcc     GameTest.obj
 0005:00001bd8       $pdata$?_Getal@?$vector@VLaserWall@@V?$allocator@VLaserWall@@@std@@@std@@AEAAAEAV?$allocator@VLaserWall@@@2@XZ 0000000140040bd8     GameTest.obj
 0005:00001be4       $pdata$?_Getal@?$vector@VLaserWall@@V?$allocator@VLaserWall@@@std@@@std@@AEBAAEBV?$allocator@VLaserWall@@@2@XZ 0000000140040be4     GameTest.obj
 0005:00001bf0       $pdata$?_Orphan_all@_Container_base12@std@@QEAAXXZ 0000000140040bf0     GameTest.obj
 0005:00001bfc       $pdata$?_Orphan_range@?$vector@VLaserWall@@V?$allocator@VLaserWall@@@std@@@std@@AEBAXPEAVLaserWall@@0@Z 0000000140040bfc     GameTest.obj
 0005:00001c08       $pdata$?_Release@?$_Uninitialized_backout_al@V?$allocator@VLaserWall@@@std@@@std@@QEAAPEAVLaserWall@@XZ 0000000140040c08     GameTest.obj
 0005:00001c14       $pdata$?_Throw_bad_array_new_length@std@@YAXXZ 0000000140040c14     GameTest.obj
 0005:00001c20       $pdata$?_Tidy@?$vector@VLaserWall@@V?$allocator@VLaserWall@@@std@@@std@@AEAAXXZ 0000000140040c20     GameTest.obj
 0005:00001c2c       $pdata$?_Umove@?$vector@VLaserWall@@V?$allocator@VLaserWall@@@std@@@std@@AEAAPEAVLaserWall@@PEAV3@00@Z 0000000140040c2c     GameTest.obj
 0005:00001c38       $pdata$?_Umove_if_noexcept1@?$vector@VLaserWall@@V?$allocator@VLaserWall@@@std@@@std@@AEAAXPEAVLaserWall@@00U?$integral_constant@_N$00@2@@Z 0000000140040c38     GameTest.obj
 0005:00001c44       $pdata$?_Umove_if_noexcept@?$vector@VLaserWall@@V?$allocator@VLaserWall@@@std@@@std@@AEAAXPEAVLaserWall@@00@Z 0000000140040c44     GameTest.obj
 0005:00001c50       $pdata$?_Unchecked_begin@?$vector@VLaserWall@@V?$allocator@VLaserWall@@@std@@@std@@QEAAPEAVLaserWall@@XZ 0000000140040c50     GameTest.obj
 0005:00001c5c       $pdata$?_Unchecked_end@?$vector@VLaserWall@@V?$allocator@VLaserWall@@@std@@@std@@QEAAPEAVLaserWall@@XZ 0000000140040c5c     GameTest.obj
 0005:00001c68       $pdata$?_Xlength@?$vector@VLaserWall@@V?$allocator@VLaserWall@@@std@@@std@@CAXXZ 0000000140040c68     GameTest.obj
 0005:00001c74       $pdata$?__autoclassinit2@?$_Uninitialized_backout_al@V?$allocator@VLaserWall@@@std@@@std@@QEAAX_K@Z 0000000140040c74     GameTest.obj
 0005:00001c80       $pdata$?__autoclassinit2@?$vector@VLaserWall@@V?$allocator@VLaserWall@@@std@@@std@@QEAAX_K@Z 0000000140040c80     GameTest.obj
 0005:00001c8c       $pdata$?__autoclassinit2@MainCharacter@@QEAAX_K@Z 0000000140040c8c     GameTest.obj
 0005:00001c98       $pdata$?allocate@?$allocator@U_Container_proxy@std@@@std@@QEAAPEAU_Container_proxy@2@_K@Z 0000000140040c98     GameTest.obj
 0005:00001ca4       $pdata$?allocate@?$allocator@VLaserWall@@@std@@QEAAPEAVLaserWall@@_K@Z 0000000140040ca4     GameTest.obj
 0005:00001cb0       $pdata$?capacity@?$vector@VLaserWall@@V?$allocator@VLaserWall@@@std@@@std@@QEBA_KXZ 0000000140040cb0     GameTest.obj
 0005:00001cbc       $pdata$?deallocate@?$_Default_allocator_traits@V?$allocator@U_Container_proxy@std@@@std@@@std@@SAXAEAV?$allocator@U_Container_proxy@std@@@2@QEAU_Container_proxy@2@_K@Z 0000000140040cbc     GameTest.obj
 0005:00001cc8       $pdata$?deallocate@?$allocator@VLaserWall@@@std@@QEAAXQEAVLaserWall@@_K@Z 0000000140040cc8     GameTest.obj
 0005:00001cd4       $pdata$?max@?$numeric_limits@_J@std@@SA_JXZ 0000000140040cd4     GameTest.obj
 0005:00001ce0       $pdata$?max_size@?$_Default_allocator_traits@V?$allocator@VLaserWall@@@std@@@std@@SA_KAEBV?$allocator@VLaserWall@@@2@@Z 0000000140040ce0     GameTest.obj
 0005:00001cec       $pdata$?max_size@?$vector@VLaserWall@@V?$allocator@VLaserWall@@@std@@@std@@QEBA_KXZ 0000000140040cec     GameTest.obj
 0005:00001cf8       $pdata$?push_back@?$vector@VLaserWall@@V?$allocator@VLaserWall@@@std@@@std@@QEAAXAEBVLaserWall@@@Z 0000000140040cf8     GameTest.obj
 0005:00001d04       $pdata$?what@exception@std@@UEBAPEBDXZ 0000000140040d04     GameTest.obj
 0005:00001d10       $pdata$??0LaserWall@@QEAA@MMMM@Z 0000000140040d10     LaserWall.obj
 0005:00001d1c       $pdata$?Render@LaserWall@@QEAAXXZ 0000000140040d1c     LaserWall.obj
 0005:00001d28       $pdata$??0MainCharacter@@QEAA@XZ 0000000140040d28     MainCharacter.obj
 0005:00001d34       $pdata$??1MainCharacter@@QEAA@XZ 0000000140040d34     MainCharacter.obj
 0005:00001d40       $pdata$?DebugRender@MainCharacter@@QEAAXXZ 0000000140040d40     MainCharacter.obj
 0005:00001d4c       $pdata$?GetCenterPos@MainCharacter@@QEAAXAEAM0@Z 0000000140040d4c     MainCharacter.obj
 0005:00001d58       $pdata$?GetHeight@CSimpleSprite@@QEBAMXZ 0000000140040d58     MainCharacter.obj
 0005:00001d64       $pdata$?GetLeftThumbStickX@CController@@QEBAMXZ 0000000140040d64     MainCharacter.obj
 0005:00001d70       $pdata$?GetLeftThumbStickY@CController@@QEBAMH@Z 0000000140040d70     MainCharacter.obj
 0005:00001d7c       $pdata$?GetPosition@CSimpleSprite@@QEAAXAEAM0@Z 0000000140040d7c     MainCharacter.obj
 0005:00001d88       $pdata$?GetWidth@CSimpleSprite@@QEBAMXZ 0000000140040d88     MainCharacter.obj
 0005:00001d94       $pdata$?Render@MainCharacter@@QEAAXXZ 0000000140040d94     MainCharacter.obj
 0005:00001da0       $pdata$?SetPosition@CSimpleSprite@@QEAAXMM@Z 0000000140040da0     MainCharacter.obj
 0005:00001dac       $pdata$?SetScale@CSimpleSprite@@QEAAXM@Z 0000000140040dac     MainCharacter.obj
 0005:00001db8       $pdata$?StartEndGame@MainCharacter@@QEAAXXZ 0000000140040db8     MainCharacter.obj
 0005:00001dc4       $pdata$?Update@MainCharacter@@QEAAXM@Z 0000000140040dc4     MainCharacter.obj
 0005:00001dd0       $pdata$?UpdateAABB@MainCharacter@@AEAAXXZ 0000000140040dd0     MainCharacter.obj
 0005:00001ddc       $pdata$??0CProfiler@@QEAA@XZ 0000000140040ddc     Framework:main.obj
 0005:00001de8       $pdata$?CheckMemCallback@@YAXXZ 0000000140040de8     Framework:main.obj
 0005:00001df4       $pdata$?Display@@YAXXZ     0000000140040df4     Framework:main.obj
 0005:00001e00       $pdata$?GetCounter@@YANXZ  0000000140040e00     Framework:main.obj
 0005:00001e0c       $pdata$?Idle@@YAXXZ        0000000140040e0c     Framework:main.obj
 0005:00001e18       $pdata$?InitGL@@YAXXZ      0000000140040e18     Framework:main.obj
 0005:00001e24       $pdata$?Print@CProfiler@@QEAAXMMPEBD@Z 0000000140040e24     Framework:main.obj
 0005:00001e30       $pdata$?Start@CProfiler@@QEAAXXZ 0000000140040e30     Framework:main.obj
 0005:00001e3c       $pdata$?StartCounter@@YAXXZ 0000000140040e3c     Framework:main.obj
 0005:00001e48       $pdata$?Stop@CProfiler@@QEAANXZ 0000000140040e48     Framework:main.obj
 0005:00001e54       $pdata$?__empty_global_delete@@YAXPEAX@Z 0000000140040e54     Framework:main.obj
 0005:00001e60       $pdata$?__empty_global_delete@@YAXPEAX_K@Z 0000000140040e60     Framework:main.obj
 0005:00001e6c       $pdata$__local_stdio_printf_options 0000000140040e6c     Framework:main.obj
 0005:00001e78       $pdata$_vfprintf_l         0000000140040e78     Framework:main.obj
 0005:00001e84       $pdata$_vsnprintf_l        0000000140040e84     Framework:main.obj
 0005:00001e90       $pdata$_vsprintf_l         0000000140040e90     Framework:main.obj
 0005:00001e9c       $pdata$glutCreateWindow_ATEXIT_HACK 0000000140040e9c     Framework:main.obj
 0005:00001ea8       $pdata$glutInit_ATEXIT_HACK 0000000140040ea8     Framework:main.obj
 0005:00001eb4       $pdata$printf              0000000140040eb4     Framework:main.obj
 0005:00001ec0       $pdata$sprintf             0000000140040ec0     Framework:main.obj
 0005:00001ecc       $pdata$wWinMain            0000000140040ecc     Framework:main.obj
 0005:00001ed8       $pdata$?CreateSprite@App@@YAPEAVCSimpleSprite@@PEBD@Z 0000000140040ed8     Framework:app.obj
 0005:00001ee4       $pdata$?DrawLine@App@@YAXMMMMMMM@Z 0000000140040ee4     Framework:app.obj
 0005:00001ef0       $pdata$?GetController@App@@YAAEBVCController@@H@Z 0000000140040ef0     Framework:app.obj
 0005:00001efc       $pdata$?GetController@CSimpleControllers@@QEAAAEBVCController@@H@Z 0000000140040efc     Framework:app.obj
 0005:00001f08       $pdata$?GetMousePos@App@@YAXAEAM0@Z 0000000140040f08     Framework:app.obj
 0005:00001f14       $pdata$?IsKeyPressed@App@@YA_NH@Z 0000000140040f14     Framework:app.obj
 0005:00001f20       $pdata$?IsSoundPlaying@App@@YA_NPEBD@Z 0000000140040f20     Framework:app.obj
 0005:00001f2c       $pdata$?Print@App@@YAXMMPEBDMMMPEAX@Z 0000000140040f2c     Framework:app.obj
 0005:00001f38       $pdata$?StartSound@App@@YAXPEBD_N@Z 0000000140040f38     Framework:app.obj
 0005:00001f44       $pdata$?StopSound@App@@YAXPEBD@Z 0000000140040f44     Framework:app.obj
 0005:00001f50       $pdata$??$?0$$V@?$_Compressed_pair@V?$allocator@U?$_Tree_node@U?$pair@QEBDUsTextureDef@CSimpleSprite@@@std@@PEAX@std@@@std@@V?$_Tree_val@U?$_Tree_simple_types@U?$pair@QEBDUsTextureDef@CSimpleSprite@@@std@@@std@@@2@$00@std@@QEAA@U_Zero_then_variadic_args_t@1@@Z 0000000140040f50     Framework:SimpleSprite.obj
 0005:00001f5c       $pdata$??$?0AEBQEAU?$_Tree_node@U?$pair@QEBDUsTextureDef@CSimpleSprite@@@std@@PEAX@std@@_N$0A@@?$pair@PEAU?$_Tree_node@U?$pair@QEBDUsTextureDef@CSimpleSprite@@@std@@PEAX@std@@_N@std@@QEAA@AEBQEAU?$_Tree_node@U?$pair@QEBDUsTextureDef@CSimpleSprite@@@std@@PEAX@1@$$QEA_N@Z 0000000140040f5c     Framework:SimpleSprite.obj
 0005:00001f68       $pdata$??$?0AEBQEBD$$Z$$V@?$pair@QEBDUsTextureDef@CSimpleSprite@@@std@@QEAA@Upiecewise_construct_t@1@V?$tuple@AEBQEBD@1@V?$tuple@$$V@1@@Z 0000000140040f68     Framework:SimpleSprite.obj
 0005:00001f74       $pdata$??$?0AEBQEBD$0A@@?$tuple@AEBQEBD@std@@QEAA@AEBQEBD@Z 0000000140040f74     Framework:SimpleSprite.obj
 0005:00001f80       $pdata$??$?0AEBQEBD@?$_Tuple_val@AEBQEBD@std@@QEAA@AEBQEBD@Z 0000000140040f80     Framework:SimpleSprite.obj
 0005:00001f8c       $pdata$??$?0AEBU?$less@PEBD@std@@U_Zero_then_variadic_args_t@1@@?$_Compressed_pair@U?$less@PEBD@std@@V?$_Compressed_pair@V?$allocator@U?$_Tree_node@U?$pair@QEBDUsTextureDef@CSimpleSprite@@@std@@PEAX@std@@@std@@V?$_Tree_val@U?$_Tree_simple_types@U?$pair@QEBDUsTextureDef@CSimpleSprite@@@std@@@std@@@2@$00@2@$00@std@@QEAA@U_One_then_variadic_args_t@1@AEBU?$less@PEBD@1@$$QEAU_Zero_then_variadic_args_t@1@@Z 0000000140040f8c     Framework:SimpleSprite.obj
 0005:00001f98       $pdata$??$?0AEBUpiecewise_construct_t@std@@V?$tuple@AEBQEBD@1@V?$tuple@$$V@1@@?$_Tree_temp_node@V?$allocator@U?$_Tree_node@U?$pair@QEBDUsTextureDef@CSimpleSprite@@@std@@PEAX@std@@@std@@@std@@QEAA@AEAV?$allocator@U?$_Tree_node@U?$pair@QEBDUsTextureDef@CSimpleSprite@@@std@@PEAX@std@@@1@PEAU?$_Tree_node@U?$pair@QEBDUsTextureDef@CSimpleSprite@@@std@@PEAX@1@AEBUpiecewise_construct_t@1@$$QEAV?$tuple@AEBQEBD@1@$$QEAV?$tuple@$$V@1@@Z 0000000140040f98     Framework:SimpleSprite.obj
 0005:00001fa4       $pdata$??$?0PEAU?$_Tree_node@U?$pair@QEBDUsTextureDef@CSimpleSprite@@@std@@PEAX@std@@_N$0A@@?$pair@PEAU?$_Tree_node@U?$pair@QEBDUsTextureDef@CSimpleSprite@@@std@@PEAX@std@@_N@std@@QEAA@$$QEAPEAU?$_Tree_node@U?$pair@QEBDUsTextureDef@CSimpleSprite@@@std@@PEAX@1@$$QEA_N@Z 0000000140040fa4     Framework:SimpleSprite.obj
 0005:00001fb0       $pdata$??$?0U?$_Tree_node@U?$pair@QEBDUsTextureDef@CSimpleSprite@@@std@@PEAX@std@@@?$allocator@U_Container_proxy@std@@@std@@QEAA@AEBV?$allocator@U?$_Tree_node@U?$pair@QEBDUsTextureDef@CSimpleSprite@@@std@@PEAX@std@@@1@@Z 0000000140040fb0     Framework:SimpleSprite.obj
 0005:00001fbc       $pdata$??$?0U_Exact_args_t@std@@$0A@@?$tuple@$$V@std@@QEAA@U_Exact_args_t@1@@Z 0000000140040fbc     Framework:SimpleSprite.obj
 0005:00001fc8       $pdata$??$?0U_Exact_args_t@std@@AEBQEBD$$V$0A@@?$tuple@AEBQEBD@std@@QEAA@U_Exact_args_t@1@AEBQEBD@Z 0000000140040fc8     Framework:SimpleSprite.obj
 0005:00001fd4       $pdata$??$?0V?$tuple@AEBQEBD@std@@V?$tuple@$$V@1@$0A@$$Z$S@?$pair@QEBDUsTextureDef@CSimpleSprite@@@std@@QEAA@AEAV?$tuple@AEBQEBD@1@AEAV?$tuple@$$V@1@U?$integer_sequence@_K$0A@@1@U?$integer_sequence@_K$S@1@@Z 0000000140040fd4     Framework:SimpleSprite.obj
 0005:00001fe0       $pdata$??$_Buyheadnode@V?$allocator@U?$_Tree_node@U?$pair@QEBDUsTextureDef@CSimpleSprite@@@std@@PEAX@std@@@std@@@?$_Tree_node@U?$pair@QEBDUsTextureDef@CSimpleSprite@@@std@@PEAX@std@@SAPEAU01@AEAV?$allocator@U?$_Tree_node@U?$pair@QEBDUsTextureDef@CSimpleSprite@@@std@@PEAX@std@@@1@@Z 0000000140040fe0     Framework:SimpleSprite.obj
 0005:00001fec       $pdata$??$_Construct_in_place@PEAU?$_Tree_node@U?$pair@QEBDUsTextureDef@CSimpleSprite@@@std@@PEAX@std@@AEAPEAU12@@std@@YAXAEAPEAU?$_Tree_node@U?$pair@QEBDUsTextureDef@CSimpleSprite@@@std@@PEAX@0@0@Z 0000000140040fec     Framework:SimpleSprite.obj
 0005:00001ff8       $pdata$??$_Construct_in_place@PEAU?$_Tree_node@U?$pair@QEBDUsTextureDef@CSimpleSprite@@@std@@PEAX@std@@AEBQEAU12@@std@@YAXAEAPEAU?$_Tree_node@U?$pair@QEBDUsTextureDef@CSimpleSprite@@@std@@PEAX@0@AEBQEAU10@@Z 0000000140040ff8     Framework:SimpleSprite.obj
 0005:00002004       $pdata$??$_Debug_lt_pred@AEBU?$less@PEBD@std@@AEBQEBDAEBQEBD$0A@@std@@YA_NAEBU?$less@PEBD@0@AEBQEBD1@Z 0000000140041004     Framework:SimpleSprite.obj
 0005:00002010       $pdata$??$_Destroy_in_place@PEAU?$_Tree_node@U?$pair@QEBDUsTextureDef@CSimpleSprite@@@std@@PEAX@std@@@std@@YAXAEAPEAU?$_Tree_node@U?$pair@QEBDUsTextureDef@CSimpleSprite@@@std@@PEAX@0@@Z 0000000140041010     Framework:SimpleSprite.obj
 0005:0000201c       $pdata$??$_Erase_head@V?$allocator@U?$_Tree_node@U?$pair@QEBDUsTextureDef@CSimpleSprite@@@std@@PEAX@std@@@std@@@?$_Tree_val@U?$_Tree_simple_types@U?$pair@QEBDUsTextureDef@CSimpleSprite@@@std@@@std@@@std@@QEAAXAEAV?$allocator@U?$_Tree_node@U?$pair@QEBDUsTextureDef@CSimpleSprite@@@std@@PEAX@std@@@1@@Z 000000014004101c     Framework:SimpleSprite.obj
 0005:00002028       $pdata$??$_Erase_tree@V?$allocator@U?$_Tree_node@U?$pair@QEBDUsTextureDef@CSimpleSprite@@@std@@PEAX@std@@@std@@@?$_Tree_val@U?$_Tree_simple_types@U?$pair@QEBDUsTextureDef@CSimpleSprite@@@std@@@std@@@std@@QEAAXAEAV?$allocator@U?$_Tree_node@U?$pair@QEBDUsTextureDef@CSimpleSprite@@@std@@PEAX@std@@@1@PEAU?$_Tree_node@U?$pair@QEBDUsTextureDef@CSimpleSprite@@@std@@PEAX@1@@Z 0000000140041028     Framework:SimpleSprite.obj
 0005:00002034       $pdata$??$_Find@PEBD@?$_Tree@V?$_Tmap_traits@PEBDUsTextureDef@CSimpleSprite@@U?$less@PEBD@std@@V?$allocator@U?$pair@QEBDUsTextureDef@CSimpleSprite@@@std@@@4@$0A@@std@@@std@@AEBAPEAU?$_Tree_node@U?$pair@QEBDUsTextureDef@CSimpleSprite@@@std@@PEAX@1@AEBQEBD@Z 0000000140041034     Framework:SimpleSprite.obj
 0005:00002040       $pdata$??$_Find_lower_bound@PEBD@?$_Tree@V?$_Tmap_traits@PEBDUsTextureDef@CSimpleSprite@@U?$less@PEBD@std@@V?$allocator@U?$pair@QEBDUsTextureDef@CSimpleSprite@@@std@@@4@$0A@@std@@@std@@IEBA?AU?$_Tree_find_result@PEAU?$_Tree_node@U?$pair@QEBDUsTextureDef@CSimpleSprite@@@std@@PEAX@std@@@1@AEBQEBD@Z 0000000140041040     Framework:SimpleSprite.obj
 0005:0000204c       $pdata$??$_Freenode0@V?$allocator@U?$_Tree_node@U?$pair@QEBDUsTextureDef@CSimpleSprite@@@std@@PEAX@std@@@std@@@?$_Tree_node@U?$pair@QEBDUsTextureDef@CSimpleSprite@@@std@@PEAX@std@@SAXAEAV?$allocator@U?$_Tree_node@U?$pair@QEBDUsTextureDef@CSimpleSprite@@@std@@PEAX@std@@@1@PEAU01@@Z 000000014004104c     Framework:SimpleSprite.obj
 0005:00002058       $pdata$??$_Freenode@V?$allocator@U?$_Tree_node@U?$pair@QEBDUsTextureDef@CSimpleSprite@@@std@@PEAX@std@@@std@@@?$_Tree_node@U?$pair@QEBDUsTextureDef@CSimpleSprite@@@std@@PEAX@std@@SAXAEAV?$allocator@U?$_Tree_node@U?$pair@QEBDUsTextureDef@CSimpleSprite@@@std@@PEAX@std@@@1@PEAU01@@Z 0000000140041058     Framework:SimpleSprite.obj
 0005:00002064       $pdata$??$_Get_size_of_n@$0DI@@std@@YA_K_K@Z 0000000140041064     Framework:SimpleSprite.obj
 0005:00002070       $pdata$??$_Kfn@QEBDUsTextureDef@CSimpleSprite@@@?$_Tmap_traits@PEBDUsTextureDef@CSimpleSprite@@U?$less@PEBD@std@@V?$allocator@U?$pair@QEBDUsTextureDef@CSimpleSprite@@@std@@@4@$0A@@std@@SAAEBQEBDAEBU?$pair@QEBDUsTextureDef@CSimpleSprite@@@1@@Z 0000000140041070     Framework:SimpleSprite.obj
 0005:0000207c       $pdata$??$_Lower_bound_duplicate@PEBD@?$_Tree@V?$_Tmap_traits@PEBDUsTextureDef@CSimpleSprite@@U?$less@PEBD@std@@V?$allocator@U?$pair@QEBDUsTextureDef@CSimpleSprite@@@std@@@4@$0A@@std@@@std@@IEBA_NQEAU?$_Tree_node@U?$pair@QEBDUsTextureDef@CSimpleSprite@@@std@@PEAX@1@AEBQEBD@Z 000000014004107c     Framework:SimpleSprite.obj
 0005:00002088       $pdata$??$_Try_emplace@AEBQEBD$$V@?$map@PEBDUsTextureDef@CSimpleSprite@@U?$less@PEBD@std@@V?$allocator@U?$pair@QEBDUsTextureDef@CSimpleSprite@@@std@@@4@@std@@AEAA?AU?$pair@PEAU?$_Tree_node@U?$pair@QEBDUsTextureDef@CSimpleSprite@@@std@@PEAX@std@@_N@1@AEBQEBD@Z 0000000140041088     Framework:SimpleSprite.obj
 0005:00002094       $pdata$??$addressof@$$CBV?$_Tree_val@U?$_Tree_simple_types@U?$pair@QEBDUsTextureDef@CSimpleSprite@@@std@@@std@@@std@@@std@@YAPEBV?$_Tree_val@U?$_Tree_simple_types@U?$pair@QEBDUsTextureDef@CSimpleSprite@@@std@@@std@@@0@AEBV10@@Z 0000000140041094     Framework:SimpleSprite.obj
 0005:000020a0       $pdata$??$addressof@PEAU?$_Tree_node@U?$pair@QEBDUsTextureDef@CSimpleSprite@@@std@@PEAX@std@@@std@@YAPEAPEAU?$_Tree_node@U?$pair@QEBDUsTextureDef@CSimpleSprite@@@std@@PEAX@0@AEAPEAU10@@Z 00000001400410a0     Framework:SimpleSprite.obj
 0005:000020ac       $pdata$??$addressof@U?$pair@QEBDUsTextureDef@CSimpleSprite@@@std@@@std@@YAPEAU?$pair@QEBDUsTextureDef@CSimpleSprite@@@0@AEAU10@@Z 00000001400410ac     Framework:SimpleSprite.obj
 0005:000020b8       $pdata$??$addressof@U_Container_base12@std@@@std@@YAPEAU_Container_base12@0@AEAU10@@Z 00000001400410b8     Framework:SimpleSprite.obj
 0005:000020c4       $pdata$??$addressof@V?$_Tree_val@U?$_Tree_simple_types@U?$pair@QEBDUsTextureDef@CSimpleSprite@@@std@@@std@@@std@@@std@@YAPEAV?$_Tree_val@U?$_Tree_simple_types@U?$pair@QEBDUsTextureDef@CSimpleSprite@@@std@@@std@@@0@AEAV10@@Z 00000001400410c4     Framework:SimpleSprite.obj
 0005:000020d0       $pdata$??$construct@U?$pair@QEBDUsTextureDef@CSimpleSprite@@@std@@AEBUpiecewise_construct_t@2@V?$tuple@AEBQEBD@2@V?$tuple@$$V@2@@?$_Default_allocator_traits@V?$allocator@U?$_Tree_node@U?$pair@QEBDUsTextureDef@CSimpleSprite@@@std@@PEAX@std@@@std@@@std@@SAXAEAV?$allocator@U?$_Tree_node@U?$pair@QEBDUsTextureDef@CSimpleSprite@@@std@@PEAX@std@@@1@QEAU?$pair@QEBDUsTextureDef@CSimpleSprite@@@1@AEBUpiecewise_construct_t@1@$$QEAV?$tuple@AEBQEBD@1@$$QEAV?$tuple@$$V@1@@Z 00000001400410d0     Framework:SimpleSprite.obj
 0005:000020dc       $pdata$??$destroy@U?$pair@QEBDUsTextureDef@CSimpleSprite@@@std@@@?$_Default_allocator_traits@V?$allocator@U?$_Tree_node@U?$pair@QEBDUsTextureDef@CSimpleSprite@@@std@@PEAX@std@@@std@@@std@@SAXAEAV?$allocator@U?$_Tree_node@U?$pair@QEBDUsTextureDef@CSimpleSprite@@@std@@PEAX@std@@@1@QEAU?$pair@QEBDUsTextureDef@CSimpleSprite@@@1@@Z 00000001400410dc     Framework:SimpleSprite.obj
 0005:000020e8       $pdata$??$exchange@PEAU?$_Tree_node@U?$pair@QEBDUsTextureDef@CSimpleSprite@@@std@@PEAX@std@@$$T@std@@YAPEAU?$_Tree_node@U?$pair@QEBDUsTextureDef@CSimpleSprite@@@std@@PEAX@0@AEAPEAU10@$$QEA$$T@Z 00000001400410e8     Framework:SimpleSprite.obj
 0005:000020f4       $pdata$??$exchange@PEAU?$_Tree_node@U?$pair@QEBDUsTextureDef@CSimpleSprite@@@std@@PEAX@std@@AEAPEAU12@@std@@YAPEAU?$_Tree_node@U?$pair@QEBDUsTextureDef@CSimpleSprite@@@std@@PEAX@0@AEAPEAU10@0@Z 00000001400410f4     Framework:SimpleSprite.obj
 0005:00002100       $pdata$??$forward@AEAPEAU?$_Tree_node@U?$pair@QEBDUsTextureDef@CSimpleSprite@@@std@@PEAX@std@@@std@@YAAEAPEAU?$_Tree_node@U?$pair@QEBDUsTextureDef@CSimpleSprite@@@std@@PEAX@0@AEAPEAU10@@Z 0000000140041100     Framework:SimpleSprite.obj
 0005:0000210c       $pdata$??$forward@AEBQEAU?$_Tree_node@U?$pair@QEBDUsTextureDef@CSimpleSprite@@@std@@PEAX@std@@@std@@YAAEBQEAU?$_Tree_node@U?$pair@QEBDUsTextureDef@CSimpleSprite@@@std@@PEAX@0@AEBQEAU10@@Z 000000014004110c     Framework:SimpleSprite.obj
 0005:00002118       $pdata$??$forward@AEBQEBD@std@@YAAEBQEBDAEBQEBD@Z 0000000140041118     Framework:SimpleSprite.obj
 0005:00002124       $pdata$??$forward@AEBU?$less@PEBD@std@@@std@@YAAEBU?$less@PEBD@0@AEBU10@@Z 0000000140041124     Framework:SimpleSprite.obj
 0005:00002130       $pdata$??$forward@AEBUpiecewise_construct_t@std@@@std@@YAAEBUpiecewise_construct_t@0@AEBU10@@Z 0000000140041130     Framework:SimpleSprite.obj
 0005:0000213c       $pdata$??$forward@PEAU?$_Tree_node@U?$pair@QEBDUsTextureDef@CSimpleSprite@@@std@@PEAX@std@@@std@@YA$$QEAPEAU?$_Tree_node@U?$pair@QEBDUsTextureDef@CSimpleSprite@@@std@@PEAX@0@AEAPEAU10@@Z 000000014004113c     Framework:SimpleSprite.obj
 0005:00002148       $pdata$??$forward@U_Zero_then_variadic_args_t@std@@@std@@YA$$QEAU_Zero_then_variadic_args_t@0@AEAU10@@Z 0000000140041148     Framework:SimpleSprite.obj
 0005:00002154       $pdata$??$forward@V?$tuple@$$V@std@@@std@@YA$$QEAV?$tuple@$$V@0@AEAV10@@Z 0000000140041154     Framework:SimpleSprite.obj
 0005:00002160       $pdata$??$forward@V?$tuple@AEBQEBD@std@@@std@@YA$$QEAV?$tuple@AEBQEBD@0@AEAV10@@Z 0000000140041160     Framework:SimpleSprite.obj
 0005:0000216c       $pdata$??$forward@_N@std@@YA$$QEA_NAEA_N@Z 000000014004116c     Framework:SimpleSprite.obj
 0005:00002178       $pdata$??$forward_as_tuple@$$V@std@@YA?AV?$tuple@$$V@0@XZ 0000000140041178     Framework:SimpleSprite.obj
 0005:00002184       $pdata$??$forward_as_tuple@AEBQEBD@std@@YA?AV?$tuple@AEBQEBD@0@AEBQEBD@Z 0000000140041184     Framework:SimpleSprite.obj
 0005:00002190       $pdata$??$get@$0A@AEBQEBD@std@@YAAEBQEBD$$QEAV?$tuple@AEBQEBD@0@@Z 0000000140041190     Framework:SimpleSprite.obj
 0005:0000219c       $pdata$??$move@AEAV?$tuple@AEBQEBD@std@@@std@@YA$$QEAV?$tuple@AEBQEBD@0@AEAV10@@Z 000000014004119c     Framework:SimpleSprite.obj
 0005:000021a8       $pdata$??0?$_Alloc_construct_ptr@V?$allocator@U?$_Tree_node@U?$pair@QEBDUsTextureDef@CSimpleSprite@@@std@@PEAX@std@@@std@@@std@@QEAA@AEAV?$allocator@U?$_Tree_node@U?$pair@QEBDUsTextureDef@CSimpleSprite@@@std@@PEAX@std@@@1@@Z 00000001400411a8     Framework:SimpleSprite.obj
 0005:000021b4       $pdata$??0?$_Container_proxy_ptr12@V?$allocator@U_Container_proxy@std@@@std@@@std@@QEAA@AEAV?$allocator@U_Container_proxy@std@@@1@AEAU_Container_base12@1@@Z 00000001400411b4     Framework:SimpleSprite.obj
 0005:000021c0       $pdata$??0?$_Tree@V?$_Tmap_traits@PEBDUsTextureDef@CSimpleSprite@@U?$less@PEBD@std@@V?$allocator@U?$pair@QEBDUsTextureDef@CSimpleSprite@@@std@@@4@$0A@@std@@@std@@QEAA@AEBU?$less@PEBD@1@@Z 00000001400411c0     Framework:SimpleSprite.obj
 0005:000021cc       $pdata$??0?$_Tree_const_iterator@V?$_Tree_val@U?$_Tree_simple_types@U?$pair@QEBDUsTextureDef@CSimpleSprite@@@std@@@std@@@std@@@std@@QEAA@PEAU?$_Tree_node@U?$pair@QEBDUsTextureDef@CSimpleSprite@@@std@@PEAX@1@PEBV?$_Tree_val@U?$_Tree_simple_types@U?$pair@QEBDUsTextureDef@CSimpleSprite@@@std@@@std@@@1@@Z 00000001400411cc     Framework:SimpleSprite.obj
 0005:000021d8       $pdata$??0?$_Tree_iterator@V?$_Tree_val@U?$_Tree_simple_types@U?$pair@QEBDUsTextureDef@CSimpleSprite@@@std@@@std@@@std@@@std@@QEAA@PEAU?$_Tree_node@U?$pair@QEBDUsTextureDef@CSimpleSprite@@@std@@PEAX@1@PEBV?$_Tree_val@U?$_Tree_simple_types@U?$pair@QEBDUsTextureDef@CSimpleSprite@@@std@@@std@@@1@@Z 00000001400411d8     Framework:SimpleSprite.obj
 0005:000021e4       $pdata$??0?$_Tree_temp_node_alloc@V?$allocator@U?$_Tree_node@U?$pair@QEBDUsTextureDef@CSimpleSprite@@@std@@PEAX@std@@@std@@@std@@QEAA@AEAV?$allocator@U?$_Tree_node@U?$pair@QEBDUsTextureDef@CSimpleSprite@@@std@@PEAX@std@@@1@@Z 00000001400411e4     Framework:SimpleSprite.obj
 0005:000021f0       $pdata$??0?$_Tree_unchecked_const_iterator@V?$_Tree_val@U?$_Tree_simple_types@U?$pair@QEBDUsTextureDef@CSimpleSprite@@@std@@@std@@@std@@U_Iterator_base12@2@@std@@QEAA@PEAU?$_Tree_node@U?$pair@QEBDUsTextureDef@CSimpleSprite@@@std@@PEAX@1@PEBV?$_Tree_val@U?$_Tree_simple_types@U?$pair@QEBDUsTextureDef@CSimpleSprite@@@std@@@std@@@1@@Z 00000001400411f0     Framework:SimpleSprite.obj
 0005:000021fc       $pdata$??0?$_Tree_val@U?$_Tree_simple_types@U?$pair@QEBDUsTextureDef@CSimpleSprite@@@std@@@std@@@std@@QEAA@XZ 00000001400411fc     Framework:SimpleSprite.obj
 0005:00002208       $pdata$??0?$allocator@U?$_Tree_node@U?$pair@QEBDUsTextureDef@CSimpleSprite@@@std@@PEAX@std@@@std@@QEAA@XZ 0000000140041208     Framework:SimpleSprite.obj
 0005:00002214       $pdata$??0?$map@PEBDUsTextureDef@CSimpleSprite@@U?$less@PEBD@std@@V?$allocator@U?$pair@QEBDUsTextureDef@CSimpleSprite@@@std@@@4@@std@@QEAA@XZ 0000000140041214     Framework:SimpleSprite.obj
 0005:00002220       $pdata$??0?$tuple@$$V@std@@QEAA@AEBV01@@Z 0000000140041220     Framework:SimpleSprite.obj
 0005:0000222c       $pdata$??0?$tuple@$$V@std@@QEAA@XZ 000000014004122c     Framework:SimpleSprite.obj
 0005:00002238       $pdata$??0?$tuple@AEBQEBD@std@@QEAA@$$QEAV01@@Z 0000000140041238     Framework:SimpleSprite.obj
 0005:00002244       $pdata$??0CSimpleSprite@@QEAA@PEBD@Z 0000000140041244     Framework:SimpleSprite.obj
 0005:00002250       $pdata$??0_Iterator_base12@std@@QEAA@XZ 0000000140041250     Framework:SimpleSprite.obj
 0005:0000225c       $pdata$??1?$_Alloc_construct_ptr@V?$allocator@U?$_Tree_node@U?$pair@QEBDUsTextureDef@CSimpleSprite@@@std@@PEAX@std@@@std@@@std@@QEAA@XZ 000000014004125c     Framework:SimpleSprite.obj
 0005:00002268       $pdata$??1?$_Container_proxy_ptr12@V?$allocator@U_Container_proxy@std@@@std@@@std@@QEAA@XZ 0000000140041268     Framework:SimpleSprite.obj
 0005:00002274       $pdata$??1?$_Tree@V?$_Tmap_traits@PEBDUsTextureDef@CSimpleSprite@@U?$less@PEBD@std@@V?$allocator@U?$pair@QEBDUsTextureDef@CSimpleSprite@@@std@@@4@$0A@@std@@@std@@QEAA@XZ 0000000140041274     Framework:SimpleSprite.obj
 0005:00002280       $pdata$??1?$_Tree_const_iterator@V?$_Tree_val@U?$_Tree_simple_types@U?$pair@QEBDUsTextureDef@CSimpleSprite@@@std@@@std@@@std@@@std@@QEAA@XZ 0000000140041280     Framework:SimpleSprite.obj
 0005:0000228c       $pdata$??1?$_Tree_iterator@V?$_Tree_val@U?$_Tree_simple_types@U?$pair@QEBDUsTextureDef@CSimpleSprite@@@std@@@std@@@std@@@std@@QEAA@XZ 000000014004128c     Framework:SimpleSprite.obj
 0005:00002298       $pdata$??1?$_Tree_temp_node@V?$allocator@U?$_Tree_node@U?$pair@QEBDUsTextureDef@CSimpleSprite@@@std@@PEAX@std@@@std@@@std@@QEAA@XZ 0000000140041298     Framework:SimpleSprite.obj
 0005:000022a4       $pdata$??1?$_Tree_temp_node_alloc@V?$allocator@U?$_Tree_node@U?$pair@QEBDUsTextureDef@CSimpleSprite@@@std@@PEAX@std@@@std@@@std@@QEAA@XZ 00000001400412a4     Framework:SimpleSprite.obj
 0005:000022b0       $pdata$??1?$_Tree_unchecked_const_iterator@V?$_Tree_val@U?$_Tree_simple_types@U?$pair@QEBDUsTextureDef@CSimpleSprite@@@std@@@std@@@std@@U_Iterator_base12@2@@std@@QEAA@XZ 00000001400412b0     Framework:SimpleSprite.obj
