 LockedOrFreedom

 Timestamp is 5db5fa9e (Sun Oct 27 21:14:22 2019)

 Preferred load address is 0000000140000000

 Start         Length     Name                   Class
 0001:00000000 00010000H .textbss                DATA
 0002:00000000 00003420H .text$di                CODE
 0002:00003420 0001b7f0H .text$mn                CODE
 0002:0001ec10 00001020H .text$mn$00             CODE
 0002:0001fc30 00001650H .text$x                 CODE
 0002:00021280 000010e8H .text$yd                CODE
 0003:00000000 00000110H .CRT$XCA                DATA
 0003:00000110 00000110H .CRT$XCAA               DATA
 0003:00000220 00000140H .CRT$XCU                DATA
 0003:00000360 00000110H .CRT$XCZ                DATA
 0003:00000470 00000110H .CRT$XIA                DATA
 0003:00000580 00000110H .CRT$XIAA               DATA
 0003:00000690 00000110H .CRT$XIAC               DATA
 0003:000007a0 00000110H .CRT$XIC                DATA
 0003:000008b0 00000110H .CRT$XIZ                DATA
 0003:000009c0 00000008H .CRT$XLA                DATA
 0003:000009c8 00000008H .CRT$XLZ                DATA
 0003:000009d0 00000110H .CRT$XPA                DATA
 0003:00000ae0 00000110H .CRT$XPZ                DATA
 0003:00000bf0 00000110H .CRT$XTA                DATA
 0003:00000d00 00000110H .CRT$XTZ                DATA
 0003:00000e10 00008d88H .rdata                  DATA
 0003:00009b98 00000130H .rdata$T                DATA
 0003:00009cc8 000004f8H .rdata$r                DATA
 0003:0000a1c0 000001a0H .rdata$zzzdbg           DATA
 0003:0000a360 00000110H .rtc$IAA                DATA
 0003:0000a470 000001e8H .rtc$IMZ                DATA
 0003:0000a658 00000110H .rtc$IZZ                DATA
 0003:0000a768 00000110H .rtc$TAA                DATA
 0003:0000a878 000001e8H .rtc$TMZ                DATA
 0003:0000aa60 00000110H .rtc$TZZ                DATA
 0003:0000ab70 00003a98H .xdata                  DATA
 0003:0000e608 00000209H .xdata$x                DATA
 0003:0000e811 00000000H .edata                  DATA
 0004:00000000 00000538H .data                   DATA
 0004:00000538 00000238H .data$r                 DATA
 0004:00000770 00000d20H .bss                    DATA
 0005:00000000 000038f4H .pdata                  DATA
 0006:00000000 00000940H .idata$5                DATA
 0006:00000940 000000dcH .idata$2                DATA
 0006:00000a1c 00000014H .idata$3                DATA
 0006:00000a30 00000940H .idata$4                DATA
 0006:00001370 00000d62H .idata$6                DATA
 0007:00000000 000003afH .msvcjmc                DATA
 0008:00000000 00000104H .tls                    DATA
 0008:00000104 00000104H .tls$                   DATA
 0008:00000208 00000101H .tls$ZZZ                DATA
 0009:00000000 0000011bH .00cfg                  DATA
 000a:00000000 00000170H .rsrc$01                DATA
 000a:00000170 000002ccH .rsrc$02                DATA

  Address         Publics by Value              Rva+Base               Lib:Object

 0000:00000000       __hybrid_code_map_count    0000000000000000     <absolute>
 0000:00000000       ___safe_se_handler_table   0000000000000000     <absolute>
 0000:00000000       __volatile_metadata        0000000000000000     <absolute>
 0000:00000000       __guard_iat_count          0000000000000000     <absolute>
 0000:00000000       __AbsoluteZero             0000000000000000     <absolute>
 0000:00000000       __guard_fids_table         0000000000000000     <absolute>
 0000:00000000       __guard_longjmp_count      0000000000000000     <absolute>
 0000:00000000       __dynamic_value_reloc_table 0000000000000000     <absolute>
 0000:00000000       __hybrid_code_map          0000000000000000     <absolute>
 0000:00000000       __guard_iat_table          0000000000000000     <absolute>
 0000:00000000       __guard_longjmp_table      0000000000000000     <absolute>
 0000:00000000       __guard_fids_count         0000000000000000     <absolute>
 0000:00000000       __hybrid_auxiliary_iat     0000000000000000     <absolute>
 0000:00000000       __enclave_config           0000000000000000     <absolute>
 0000:00000000       ___safe_se_handler_count   0000000000000000     <absolute>
 0000:00000100       __guard_flags              0000000000000100     <absolute>
 0000:00000000       __ImageBase                0000000140000000     <linker-defined>
 0001:00000000       __enc$textbss$begin        0000000140001000     <linker-defined>
 0001:00010000       __enc$textbss$end          0000000140011000     <linker-defined>
 0002:00003420       ?areColliding@@YA_NAEBUAABB@@0@Z 0000000140014420 f   AABB.obj
 0002:00003500       __JustMyCode_Default       0000000140014500 f i AABB.obj
 0002:00003510       ??0Box@@QEAA@MM@Z          0000000140014510 f   Box.obj
 0002:00003610       ??1Box@@UEAA@XZ            0000000140014610 f   Box.obj
 0002:000036c0       ??_EBox@@UEAAPEAXI@Z       00000001400146c0 f i Box.obj
 0002:000036c0       ??_GBox@@UEAAPEAXI@Z       00000001400146c0 f i Box.obj
 0002:00003750       ?GetPosition@CSimpleSprite@@QEAAXAEAM0@Z 0000000140014750 f i Box.obj
 0002:000037f0       ?SetPosition@CSimpleSprite@@QEAAXMM@Z 00000001400147f0 f i Box.obj
 0002:00003890       ?SetScale@CSimpleSprite@@QEAAXM@Z 0000000140014890 f i Box.obj
 0002:00003900       ?areColliding@Box@@UEAAHAEBUAABB@@0@Z 0000000140014900 f   Box.obj
 0002:00003b80       ?deplacementBox@Box@@UEAAXH@Z 0000000140014b80 f   Box.obj
 0002:00003db0       ??0Character@@QEAA@XZ      0000000140014db0 f   Character.obj
 0002:00003e70       ??1Character@@QEAA@XZ      0000000140014e70 f   Character.obj
 0002:00003ef0       ?GetHeight@CSimpleSprite@@QEBAMXZ 0000000140014ef0 f i Character.obj
 0002:00003f50       ?GetLeftThumbStickX@CController@@QEBAMXZ 0000000140014f50 f i Character.obj
 0002:00003fc0       ?GetLeftThumbStickY@CController@@QEBAMH@Z 0000000140014fc0 f i Character.obj
 0002:00004040       ?GetWidth@CSimpleSprite@@QEBAMXZ 0000000140015040 f i Character.obj
 0002:000040a0       ?Render@Character@@QEAAXXZ 00000001400150a0 f   Character.obj
 0002:00004110       ?SetOldPosition@Character@@QEAAXXZ 0000000140015110 f   Character.obj
 0002:00004190       ?Update@Character@@QEAAXM@Z 0000000140015190 f   Character.obj
 0002:000045f0       ?UpdateAABB@Character@@AEAAXXZ 00000001400155f0 f   Character.obj
 0002:000047a0       ??0Door@@QEAA@MMMM@Z       00000001400157a0 f   Door.obj
 0002:00004930       ??1Door@@QEAA@XZ           0000000140015930 f   Door.obj
 0002:00004990       ?Render@Door@@QEAAXXZ      0000000140015990 f   Door.obj
 0002:00004c00       ?Update@Door@@QEAAXM@Z     0000000140015c00 f   Door.obj
 0002:00004d20       ??0Obstacle@@QEAA@XZ       0000000140015d20 f   Obstacle.obj
 0002:00004da0       ??1Obstacle@@UEAA@XZ       0000000140015da0 f   Obstacle.obj
 0002:00004e40       ??_EObstacle@@UEAAPEAXI@Z  0000000140015e40 f i Obstacle.obj
 0002:00004e40       ??_GObstacle@@UEAAPEAXI@Z  0000000140015e40 f i Obstacle.obj
 0002:00004ed0       ?Render@Obstacle@@QEAAXXZ  0000000140015ed0 f   Obstacle.obj
 0002:00004f40       ?Update@Obstacle@@QEAAXXZ  0000000140015f40 f   Obstacle.obj
 0002:00004fa0       ?UpdateAABB@Obstacle@@IEAAXXZ 0000000140015fa0 f   Obstacle.obj
 0002:00005150       ??$?0$$V@?$_Compressed_pair@V?$allocator@PEAVObstacle@@@std@@V?$_Vector_val@U?$_Simple_types@PEAVObstacle@@@std@@@2@$00@std@@QEAA@U_Zero_then_variadic_args_t@1@@Z 0000000140016150 f i UbisoftProject.obj
 0002:000051d0       ??$?0$$V@?$_Compressed_pair@V?$allocator@V?$vector@PEAVObstacle@@V?$allocator@PEAVObstacle@@@std@@@std@@@std@@V?$_Vector_val@U?$_Simple_types@V?$vector@PEAVObstacle@@V?$allocator@PEAVObstacle@@@std@@@std@@@std@@@2@$00@std@@QEAA@U_Zero_then_variadic_args_t@1@@Z 00000001400161d0 f i UbisoftProject.obj
 0002:00005250       ??$?0PEAVObstacle@@@?$allocator@U_Container_proxy@std@@@std@@QEAA@AEBV?$allocator@PEAVObstacle@@@1@@Z 0000000140016250 f i UbisoftProject.obj
 0002:000052b0       ??$?0V?$allocator@PEAVObstacle@@@std@@$$V@?$_Compressed_pair@V?$allocator@PEAVObstacle@@@std@@V?$_Vector_val@U?$_Simple_types@PEAVObstacle@@@std@@@2@$00@std@@QEAA@U_One_then_variadic_args_t@1@$$QEAV?$allocator@PEAVObstacle@@@1@@Z 00000001400162b0 f i UbisoftProject.obj
 0002:00005340       ??$?0V?$vector@PEAVObstacle@@V?$allocator@PEAVObstacle@@@std@@@std@@@?$allocator@U_Container_proxy@std@@@std@@QEAA@AEBV?$allocator@V?$vector@PEAVObstacle@@V?$allocator@PEAVObstacle@@@std@@@std@@@1@@Z 0000000140016340 f i UbisoftProject.obj
 0002:000053a0       ??$_Alloc_proxy@V?$allocator@U_Container_proxy@std@@@std@@@_Container_base12@std@@QEAAX$$QEAV?$allocator@U_Container_proxy@std@@@1@@Z 00000001400163a0 f i UbisoftProject.obj
 0002:00005470       ??$_Allocate@$0BA@U_Default_allocate_traits@std@@$0A@@std@@YAPEAX_K@Z 0000000140016470 f i UbisoftProject.obj
 0002:00005510       ??$_Allocate_manually_vector_aligned@U_Default_allocate_traits@std@@@std@@YAPEAX_K@Z 0000000140016510 f i UbisoftProject.obj
 0002:00005690       ??$_Construct_in_place@U_Container_proxy@std@@PEAU_Container_base12@2@@std@@YAXAEAU_Container_proxy@0@$$QEAPEAU_Container_base12@0@@Z 0000000140016690 f i UbisoftProject.obj
 0002:00005740       ??$_Copy_memmove@PEAPEAVObstacle@@PEAPEAV1@@std@@YAPEAPEAVObstacle@@PEAPEAV1@00@Z 0000000140016740 f i UbisoftProject.obj
 0002:00005810       ??$_Deallocate@$0BA@$0A@@std@@YAXPEAX_K@Z 0000000140016810 f i UbisoftProject.obj
 0002:000058b0       ??$_Deallocate_plain@V?$allocator@U_Container_proxy@std@@@std@@@std@@YAXAEAV?$allocator@U_Container_proxy@std@@@0@QEAU_Container_proxy@0@@Z 00000001400168b0 f i UbisoftProject.obj
 0002:00005930       ??$_Delete_plain_internal@V?$allocator@U_Container_proxy@std@@@std@@@std@@YAXAEAV?$allocator@U_Container_proxy@std@@@0@QEAU_Container_proxy@0@@Z 0000000140016930 f i UbisoftProject.obj
 0002:000059a0       ??$_Destroy_range@V?$allocator@PEAVObstacle@@@std@@@std@@YAXPEAPEAVObstacle@@QEAPEAV1@AEAV?$allocator@PEAVObstacle@@@0@@Z 00000001400169a0 f i UbisoftProject.obj
 0002:00005a00       ??$_Destroy_range@V?$allocator@V?$vector@PEAVObstacle@@V?$allocator@PEAVObstacle@@@std@@@std@@@std@@@std@@YAXPEAV?$vector@PEAVObstacle@@V?$allocator@PEAVObstacle@@@std@@@0@QEAV10@AEAV?$allocator@V?$vector@PEAVObstacle@@V?$allocator@PEAVObstacle@@@std@@@std@@@0@@Z 0000000140016a00 f i UbisoftProject.obj
 0002:00005ac0       ??$_Emplace_back@V?$vector@PEAVObstacle@@V?$allocator@PEAVObstacle@@@std@@@std@@@?$_Uninitialized_backout_al@V?$allocator@V?$vector@PEAVObstacle@@V?$allocator@PEAVObstacle@@@std@@@std@@@std@@@std@@QEAAX$$QEAV?$vector@PEAVObstacle@@V?$allocator@PEAVObstacle@@@std@@@1@@Z 0000000140016ac0 f i UbisoftProject.obj
 0002:00005b90       ??$_Emplace_back_with_unused_capacity@AEBV?$vector@PEAVObstacle@@V?$allocator@PEAVObstacle@@@std@@@std@@@?$vector@V?$vector@PEAVObstacle@@V?$allocator@PEAVObstacle@@@std@@@std@@V?$allocator@V?$vector@PEAVObstacle@@V?$allocator@PEAVObstacle@@@std@@@std@@@2@@std@@AEAA@AEBV?$vector@PEAVObstacle@@V?$allocator@PEAVObstacle@@@std@@@1@@Z 0000000140016b90 f i UbisoftProject.obj
 0002:00005cb0       ??$_Emplace_back_with_unused_capacity@PEAVObstacle@@@?$vector@PEAVObstacle@@V?$allocator@PEAVObstacle@@@std@@@std@@AEAA@$$QEAPEAVObstacle@@@Z 0000000140016cb0 f i UbisoftProject.obj
 0002:00005dd0       ??$_Emplace_reallocate@AEBV?$vector@PEAVObstacle@@V?$allocator@PEAVObstacle@@@std@@@std@@@?$vector@V?$vector@PEAVObstacle@@V?$allocator@PEAVObstacle@@@std@@@std@@V?$allocator@V?$vector@PEAVObstacle@@V?$allocator@PEAVObstacle@@@std@@@std@@@2@@std@@QEAAPEAV?$vector@PEAVObstacle@@V?$allocator@PEAVObstacle@@@std@@@1@QEAV21@AEBV21@@Z 0000000140016dd0 f i UbisoftProject.obj
 0002:000060e0       ??$_Emplace_reallocate@PEAVObstacle@@@?$vector@PEAVObstacle@@V?$allocator@PEAVObstacle@@@std@@@std@@QEAAPEAPEAVObstacle@@QEAPEAV2@$$QEAPEAV2@@Z 00000001400170e0 f i UbisoftProject.obj
 0002:000063e0       ??$_Get_size_of_n@$07@std@@YA_K_K@Z 00000001400173e0 f i UbisoftProject.obj
 0002:00006480       ??$_Get_size_of_n@$0BA@@std@@YA_K_K@Z 0000000140017480 f i UbisoftProject.obj
 0002:00006510       ??$_Get_size_of_n@$0CA@@std@@YA_K_K@Z 0000000140017510 f i UbisoftProject.obj
 0002:000065a0       ??$_Get_unwrapped@PEAVObstacle@@@std@@YAPEAPEAVObstacle@@QEAPEAV1@@Z 00000001400175a0 f i UbisoftProject.obj
 0002:00006600       ??$_Get_unwrapped@V?$vector@PEAVObstacle@@V?$allocator@PEAVObstacle@@@std@@@std@@@std@@YAPEAV?$vector@PEAVObstacle@@V?$allocator@PEAVObstacle@@@std@@@0@QEAV10@@Z 0000000140017600 f i UbisoftProject.obj
 0002:00006660       ??$_Min_value@_K@std@@YAAEB_KAEB_K0@Z 0000000140017660 f i UbisoftProject.obj
 0002:00006720       ??$_Ucopy@PEAPEAVObstacle@@@?$vector@PEAVObstacle@@V?$allocator@PEAVObstacle@@@std@@@std@@AEAAPEAPEAVObstacle@@PEAPEAV2@00@Z 0000000140017720 f i UbisoftProject.obj
 0002:000067c0       ??$_Unfancy@PEAVObstacle@@@std@@YAPEAPEAVObstacle@@PEAPEAV1@@Z 00000001400177c0 f i UbisoftProject.obj
 0002:00006820       ??$_Unfancy@U_Container_proxy@std@@@std@@YAPEAU_Container_proxy@0@PEAU10@@Z 0000000140017820 f i UbisoftProject.obj
 0002:00006880       ??$_Unfancy@V?$vector@PEAVObstacle@@V?$allocator@PEAVObstacle@@@std@@@std@@@std@@YAPEAV?$vector@PEAVObstacle@@V?$allocator@PEAVObstacle@@@std@@@0@PEAV10@@Z 0000000140017880 f i UbisoftProject.obj
 0002:000068e0       ??$_Uninitialized_copy@PEAPEAVObstacle@@V?$allocator@PEAVObstacle@@@std@@@std@@YAPEAPEAVObstacle@@QEAPEAV1@0PEAPEAV1@AEAV?$allocator@PEAVObstacle@@@0@@Z 00000001400178e0 f i UbisoftProject.obj
 0002:000069d0       ??$_Uninitialized_move@PEAPEAVObstacle@@V?$allocator@PEAVObstacle@@@std@@@std@@YAPEAPEAVObstacle@@QEAPEAV1@0PEAPEAV1@AEAV?$allocator@PEAVObstacle@@@0@@Z 00000001400179d0 f i UbisoftProject.obj
 0002:00006ab0       ??$_Uninitialized_move@PEAV?$vector@PEAVObstacle@@V?$allocator@PEAVObstacle@@@std@@@std@@V?$allocator@V?$vector@PEAVObstacle@@V?$allocator@PEAVObstacle@@@std@@@std@@@2@@std@@YAPEAV?$vector@PEAVObstacle@@V?$allocator@PEAVObstacle@@@std@@@0@QEAV10@0PEAV10@AEAV?$allocator@V?$vector@PEAVObstacle@@V?$allocator@PEAVObstacle@@@std@@@std@@@0@@Z 0000000140017ab0 f i UbisoftProject.obj
 0002:00006c10       ??$addressof@U_Container_base12@std@@@std@@YAPEAU_Container_base12@0@AEAU10@@Z 0000000140017c10 f i UbisoftProject.obj
 0002:00006c70       ??$addressof@U_Container_proxy@std@@@std@@YAPEAU_Container_proxy@0@AEAU10@@Z 0000000140017c70 f i UbisoftProject.obj
 0002:00006cd0       ??$construct@PEAVObstacle@@PEAV1@@?$_Default_allocator_traits@V?$allocator@PEAVObstacle@@@std@@@std@@SAXAEAV?$allocator@PEAVObstacle@@@1@QEAPEAVObstacle@@$$QEAPEAV3@@Z 0000000140017cd0 f i UbisoftProject.obj
 0002:00006d70       ??$construct@V?$vector@PEAVObstacle@@V?$allocator@PEAVObstacle@@@std@@@std@@AEBV12@@?$_Default_allocator_traits@V?$allocator@V?$vector@PEAVObstacle@@V?$allocator@PEAVObstacle@@@std@@@std@@@std@@@std@@SAXAEAV?$allocator@V?$vector@PEAVObstacle@@V?$allocator@PEAVObstacle@@@std@@@std@@@1@QEAV?$vector@PEAVObstacle@@V?$allocator@PEAVObstacle@@@std@@@1@AEBV31@@Z 0000000140017d70 f i UbisoftProject.obj
 0002:00006e10       ??$construct@V?$vector@PEAVObstacle@@V?$allocator@PEAVObstacle@@@std@@@std@@V12@@?$_Default_allocator_traits@V?$allocator@V?$vector@PEAVObstacle@@V?$allocator@PEAVObstacle@@@std@@@std@@@std@@@std@@SAXAEAV?$allocator@V?$vector@PEAVObstacle@@V?$allocator@PEAVObstacle@@@std@@@std@@@1@QEAV?$vector@PEAVObstacle@@V?$allocator@PEAVObstacle@@@std@@@1@$$QEAV31@@Z 0000000140017e10 f i UbisoftProject.obj
 0002:00006eb0       ??$destroy@V?$vector@PEAVObstacle@@V?$allocator@PEAVObstacle@@@std@@@std@@@?$_Default_allocator_traits@V?$allocator@V?$vector@PEAVObstacle@@V?$allocator@PEAVObstacle@@@std@@@std@@@std@@@std@@SAXAEAV?$allocator@V?$vector@PEAVObstacle@@V?$allocator@PEAVObstacle@@@std@@@std@@@1@QEAV?$vector@PEAVObstacle@@V?$allocator@PEAVObstacle@@@std@@@1@@Z 0000000140017eb0 f i UbisoftProject.obj
 0002:00006f20       ??$emplace_back@AEBV?$vector@PEAVObstacle@@V?$allocator@PEAVObstacle@@@std@@@std@@@?$vector@V?$vector@PEAVObstacle@@V?$allocator@PEAVObstacle@@@std@@@std@@V?$allocator@V?$vector@PEAVObstacle@@V?$allocator@PEAVObstacle@@@std@@@std@@@2@@std@@QEAA@AEBV?$vector@PEAVObstacle@@V?$allocator@PEAVObstacle@@@std@@@1@@Z 0000000140017f20 f i UbisoftProject.obj
 0002:00007000       ??$emplace_back@PEAVObstacle@@@?$vector@PEAVObstacle@@V?$allocator@PEAVObstacle@@@std@@@std@@QEAA@$$QEAPEAVObstacle@@@Z 0000000140018000 f i UbisoftProject.obj
 0002:000070e0       ??$exchange@PEAU_Container_proxy@std@@$$T@std@@YAPEAU_Container_proxy@0@AEAPEAU10@$$QEA$$T@Z 00000001400180e0 f i UbisoftProject.obj
 0002:00007170       ??$forward@AEBV?$vector@PEAVObstacle@@V?$allocator@PEAVObstacle@@@std@@@std@@@std@@YAAEBV?$vector@PEAVObstacle@@V?$allocator@PEAVObstacle@@@std@@@0@AEBV10@@Z 0000000140018170 f i UbisoftProject.obj
 0002:000071d0       ??$forward@PEAU_Container_base12@std@@@std@@YA$$QEAPEAU_Container_base12@0@AEAPEAU10@@Z 00000001400181d0 f i UbisoftProject.obj
 0002:00007230       ??$forward@PEAVObstacle@@@std@@YA$$QEAPEAVObstacle@@AEAPEAV1@@Z 0000000140018230 f i UbisoftProject.obj
 0002:00007290       ??$forward@V?$allocator@PEAVObstacle@@@std@@@std@@YA$$QEAV?$allocator@PEAVObstacle@@@0@AEAV10@@Z 0000000140018290 f i UbisoftProject.obj
 0002:000072f0       ??$forward@V?$vector@PEAVObstacle@@V?$allocator@PEAVObstacle@@@std@@@std@@@std@@YA$$QEAV?$vector@PEAVObstacle@@V?$allocator@PEAVObstacle@@@std@@@0@AEAV10@@Z 00000001400182f0 f i UbisoftProject.obj
 0002:00007350       ??$move@AEAPEAVObstacle@@@std@@YA$$QEAPEAVObstacle@@AEAPEAV1@@Z 0000000140018350 f i UbisoftProject.obj
 0002:000073b0       ??$move@AEAV?$allocator@PEAVObstacle@@@std@@@std@@YA$$QEAV?$allocator@PEAVObstacle@@@0@AEAV10@@Z 00000001400183b0 f i UbisoftProject.obj
 0002:00007410       ??$move@AEAV?$vector@PEAVObstacle@@V?$allocator@PEAVObstacle@@@std@@@std@@@std@@YA$$QEAV?$vector@PEAVObstacle@@V?$allocator@PEAVObstacle@@@std@@@0@AEAV10@@Z 0000000140018410 f i UbisoftProject.obj
 0002:00007470       ??0?$_Container_proxy_ptr12@V?$allocator@U_Container_proxy@std@@@std@@@std@@QEAA@AEAV?$allocator@U_Container_proxy@std@@@1@AEAU_Container_base12@1@@Z 0000000140018470 f i UbisoftProject.obj
 0002:00007570       ??0?$_Uninitialized_backout_al@V?$allocator@V?$vector@PEAVObstacle@@V?$allocator@PEAVObstacle@@@std@@@std@@@std@@@std@@QEAA@PEAV?$vector@PEAVObstacle@@V?$allocator@PEAVObstacle@@@std@@@1@AEAV?$allocator@V?$vector@PEAVObstacle@@V?$allocator@PEAVObstacle@@@std@@@std@@@1@@Z 0000000140018570 f i UbisoftProject.obj
 0002:00007620       ??0?$_Vector_val@U?$_Simple_types@PEAVObstacle@@@std@@@std@@QEAA@XZ 0000000140018620 f i UbisoftProject.obj
 0002:000076c0       ??0?$_Vector_val@U?$_Simple_types@V?$vector@PEAVObstacle@@V?$allocator@PEAVObstacle@@@std@@@std@@@std@@@std@@QEAA@XZ 00000001400186c0 f i UbisoftProject.obj
 0002:00007760       ??0?$allocator@PEAVObstacle@@@std@@QEAA@XZ 0000000140018760 f i UbisoftProject.obj
 0002:000077c0       ??0?$allocator@V?$vector@PEAVObstacle@@V?$allocator@PEAVObstacle@@@std@@@std@@@std@@QEAA@XZ 00000001400187c0 f i UbisoftProject.obj
 0002:00007820       ??0?$vector@PEAVObstacle@@V?$allocator@PEAVObstacle@@@std@@@std@@QEAA@$$QEAV01@@Z 0000000140018820 f i UbisoftProject.obj
 0002:00007930       ??0?$vector@PEAVObstacle@@V?$allocator@PEAVObstacle@@@std@@@std@@QEAA@AEBV01@@Z 0000000140018930 f i UbisoftProject.obj
 0002:00007b60       ??0?$vector@PEAVObstacle@@V?$allocator@PEAVObstacle@@@std@@@std@@QEAA@XZ 0000000140018b60 f i UbisoftProject.obj
 0002:00007c10       ??0?$vector@V?$vector@PEAVObstacle@@V?$allocator@PEAVObstacle@@@std@@@std@@V?$allocator@V?$vector@PEAVObstacle@@V?$allocator@PEAVObstacle@@@std@@@std@@@2@@std@@QEAA@XZ 0000000140018c10 f i UbisoftProject.obj
 0002:00007cc0       ??0_Container_base12@std@@QEAA@XZ 0000000140018cc0 f i UbisoftProject.obj
 0002:00007d30       ??0_Container_proxy@std@@QEAA@PEAU_Container_base12@1@@Z 0000000140018d30 f i UbisoftProject.obj
 0002:00007dc0       ??0bad_alloc@std@@AEAA@QEBD@Z 0000000140018dc0 f i UbisoftProject.obj
 0002:00007e60       ??0bad_alloc@std@@QEAA@AEBV01@@Z 0000000140018e60 f i UbisoftProject.obj
 0002:00007ee0       ??0bad_array_new_length@std@@QEAA@AEBV01@@Z 0000000140018ee0 f i UbisoftProject.obj
 0002:00007f60       ??0bad_array_new_length@std@@QEAA@XZ 0000000140018f60 f i UbisoftProject.obj
 0002:00007ff0       ??0exception@std@@QEAA@AEBV01@@Z 0000000140018ff0 f i UbisoftProject.obj
 0002:000080b0       ??0exception@std@@QEAA@QEBDH@Z 00000001400190b0 f i UbisoftProject.obj
 0002:00008160       ??1?$_Container_proxy_ptr12@V?$allocator@U_Container_proxy@std@@@std@@@std@@QEAA@XZ 0000000140019160 f i UbisoftProject.obj
 0002:000081f0       ??1?$_Tidy_guard@V?$vector@PEAVObstacle@@V?$allocator@PEAVObstacle@@@std@@@std@@@std@@QEAA@XZ 00000001400191f0 f i UbisoftProject.obj
 0002:00008270       ??1?$_Uninitialized_backout_al@V?$allocator@V?$vector@PEAVObstacle@@V?$allocator@PEAVObstacle@@@std@@@std@@@std@@@std@@QEAA@XZ 0000000140019270 f i UbisoftProject.obj
 0002:000082f0       ??1?$vector@PEAVObstacle@@V?$allocator@PEAVObstacle@@@std@@@std@@QEAA@XZ 00000001400192f0 f i UbisoftProject.obj
 0002:00008400       ??1?$vector@V?$vector@PEAVObstacle@@V?$allocator@PEAVObstacle@@@std@@@std@@V?$allocator@V?$vector@PEAVObstacle@@V?$allocator@PEAVObstacle@@@std@@@std@@@2@@std@@QEAA@XZ 0000000140019400 f i UbisoftProject.obj
 0002:00008510       ??1bad_alloc@std@@UEAA@XZ  0000000140019510 f i UbisoftProject.obj
 0002:00008560       ??1bad_array_new_length@std@@UEAA@XZ 0000000140019560 f i UbisoftProject.obj
 0002:000085b0       ??1exception@std@@UEAA@XZ  00000001400195b0 f i UbisoftProject.obj
 0002:00008630       ??2@YAPEAX_KPEAX@Z         0000000140019630 f i UbisoftProject.obj
 0002:00008690       ??A?$vector@PEAVObstacle@@V?$allocator@PEAVObstacle@@@std@@@std@@QEAAAEAPEAVObstacle@@_K@Z 0000000140019690 f i UbisoftProject.obj
 0002:000087d0       ??A?$vector@V?$vector@PEAVObstacle@@V?$allocator@PEAVObstacle@@@std@@@std@@V?$allocator@V?$vector@PEAVObstacle@@V?$allocator@PEAVObstacle@@@std@@@std@@@2@@std@@QEAAAEAV?$vector@PEAVObstacle@@V?$allocator@PEAVObstacle@@@std@@@1@_K@Z 00000001400197d0 f i UbisoftProject.obj
 0002:00008910       ??_G?$vector@PEAVObstacle@@V?$allocator@PEAVObstacle@@@std@@@std@@QEAAPEAXI@Z 0000000140019910 f i UbisoftProject.obj
 0002:000089a0       ??_GCharacter@@QEAAPEAXI@Z 00000001400199a0 f i UbisoftProject.obj
 0002:00008a30       ??_Ebad_alloc@std@@UEAAPEAXI@Z 0000000140019a30 f i UbisoftProject.obj
 0002:00008a30       ??_Gbad_alloc@std@@UEAAPEAXI@Z 0000000140019a30 f i UbisoftProject.obj
 0002:00008ac0       ??_Ebad_array_new_length@std@@UEAAPEAXI@Z 0000000140019ac0 f i UbisoftProject.obj
 0002:00008ac0       ??_Gbad_array_new_length@std@@UEAAPEAXI@Z 0000000140019ac0 f i UbisoftProject.obj
 0002:00008b50       ??_Gexception@std@@UEAAPEAXI@Z 0000000140019b50 f i UbisoftProject.obj
 0002:00008b50       ??_Eexception@std@@UEAAPEAXI@Z 0000000140019b50 f i UbisoftProject.obj
 0002:00008be0       ?CheckButton@CController@@QEBA_NH_N@Z 0000000140019be0 f i UbisoftProject.obj
 0002:00008cd0       ?GetAABB@Character@@QEBAAEBUAABB@@XZ 0000000140019cd0 f i UbisoftProject.obj
 0002:00008d30       ?GetAABB@Door@@QEBAAEBUAABB@@XZ 0000000140019d30 f i UbisoftProject.obj
 0002:00008d90       ?GetAABB@Obstacle@@QEBAAEBUAABB@@XZ 0000000140019d90 f i UbisoftProject.obj
 0002:00008df0       ?Init@@YAXXZ               0000000140019df0 f   UbisoftProject.obj
 0002:00009330       ?Render@@YAXXZ             000000014001a330 f   UbisoftProject.obj
 0002:00009570       ?Shutdown@@YAXXZ           000000014001a570 f   UbisoftProject.obj
 0002:00009600       ?Update@@YAXM@Z            000000014001a600 f   UbisoftProject.obj
 0002:00009ee0       ?_Adjust_manually_vector_aligned@std@@YAXAEAPEAXAEA_K@Z 000000014001aee0 f i UbisoftProject.obj
 0002:0000a140       ?_Allocate@_Default_allocate_traits@std@@SAPEAX_K@Z 000000014001b140 f i UbisoftProject.obj
 0002:0000a1a0       ?_Buy_raw@?$vector@PEAVObstacle@@V?$allocator@PEAVObstacle@@@std@@@std@@AEAAX_K@Z 000000014001b1a0 f i UbisoftProject.obj
 0002:0000a2a0       ?_Calculate_growth@?$vector@PEAVObstacle@@V?$allocator@PEAVObstacle@@@std@@@std@@AEBA_K_K@Z 000000014001b2a0 f i UbisoftProject.obj
 0002:0000a3a0       ?_Calculate_growth@?$vector@V?$vector@PEAVObstacle@@V?$allocator@PEAVObstacle@@@std@@@std@@V?$allocator@V?$vector@PEAVObstacle@@V?$allocator@PEAVObstacle@@@std@@@std@@@2@@std@@AEBA_K_K@Z 000000014001b3a0 f i UbisoftProject.obj
 0002:0000a4a0       ?_Change_array@?$vector@PEAVObstacle@@V?$allocator@PEAVObstacle@@@std@@@std@@AEAAXQEAPEAVObstacle@@_K1@Z 000000014001b4a0 f i UbisoftProject.obj
 0002:0000a620       ?_Change_array@?$vector@V?$vector@PEAVObstacle@@V?$allocator@PEAVObstacle@@@std@@@std@@V?$allocator@V?$vector@PEAVObstacle@@V?$allocator@PEAVObstacle@@@std@@@std@@@2@@std@@AEAAXQEAV?$vector@PEAVObstacle@@V?$allocator@PEAVObstacle@@@std@@@2@_K1@Z 000000014001b620 f i UbisoftProject.obj
 0002:0000a7a0       ?_Destroy@?$vector@PEAVObstacle@@V?$allocator@PEAVObstacle@@@std@@@std@@AEAAXPEAPEAVObstacle@@0@Z 000000014001b7a0 f i UbisoftProject.obj
 0002:0000a830       ?_Destroy@?$vector@V?$vector@PEAVObstacle@@V?$allocator@PEAVObstacle@@@std@@@std@@V?$allocator@V?$vector@PEAVObstacle@@V?$allocator@PEAVObstacle@@@std@@@std@@@2@@std@@AEAAXPEAV?$vector@PEAVObstacle@@V?$allocator@PEAVObstacle@@@std@@@2@0@Z 000000014001b830 f i UbisoftProject.obj
 0002:0000a8c0       ?_Get_first@?$_Compressed_pair@V?$allocator@PEAVObstacle@@@std@@V?$_Vector_val@U?$_Simple_types@PEAVObstacle@@@std@@@2@$00@std@@QEAAAEAV?$allocator@PEAVObstacle@@@2@XZ 000000014001b8c0 f i UbisoftProject.obj
 0002:0000a920       ?_Get_first@?$_Compressed_pair@V?$allocator@PEAVObstacle@@@std@@V?$_Vector_val@U?$_Simple_types@PEAVObstacle@@@std@@@2@$00@std@@QEBAAEBV?$allocator@PEAVObstacle@@@2@XZ 000000014001b920 f i UbisoftProject.obj
 0002:0000a980       ?_Get_first@?$_Compressed_pair@V?$allocator@V?$vector@PEAVObstacle@@V?$allocator@PEAVObstacle@@@std@@@std@@@std@@V?$_Vector_val@U?$_Simple_types@V?$vector@PEAVObstacle@@V?$allocator@PEAVObstacle@@@std@@@std@@@std@@@2@$00@std@@QEAAAEAV?$allocator@V?$vector@PEAVObstacle@@V?$allocator@PEAVObstacle@@@std@@@std@@@2@XZ 000000014001b980 f i UbisoftProject.obj
 0002:0000a9e0       ?_Get_first@?$_Compressed_pair@V?$allocator@V?$vector@PEAVObstacle@@V?$allocator@PEAVObstacle@@@std@@@std@@@std@@V?$_Vector_val@U?$_Simple_types@V?$vector@PEAVObstacle@@V?$allocator@PEAVObstacle@@@std@@@std@@@std@@@2@$00@std@@QEBAAEBV?$allocator@V?$vector@PEAVObstacle@@V?$allocator@PEAVObstacle@@@std@@@std@@@2@XZ 000000014001b9e0 f i UbisoftProject.obj
 0002:0000aa40       ?_Getal@?$vector@PEAVObstacle@@V?$allocator@PEAVObstacle@@@std@@@std@@AEAAAEAV?$allocator@PEAVObstacle@@@2@XZ 000000014001ba40 f i UbisoftProject.obj
 0002:0000aab0       ?_Getal@?$vector@PEAVObstacle@@V?$allocator@PEAVObstacle@@@std@@@std@@AEBAAEBV?$allocator@PEAVObstacle@@@2@XZ 000000014001bab0 f i UbisoftProject.obj
 0002:0000ab20       ?_Getal@?$vector@V?$vector@PEAVObstacle@@V?$allocator@PEAVObstacle@@@std@@@std@@V?$allocator@V?$vector@PEAVObstacle@@V?$allocator@PEAVObstacle@@@std@@@std@@@2@@std@@AEAAAEAV?$allocator@V?$vector@PEAVObstacle@@V?$allocator@PEAVObstacle@@@std@@@std@@@2@XZ 000000014001bb20 f i UbisoftProject.obj
 0002:0000ab90       ?_Getal@?$vector@V?$vector@PEAVObstacle@@V?$allocator@PEAVObstacle@@@std@@@std@@V?$allocator@V?$vector@PEAVObstacle@@V?$allocator@PEAVObstacle@@@std@@@std@@@2@@std@@AEBAAEBV?$allocator@V?$vector@PEAVObstacle@@V?$allocator@PEAVObstacle@@@std@@@std@@@2@XZ 000000014001bb90 f i UbisoftProject.obj
 0002:0000ac00       ?_Move_construct@?$vector@PEAVObstacle@@V?$allocator@PEAVObstacle@@@std@@@std@@AEAAXAEAV12@U?$integral_constant@_N$00@2@@Z 000000014001bc00 f i UbisoftProject.obj
 0002:0000ac80       ?_Orphan_all@_Container_base12@std@@QEAAXXZ 000000014001bc80 f i UbisoftProject.obj
 0002:0000adb0       ?_Orphan_range@?$vector@PEAVObstacle@@V?$allocator@PEAVObstacle@@@std@@@std@@AEBAXPEAPEAVObstacle@@0@Z 000000014001bdb0 f i UbisoftProject.obj
 0002:0000af00       ?_Orphan_range@?$vector@V?$vector@PEAVObstacle@@V?$allocator@PEAVObstacle@@@std@@@std@@V?$allocator@V?$vector@PEAVObstacle@@V?$allocator@PEAVObstacle@@@std@@@std@@@2@@std@@AEBAXPEAV?$vector@PEAVObstacle@@V?$allocator@PEAVObstacle@@@std@@@2@0@Z 000000014001bf00 f i UbisoftProject.obj
 0002:0000b050       ?_Release@?$_Uninitialized_backout_al@V?$allocator@V?$vector@PEAVObstacle@@V?$allocator@PEAVObstacle@@@std@@@std@@@std@@@std@@QEAAPEAV?$vector@PEAVObstacle@@V?$allocator@PEAVObstacle@@@std@@@2@XZ 000000014001c050 f i UbisoftProject.obj
 0002:0000b0d0       ?_Release@_Basic_container_proxy_ptr12@std@@QEAAXXZ 000000014001c0d0 f i UbisoftProject.obj
 0002:0000b140       ?_Swap_proxy_and_iterators@_Container_base12@std@@QEAAXAEAU12@@Z 000000014001c140 f i UbisoftProject.obj
 0002:0000b290       ?_Take_contents@?$_Vector_val@U?$_Simple_types@PEAVObstacle@@@std@@@std@@QEAAXAEAV12@@Z 000000014001c290 f i UbisoftProject.obj
 0002:0000b390       ?_Throw_bad_array_new_length@std@@YAXXZ 000000014001c390 f i UbisoftProject.obj
 0002:0000b400       ?_Tidy@?$vector@PEAVObstacle@@V?$allocator@PEAVObstacle@@@std@@@std@@AEAAXXZ 000000014001c400 f i UbisoftProject.obj
 0002:0000b550       ?_Tidy@?$vector@V?$vector@PEAVObstacle@@V?$allocator@PEAVObstacle@@@std@@@std@@V?$allocator@V?$vector@PEAVObstacle@@V?$allocator@PEAVObstacle@@@std@@@std@@@2@@std@@AEAAXXZ 000000014001c550 f i UbisoftProject.obj
 0002:0000b6a0       ?_Umove@?$vector@PEAVObstacle@@V?$allocator@PEAVObstacle@@@std@@@std@@AEAAPEAPEAVObstacle@@PEAPEAV3@00@Z 000000014001c6a0 f i UbisoftProject.obj
 0002:0000b740       ?_Umove@?$vector@V?$vector@PEAVObstacle@@V?$allocator@PEAVObstacle@@@std@@@std@@V?$allocator@V?$vector@PEAVObstacle@@V?$allocator@PEAVObstacle@@@std@@@std@@@2@@std@@AEAAPEAV?$vector@PEAVObstacle@@V?$allocator@PEAVObstacle@@@std@@@2@PEAV32@00@Z 000000014001c740 f i UbisoftProject.obj
 0002:0000b7e0       ?_Umove_if_noexcept1@?$vector@PEAVObstacle@@V?$allocator@PEAVObstacle@@@std@@@std@@AEAAXPEAPEAVObstacle@@00U?$integral_constant@_N$00@2@@Z 000000014001c7e0 f i UbisoftProject.obj
 0002:0000b880       ?_Umove_if_noexcept1@?$vector@V?$vector@PEAVObstacle@@V?$allocator@PEAVObstacle@@@std@@@std@@V?$allocator@V?$vector@PEAVObstacle@@V?$allocator@PEAVObstacle@@@std@@@std@@@2@@std@@AEAAXPEAV?$vector@PEAVObstacle@@V?$allocator@PEAVObstacle@@@std@@@2@00U?$integral_constant@_N$00@2@@Z 000000014001c880 f i UbisoftProject.obj
 0002:0000b920       ?_Umove_if_noexcept@?$vector@PEAVObstacle@@V?$allocator@PEAVObstacle@@@std@@@std@@AEAAXPEAPEAVObstacle@@00@Z 000000014001c920 f i UbisoftProject.obj
 0002:0000b9e0       ?_Umove_if_noexcept@?$vector@V?$vector@PEAVObstacle@@V?$allocator@PEAVObstacle@@@std@@@std@@V?$allocator@V?$vector@PEAVObstacle@@V?$allocator@PEAVObstacle@@@std@@@std@@@2@@std@@AEAAXPEAV?$vector@PEAVObstacle@@V?$allocator@PEAVObstacle@@@std@@@2@00@Z 000000014001c9e0 f i UbisoftProject.obj
 0002:0000baa0       ?_Xlength@?$vector@PEAVObstacle@@V?$allocator@PEAVObstacle@@@std@@@std@@CAXXZ 000000014001caa0 f i UbisoftProject.obj
 0002:0000baf0       ?_Xlength@?$vector@V?$vector@PEAVObstacle@@V?$allocator@PEAVObstacle@@@std@@@std@@V?$allocator@V?$vector@PEAVObstacle@@V?$allocator@PEAVObstacle@@@std@@@std@@@2@@std@@CAXXZ 000000014001caf0 f i UbisoftProject.obj
 0002:0000bb40       ?__autoclassinit2@?$_Uninitialized_backout_al@V?$allocator@V?$vector@PEAVObstacle@@V?$allocator@PEAVObstacle@@@std@@@std@@@std@@@std@@QEAAX_K@Z 000000014001cb40 f i UbisoftProject.obj
 0002:0000bba0       ?__autoclassinit2@?$vector@PEAVObstacle@@V?$allocator@PEAVObstacle@@@std@@@std@@QEAAX_K@Z 000000014001cba0 f i UbisoftProject.obj
 0002:0000bc00       ?__autoclassinit2@?$vector@V?$vector@PEAVObstacle@@V?$allocator@PEAVObstacle@@@std@@@std@@V?$allocator@V?$vector@PEAVObstacle@@V?$allocator@PEAVObstacle@@@std@@@std@@@2@@std@@QEAAX_K@Z 000000014001cc00 f i UbisoftProject.obj
 0002:0000bc60       ?__autoclassinit2@Box@@QEAAX_K@Z 000000014001cc60 f i UbisoftProject.obj
 0002:0000bcc0       ?__autoclassinit2@Character@@QEAAX_K@Z 000000014001ccc0 f i UbisoftProject.obj
 0002:0000bd20       ?__autoclassinit2@Wall@@QEAAX_K@Z 000000014001cd20 f i UbisoftProject.obj
 0002:0000bd80       ?__empty_global_delete@@YAXPEAX@Z 000000014001cd80 f i UbisoftProject.obj
 0002:0000bdd0       ?__empty_global_delete@@YAXPEAX_K@Z 000000014001cdd0 f i UbisoftProject.obj
 0002:0000be30       ?allocate@?$allocator@PEAVObstacle@@@std@@QEAAPEAPEAVObstacle@@_K@Z 000000014001ce30 f i UbisoftProject.obj
 0002:0000bea0       ?allocate@?$allocator@U_Container_proxy@std@@@std@@QEAAPEAU_Container_proxy@2@_K@Z 000000014001cea0 f i UbisoftProject.obj
 0002:0000bf10       ?allocate@?$allocator@V?$vector@PEAVObstacle@@V?$allocator@PEAVObstacle@@@std@@@std@@@std@@QEAAPEAV?$vector@PEAVObstacle@@V?$allocator@PEAVObstacle@@@std@@@2@_K@Z 000000014001cf10 f i UbisoftProject.obj
 0002:0000bf80       ?capacity@?$vector@PEAVObstacle@@V?$allocator@PEAVObstacle@@@std@@@std@@QEBA_KXZ 000000014001cf80 f i UbisoftProject.obj
 0002:0000c000       ?capacity@?$vector@V?$vector@PEAVObstacle@@V?$allocator@PEAVObstacle@@@std@@@std@@V?$allocator@V?$vector@PEAVObstacle@@V?$allocator@PEAVObstacle@@@std@@@std@@@2@@std@@QEBA_KXZ 000000014001d000 f i UbisoftProject.obj
 0002:0000c080       ?deallocate@?$_Default_allocator_traits@V?$allocator@U_Container_proxy@std@@@std@@@std@@SAXAEAV?$allocator@U_Container_proxy@std@@@2@QEAU_Container_proxy@2@_K@Z 000000014001d080 f i UbisoftProject.obj
 0002:0000c100       ?deallocate@?$allocator@PEAVObstacle@@@std@@QEAAXQEAPEAVObstacle@@_K@Z 000000014001d100 f i UbisoftProject.obj
 0002:0000c180       ?deallocate@?$allocator@V?$vector@PEAVObstacle@@V?$allocator@PEAVObstacle@@@std@@@std@@@std@@QEAAXQEAV?$vector@PEAVObstacle@@V?$allocator@PEAVObstacle@@@std@@@2@_K@Z 000000014001d180 f i UbisoftProject.obj
 0002:0000c200       ?max@?$numeric_limits@_J@std@@SA_JXZ 000000014001d200 f i UbisoftProject.obj
 0002:0000c250       ?max_size@?$_Default_allocator_traits@V?$allocator@PEAVObstacle@@@std@@@std@@SA_KAEBV?$allocator@PEAVObstacle@@@2@@Z 000000014001d250 f i UbisoftProject.obj
 0002:0000c2b0       ?max_size@?$_Default_allocator_traits@V?$allocator@V?$vector@PEAVObstacle@@V?$allocator@PEAVObstacle@@@std@@@std@@@std@@@std@@SA_KAEBV?$allocator@V?$vector@PEAVObstacle@@V?$allocator@PEAVObstacle@@@std@@@std@@@2@@Z 000000014001d2b0 f i UbisoftProject.obj
 0002:0000c310       ?max_size@?$vector@PEAVObstacle@@V?$allocator@PEAVObstacle@@@std@@@std@@QEBA_KXZ 000000014001d310 f i UbisoftProject.obj
 0002:0000c3c0       ?max_size@?$vector@V?$vector@PEAVObstacle@@V?$allocator@PEAVObstacle@@@std@@@std@@V?$allocator@V?$vector@PEAVObstacle@@V?$allocator@PEAVObstacle@@@std@@@std@@@2@@std@@QEBA_KXZ 000000014001d3c0 f i UbisoftProject.obj
 0002:0000c470       ?push_back@?$vector@PEAVObstacle@@V?$allocator@PEAVObstacle@@@std@@@std@@QEAAX$$QEAPEAVObstacle@@@Z 000000014001d470 f i UbisoftProject.obj
 0002:0000c4f0       ?push_back@?$vector@V?$vector@PEAVObstacle@@V?$allocator@PEAVObstacle@@@std@@@std@@V?$allocator@V?$vector@PEAVObstacle@@V?$allocator@PEAVObstacle@@@std@@@std@@@2@@std@@QEAAXAEBV?$vector@PEAVObstacle@@V?$allocator@PEAVObstacle@@@std@@@2@@Z 000000014001d4f0 f i UbisoftProject.obj
 0002:0000c560       ?select_on_container_copy_construction@?$_Default_allocator_traits@V?$allocator@PEAVObstacle@@@std@@@std@@SA?AV?$allocator@PEAVObstacle@@@2@AEBV32@@Z 000000014001d560 f i UbisoftProject.obj
 0002:0000c5c0       ?what@exception@std@@UEBAPEBDXZ 000000014001d5c0 f i UbisoftProject.obj
 0002:0000c660       ??0Wall@@QEAA@MM@Z         000000014001d660 f   Wall.obj
 0002:0000c760       ??1Wall@@UEAA@XZ           000000014001d760 f   Wall.obj
 0002:0000c810       ??_EWall@@UEAAPEAXI@Z      000000014001d810 f i Wall.obj
 0002:0000c810       ??_GWall@@UEAAPEAXI@Z      000000014001d810 f i Wall.obj
 0002:0000c8a0       ?areColliding@Wall@@UEAAHAEBUAABB@@0@Z 000000014001d8a0 f   Wall.obj
 0002:0000c900       ?deplacementBox@Wall@@UEAAXH@Z 000000014001d900 f   Wall.obj
 0002:0000c960       ??0CProfiler@@QEAA@XZ      000000014001d960 f i Framework:main.obj
 0002:0000c9e0       ?CheckMemCallback@@YAXXZ   000000014001d9e0 f   Framework:main.obj
 0002:0000ca30       ?Display@@YAXXZ            000000014001da30 f   Framework:main.obj
 0002:0000cb40       ?GetCounter@@YANXZ         000000014001db40 f   Framework:main.obj
 0002:0000cc00       ?Idle@@YAXXZ               000000014001dc00 f   Framework:main.obj
 0002:0000ce70       ?InitGL@@YAXXZ             000000014001de70 f   Framework:main.obj
 0002:0000cef0       ?Print@CProfiler@@QEAAXMMPEBD@Z 000000014001def0 f i Framework:main.obj
 0002:0000d020       ?Start@CProfiler@@QEAAXXZ  000000014001e020 f i Framework:main.obj
 0002:0000d090       ?StartCounter@@YAXXZ       000000014001e090 f   Framework:main.obj
 0002:0000d170       ?Stop@CProfiler@@QEAANXZ   000000014001e170 f i Framework:main.obj
 0002:0000d200       __local_stdio_printf_options 000000014001e200 f i Framework:main.obj
 0002:0000d250       _vfprintf_l                000000014001e250 f i Framework:main.obj
 0002:0000d2f0       _vsnprintf_l               000000014001e2f0 f i Framework:main.obj
 0002:0000d3e0       _vsprintf_l                000000014001e3e0 f i Framework:main.obj
 0002:0000d570       printf                     000000014001e570 f i Framework:main.obj
 0002:0000d660       sprintf                    000000014001e660 f i Framework:main.obj
 0002:0000d750       wWinMain                   000000014001e750 f   Framework:main.obj
 0002:0000d910       ?CreateSprite@App@@YAPEAVCSimpleSprite@@PEBD@Z 000000014001e910 f   Framework:app.obj
 0002:0000d9d0       ?DrawLine@App@@YAXMMMMMMM@Z 000000014001e9d0 f   Framework:app.obj
 0002:0000db70       ?GetController@App@@YAAEBVCController@@H@Z 000000014001eb70 f   Framework:app.obj
 0002:0000dbe0       ?GetController@CSimpleControllers@@QEAAAEBVCController@@H@Z 000000014001ebe0 f i Framework:app.obj
 0002:0000dc70       ?GetMousePos@App@@YAXAEAM0@Z 000000014001ec70 f   Framework:app.obj
 0002:0000de60       ?IsKeyPressed@App@@YA_NH@Z 000000014001ee60 f   Framework:app.obj
 0002:0000def0       ?IsSoundPlaying@App@@YA_NPEBD@Z 000000014001eef0 f   Framework:app.obj
 0002:0000df60       ?Print@App@@YAXMMPEBDMMMPEAX@Z 000000014001ef60 f   Framework:app.obj
 0002:0000e0c0       ?StartSound@App@@YAXPEBD_N@Z 000000014001f0c0 f   Framework:app.obj
 0002:0000e170       ?StopSound@App@@YAXPEBD@Z  000000014001f170 f   Framework:app.obj
 0002:0000e1e0       ??$?0$$V@?$_Compressed_pair@V?$allocator@U?$_Tree_node@U?$pair@QEBDUsTextureDef@CSimpleSprite@@@std@@PEAX@std@@@std@@V?$_Tree_val@U?$_Tree_simple_types@U?$pair@QEBDUsTextureDef@CSimpleSprite@@@std@@@std@@@2@$00@std@@QEAA@U_Zero_then_variadic_args_t@1@@Z 000000014001f1e0 f i Framework:SimpleSprite.obj
 0002:0000e260       ??$?0AEBQEAU?$_Tree_node@U?$pair@QEBDUsTextureDef@CSimpleSprite@@@std@@PEAX@std@@_N$0A@@?$pair@PEAU?$_Tree_node@U?$pair@QEBDUsTextureDef@CSimpleSprite@@@std@@PEAX@std@@_N@std@@QEAA@AEBQEAU?$_Tree_node@U?$pair@QEBDUsTextureDef@CSimpleSprite@@@std@@PEAX@1@$$QEA_N@Z 000000014001f260 f i Framework:SimpleSprite.obj
 0002:0000e310       ??$?0AEBQEBD$$Z$$V@?$pair@QEBDUsTextureDef@CSimpleSprite@@@std@@QEAA@Upiecewise_construct_t@1@V?$tuple@AEBQEBD@1@V?$tuple@$$V@1@@Z 000000014001f310 f i Framework:SimpleSprite.obj
 0002:0000e3c0       ??$?0AEBQEBD$0A@@?$tuple@AEBQEBD@std@@QEAA@AEBQEBD@Z 000000014001f3c0 f i Framework:SimpleSprite.obj
 0002:0000e460       ??$?0AEBQEBD@?$_Tuple_val@AEBQEBD@std@@QEAA@AEBQEBD@Z 000000014001f460 f i Framework:SimpleSprite.obj
 0002:0000e4e0       ??$?0AEBU?$less@PEBD@std@@U_Zero_then_variadic_args_t@1@@?$_Compressed_pair@U?$less@PEBD@std@@V?$_Compressed_pair@V?$allocator@U?$_Tree_node@U?$pair@QEBDUsTextureDef@CSimpleSprite@@@std@@PEAX@std@@@std@@V?$_Tree_val@U?$_Tree_simple_types@U?$pair@QEBDUsTextureDef@CSimpleSprite@@@std@@@std@@@2@$00@2@$00@std@@QEAA@U_One_then_variadic_args_t@1@AEBU?$less@PEBD@1@$$QEAU_Zero_then_variadic_args_t@1@@Z 000000014001f4e0 f i Framework:SimpleSprite.obj
 0002:0000e580       ??$?0AEBUpiecewise_construct_t@std@@V?$tuple@AEBQEBD@1@V?$tuple@$$V@1@@?$_Tree_temp_node@V?$allocator@U?$_Tree_node@U?$pair@QEBDUsTextureDef@CSimpleSprite@@@std@@PEAX@std@@@std@@@std@@QEAA@AEAV?$allocator@U?$_Tree_node@U?$pair@QEBDUsTextureDef@CSimpleSprite@@@std@@PEAX@std@@@1@PEAU?$_Tree_node@U?$pair@QEBDUsTextureDef@CSimpleSprite@@@std@@PEAX@1@AEBUpiecewise_construct_t@1@$$QEAV?$tuple@AEBQEBD@1@$$QEAV?$tuple@$$V@1@@Z 000000014001f580 f i Framework:SimpleSprite.obj
 0002:0000e740       ??$?0PEAU?$_Tree_node@U?$pair@QEBDUsTextureDef@CSimpleSprite@@@std@@PEAX@std@@_N$0A@@?$pair@PEAU?$_Tree_node@U?$pair@QEBDUsTextureDef@CSimpleSprite@@@std@@PEAX@std@@_N@std@@QEAA@$$QEAPEAU?$_Tree_node@U?$pair@QEBDUsTextureDef@CSimpleSprite@@@std@@PEAX@1@$$QEA_N@Z 000000014001f740 f i Framework:SimpleSprite.obj
 0002:0000e7f0       ??$?0U?$_Tree_node@U?$pair@QEBDUsTextureDef@CSimpleSprite@@@std@@PEAX@std@@@?$allocator@U_Container_proxy@std@@@std@@QEAA@AEBV?$allocator@U?$_Tree_node@U?$pair@QEBDUsTextureDef@CSimpleSprite@@@std@@PEAX@std@@@1@@Z 000000014001f7f0 f i Framework:SimpleSprite.obj
 0002:0000e850       ??$?0U_Exact_args_t@std@@$0A@@?$tuple@$$V@std@@QEAA@U_Exact_args_t@1@@Z 000000014001f850 f i Framework:SimpleSprite.obj
 0002:0000e8b0       ??$?0U_Exact_args_t@std@@AEBQEBD$$V$0A@@?$tuple@AEBQEBD@std@@QEAA@U_Exact_args_t@1@AEBQEBD@Z 000000014001f8b0 f i Framework:SimpleSprite.obj
 0002:0000e970       ??$?0V?$tuple@AEBQEBD@std@@V?$tuple@$$V@1@$0A@$$Z$S@?$pair@QEBDUsTextureDef@CSimpleSprite@@@std@@QEAA@AEAV?$tuple@AEBQEBD@1@AEAV?$tuple@$$V@1@U?$integer_sequence@_K$0A@@1@U?$integer_sequence@_K$S@1@@Z 000000014001f970 f i Framework:SimpleSprite.obj
 0002:0000ea30       ??$_Buyheadnode@V?$allocator@U?$_Tree_node@U?$pair@QEBDUsTextureDef@CSimpleSprite@@@std@@PEAX@std@@@std@@@?$_Tree_node@U?$pair@QEBDUsTextureDef@CSimpleSprite@@@std@@PEAX@std@@SAPEAU01@AEAV?$allocator@U?$_Tree_node@U?$pair@QEBDUsTextureDef@CSimpleSprite@@@std@@PEAX@std@@@1@@Z 000000014001fa30 f i Framework:SimpleSprite.obj
 0002:0000eb40       ??$_Construct_in_place@PEAU?$_Tree_node@U?$pair@QEBDUsTextureDef@CSimpleSprite@@@std@@PEAX@std@@AEAPEAU12@@std@@YAXAEAPEAU?$_Tree_node@U?$pair@QEBDUsTextureDef@CSimpleSprite@@@std@@PEAX@0@0@Z 000000014001fb40 f i Framework:SimpleSprite.obj
 0002:0000ebf0       ??$_Construct_in_place@PEAU?$_Tree_node@U?$pair@QEBDUsTextureDef@CSimpleSprite@@@std@@PEAX@std@@AEBQEAU12@@std@@YAXAEAPEAU?$_Tree_node@U?$pair@QEBDUsTextureDef@CSimpleSprite@@@std@@PEAX@0@AEBQEAU10@@Z 000000014001fbf0 f i Framework:SimpleSprite.obj
 0002:0000eca0       ??$_Debug_lt_pred@AEBU?$less@PEBD@std@@AEBQEBDAEBQEBD$0A@@std@@YA_NAEBU?$less@PEBD@0@AEBQEBD1@Z 000000014001fca0 f i Framework:SimpleSprite.obj
 0002:0000ee00       ??$_Destroy_in_place@PEAU?$_Tree_node@U?$pair@QEBDUsTextureDef@CSimpleSprite@@@std@@PEAX@std@@@std@@YAXAEAPEAU?$_Tree_node@U?$pair@QEBDUsTextureDef@CSimpleSprite@@@std@@PEAX@0@@Z 000000014001fe00 f i Framework:SimpleSprite.obj
 0002:0000ee60       ??$_Erase_head@V?$allocator@U?$_Tree_node@U?$pair@QEBDUsTextureDef@CSimpleSprite@@@std@@PEAX@std@@@std@@@?$_Tree_val@U?$_Tree_simple_types@U?$pair@QEBDUsTextureDef@CSimpleSprite@@@std@@@std@@@std@@QEAAXAEAV?$allocator@U?$_Tree_node@U?$pair@QEBDUsTextureDef@CSimpleSprite@@@std@@PEAX@std@@@1@@Z 000000014001fe60 f i Framework:SimpleSprite.obj
 0002:0000ef20       ??$_Erase_tree@V?$allocator@U?$_Tree_node@U?$pair@QEBDUsTextureDef@CSimpleSprite@@@std@@PEAX@std@@@std@@@?$_Tree_val@U?$_Tree_simple_types@U?$pair@QEBDUsTextureDef@CSimpleSprite@@@std@@@std@@@std@@QEAAXAEAV?$allocator@U?$_Tree_node@U?$pair@QEBDUsTextureDef@CSimpleSprite@@@std@@PEAX@std@@@1@PEAU?$_Tree_node@U?$pair@QEBDUsTextureDef@CSimpleSprite@@@std@@PEAX@1@@Z 000000014001ff20 f i Framework:SimpleSprite.obj
 0002:0000eff0       ??$_Find@PEBD@?$_Tree@V?$_Tmap_traits@PEBDUsTextureDef@CSimpleSprite@@U?$less@PEBD@std@@V?$allocator@U?$pair@QEBDUsTextureDef@CSimpleSprite@@@std@@@4@$0A@@std@@@std@@AEBAPEAU?$_Tree_node@U?$pair@QEBDUsTextureDef@CSimpleSprite@@@std@@PEAX@1@AEBQEBD@Z 000000014001fff0 f i Framework:SimpleSprite.obj
 0002:0000f0f0       ??$_Find_lower_bound@PEBD@?$_Tree@V?$_Tmap_traits@PEBDUsTextureDef@CSimpleSprite@@U?$less@PEBD@std@@V?$allocator@U?$pair@QEBDUsTextureDef@CSimpleSprite@@@std@@@4@$0A@@std@@@std@@IEBA?AU?$_Tree_find_result@PEAU?$_Tree_node@U?$pair@QEBDUsTextureDef@CSimpleSprite@@@std@@PEAX@std@@@1@AEBQEBD@Z 00000001400200f0 f i Framework:SimpleSprite.obj
 0002:0000f2b0       ??$_Freenode0@V?$allocator@U?$_Tree_node@U?$pair@QEBDUsTextureDef@CSimpleSprite@@@std@@PEAX@std@@@std@@@?$_Tree_node@U?$pair@QEBDUsTextureDef@CSimpleSprite@@@std@@PEAX@std@@SAXAEAV?$allocator@U?$_Tree_node@U?$pair@QEBDUsTextureDef@CSimpleSprite@@@std@@PEAX@std@@@1@PEAU01@@Z 00000001400202b0 f i Framework:SimpleSprite.obj
 0002:0000f370       ??$_Freenode@V?$allocator@U?$_Tree_node@U?$pair@QEBDUsTextureDef@CSimpleSprite@@@std@@PEAX@std@@@std@@@?$_Tree_node@U?$pair@QEBDUsTextureDef@CSimpleSprite@@@std@@PEAX@std@@SAXAEAV?$allocator@U?$_Tree_node@U?$pair@QEBDUsTextureDef@CSimpleSprite@@@std@@PEAX@std@@@1@PEAU01@@Z 0000000140020370 f i Framework:SimpleSprite.obj
 0002:0000f410       ??$_Get_size_of_n@$0DI@@std@@YA_K_K@Z 0000000140020410 f i Framework:SimpleSprite.obj
 0002:0000f4a0       ??$_Kfn@QEBDUsTextureDef@CSimpleSprite@@@?$_Tmap_traits@PEBDUsTextureDef@CSimpleSprite@@U?$less@PEBD@std@@V?$allocator@U?$pair@QEBDUsTextureDef@CSimpleSprite@@@std@@@4@$0A@@std@@SAAEBQEBDAEBU?$pair@QEBDUsTextureDef@CSimpleSprite@@@1@@Z 00000001400204a0 f i Framework:SimpleSprite.obj
 0002:0000f500       ??$_Lower_bound_duplicate@PEBD@?$_Tree@V?$_Tmap_traits@PEBDUsTextureDef@CSimpleSprite@@U?$less@PEBD@std@@V?$allocator@U?$pair@QEBDUsTextureDef@CSimpleSprite@@@std@@@4@$0A@@std@@@std@@IEBA_NQEAU?$_Tree_node@U?$pair@QEBDUsTextureDef@CSimpleSprite@@@std@@PEAX@1@AEBQEBD@Z 0000000140020500 f i Framework:SimpleSprite.obj
 0002:0000f5f0       ??$_Try_emplace@AEBQEBD$$V@?$map@PEBDUsTextureDef@CSimpleSprite@@U?$less@PEBD@std@@V?$allocator@U?$pair@QEBDUsTextureDef@CSimpleSprite@@@std@@@4@@std@@AEAA?AU?$pair@PEAU?$_Tree_node@U?$pair@QEBDUsTextureDef@CSimpleSprite@@@std@@PEAX@std@@_N@1@AEBQEBD@Z 00000001400205f0 f i Framework:SimpleSprite.obj
 0002:0000f860       ??$addressof@$$CBV?$_Tree_val@U?$_Tree_simple_types@U?$pair@QEBDUsTextureDef@CSimpleSprite@@@std@@@std@@@std@@@std@@YAPEBV?$_Tree_val@U?$_Tree_simple_types@U?$pair@QEBDUsTextureDef@CSimpleSprite@@@std@@@std@@@0@AEBV10@@Z 0000000140020860 f i Framework:SimpleSprite.obj
 0002:0000f8c0       ??$addressof@PEAU?$_Tree_node@U?$pair@QEBDUsTextureDef@CSimpleSprite@@@std@@PEAX@std@@@std@@YAPEAPEAU?$_Tree_node@U?$pair@QEBDUsTextureDef@CSimpleSprite@@@std@@PEAX@0@AEAPEAU10@@Z 00000001400208c0 f i Framework:SimpleSprite.obj
 0002:0000f920       ??$addressof@U?$pair@QEBDUsTextureDef@CSimpleSprite@@@std@@@std@@YAPEAU?$pair@QEBDUsTextureDef@CSimpleSprite@@@0@AEAU10@@Z 0000000140020920 f i Framework:SimpleSprite.obj
 0002:0000f980       ??$addressof@V?$_Tree_val@U?$_Tree_simple_types@U?$pair@QEBDUsTextureDef@CSimpleSprite@@@std@@@std@@@std@@@std@@YAPEAV?$_Tree_val@U?$_Tree_simple_types@U?$pair@QEBDUsTextureDef@CSimpleSprite@@@std@@@std@@@0@AEAV10@@Z 0000000140020980 f i Framework:SimpleSprite.obj
 0002:0000f9e0       ??$construct@U?$pair@QEBDUsTextureDef@CSimpleSprite@@@std@@AEBUpiecewise_construct_t@2@V?$tuple@AEBQEBD@2@V?$tuple@$$V@2@@?$_Default_allocator_traits@V?$allocator@U?$_Tree_node@U?$pair@QEBDUsTextureDef@CSimpleSprite@@@std@@PEAX@std@@@std@@@std@@SAXAEAV?$allocator@U?$_Tree_node@U?$pair@QEBDUsTextureDef@CSimpleSprite@@@std@@PEAX@std@@@1@QEAU?$pair@QEBDUsTextureDef@CSimpleSprite@@@1@AEBUpiecewise_construct_t@1@$$QEAV?$tuple@AEBQEBD@1@$$QEAV?$tuple@$$V@1@@Z 00000001400209e0 f i Framework:SimpleSprite.obj
 0002:0000fb20       ??$destroy@U?$pair@QEBDUsTextureDef@CSimpleSprite@@@std@@@?$_Default_allocator_traits@V?$allocator@U?$_Tree_node@U?$pair@QEBDUsTextureDef@CSimpleSprite@@@std@@PEAX@std@@@std@@@std@@SAXAEAV?$allocator@U?$_Tree_node@U?$pair@QEBDUsTextureDef@CSimpleSprite@@@std@@PEAX@std@@@1@QEAU?$pair@QEBDUsTextureDef@CSimpleSprite@@@1@@Z 0000000140020b20 f i Framework:SimpleSprite.obj
 0002:0000fb80       ??$exchange@PEAU?$_Tree_node@U?$pair@QEBDUsTextureDef@CSimpleSprite@@@std@@PEAX@std@@$$T@std@@YAPEAU?$_Tree_node@U?$pair@QEBDUsTextureDef@CSimpleSprite@@@std@@PEAX@0@AEAPEAU10@$$QEA$$T@Z 0000000140020b80 f i Framework:SimpleSprite.obj
 0002:0000fc10       ??$exchange@PEAU?$_Tree_node@U?$pair@QEBDUsTextureDef@CSimpleSprite@@@std@@PEAX@std@@AEAPEAU12@@std@@YAPEAU?$_Tree_node@U?$pair@QEBDUsTextureDef@CSimpleSprite@@@std@@PEAX@0@AEAPEAU10@0@Z 0000000140020c10 f i Framework:SimpleSprite.obj
 0002:0000fca0       ??$forward@AEAPEAU?$_Tree_node@U?$pair@QEBDUsTextureDef@CSimpleSprite@@@std@@PEAX@std@@@std@@YAAEAPEAU?$_Tree_node@U?$pair@QEBDUsTextureDef@CSimpleSprite@@@std@@PEAX@0@AEAPEAU10@@Z 0000000140020ca0 f i Framework:SimpleSprite.obj
 0002:0000fd00       ??$forward@AEBQEAU?$_Tree_node@U?$pair@QEBDUsTextureDef@CSimpleSprite@@@std@@PEAX@std@@@std@@YAAEBQEAU?$_Tree_node@U?$pair@QEBDUsTextureDef@CSimpleSprite@@@std@@PEAX@0@AEBQEAU10@@Z 0000000140020d00 f i Framework:SimpleSprite.obj
 0002:0000fd60       ??$forward@AEBQEBD@std@@YAAEBQEBDAEBQEBD@Z 0000000140020d60 f i Framework:SimpleSprite.obj
 0002:0000fdc0       ??$forward@AEBU?$less@PEBD@std@@@std@@YAAEBU?$less@PEBD@0@AEBU10@@Z 0000000140020dc0 f i Framework:SimpleSprite.obj
 0002:0000fe20       ??$forward@AEBUpiecewise_construct_t@std@@@std@@YAAEBUpiecewise_construct_t@0@AEBU10@@Z 0000000140020e20 f i Framework:SimpleSprite.obj
 0002:0000fe80       ??$forward@PEAU?$_Tree_node@U?$pair@QEBDUsTextureDef@CSimpleSprite@@@std@@PEAX@std@@@std@@YA$$QEAPEAU?$_Tree_node@U?$pair@QEBDUsTextureDef@CSimpleSprite@@@std@@PEAX@0@AEAPEAU10@@Z 0000000140020e80 f i Framework:SimpleSprite.obj
 0002:0000fee0       ??$forward@U_Zero_then_variadic_args_t@std@@@std@@YA$$QEAU_Zero_then_variadic_args_t@0@AEAU10@@Z 0000000140020ee0 f i Framework:SimpleSprite.obj
 0002:0000ff40       ??$forward@V?$tuple@$$V@std@@@std@@YA$$QEAV?$tuple@$$V@0@AEAV10@@Z 0000000140020f40 f i Framework:SimpleSprite.obj
 0002:0000ffa0       ??$forward@V?$tuple@AEBQEBD@std@@@std@@YA$$QEAV?$tuple@AEBQEBD@0@AEAV10@@Z 0000000140020fa0 f i Framework:SimpleSprite.obj
 0002:00010000       ??$forward@_N@std@@YA$$QEA_NAEA_N@Z 0000000140021000 f i Framework:SimpleSprite.obj
 0002:00010060       ??$forward_as_tuple@$$V@std@@YA?AV?$tuple@$$V@0@XZ 0000000140021060 f i Framework:SimpleSprite.obj
 0002:000100d0       ??$forward_as_tuple@AEBQEBD@std@@YA?AV?$tuple@AEBQEBD@0@AEBQEBD@Z 00000001400210d0 f i Framework:SimpleSprite.obj
 0002:00010160       ??$get@$0A@AEBQEBD@std@@YAAEBQEBD$$QEAV?$tuple@AEBQEBD@0@@Z 0000000140021160 f i Framework:SimpleSprite.obj
 0002:000101c0       ??$move@AEAV?$tuple@AEBQEBD@std@@@std@@YA$$QEAV?$tuple@AEBQEBD@0@AEAV10@@Z 00000001400211c0 f i Framework:SimpleSprite.obj
 0002:00010220       ??0?$_Alloc_construct_ptr@V?$allocator@U?$_Tree_node@U?$pair@QEBDUsTextureDef@CSimpleSprite@@@std@@PEAX@std@@@std@@@std@@QEAA@AEAV?$allocator@U?$_Tree_node@U?$pair@QEBDUsTextureDef@CSimpleSprite@@@std@@PEAX@std@@@1@@Z 0000000140021220 f i Framework:SimpleSprite.obj
 0002:000102b0       ??0?$_Tree@V?$_Tmap_traits@PEBDUsTextureDef@CSimpleSprite@@U?$less@PEBD@std@@V?$allocator@U?$pair@QEBDUsTextureDef@CSimpleSprite@@@std@@@4@$0A@@std@@@std@@QEAA@AEBU?$less@PEBD@1@@Z 00000001400212b0 f i Framework:SimpleSprite.obj
 0002:00010350       ??0?$_Tree_const_iterator@V?$_Tree_val@U?$_Tree_simple_types@U?$pair@QEBDUsTextureDef@CSimpleSprite@@@std@@@std@@@std@@@std@@QEAA@PEAU?$_Tree_node@U?$pair@QEBDUsTextureDef@CSimpleSprite@@@std@@PEAX@1@PEBV?$_Tree_val@U?$_Tree_simple_types@U?$pair@QEBDUsTextureDef@CSimpleSprite@@@std@@@std@@@1@@Z 0000000140021350 f i Framework:SimpleSprite.obj
 0002:000103e0       ??0?$_Tree_iterator@V?$_Tree_val@U?$_Tree_simple_types@U?$pair@QEBDUsTextureDef@CSimpleSprite@@@std@@@std@@@std@@@std@@QEAA@PEAU?$_Tree_node@U?$pair@QEBDUsTextureDef@CSimpleSprite@@@std@@PEAX@1@PEBV?$_Tree_val@U?$_Tree_simple_types@U?$pair@QEBDUsTextureDef@CSimpleSprite@@@std@@@std@@@1@@Z 00000001400213e0 f i Framework:SimpleSprite.obj
 0002:00010470       ??0?$_Tree_temp_node_alloc@V?$allocator@U?$_Tree_node@U?$pair@QEBDUsTextureDef@CSimpleSprite@@@std@@PEAX@std@@@std@@@std@@QEAA@AEAV?$allocator@U?$_Tree_node@U?$pair@QEBDUsTextureDef@CSimpleSprite@@@std@@PEAX@std@@@1@@Z 0000000140021470 f i Framework:SimpleSprite.obj
 0002:00010500       ??0?$_Tree_unchecked_const_iterator@V?$_Tree_val@U?$_Tree_simple_types@U?$pair@QEBDUsTextureDef@CSimpleSprite@@@std@@@std@@@std@@U_Iterator_base12@2@@std@@QEAA@PEAU?$_Tree_node@U?$pair@QEBDUsTextureDef@CSimpleSprite@@@std@@PEAX@1@PEBV?$_Tree_val@U?$_Tree_simple_types@U?$pair@QEBDUsTextureDef@CSimpleSprite@@@std@@@std@@@1@@Z 0000000140021500 f i Framework:SimpleSprite.obj
 0002:000105b0       ??0?$_Tree_val@U?$_Tree_simple_types@U?$pair@QEBDUsTextureDef@CSimpleSprite@@@std@@@std@@@std@@QEAA@XZ 00000001400215b0 f i Framework:SimpleSprite.obj
 0002:00010640       ??0?$allocator@U?$_Tree_node@U?$pair@QEBDUsTextureDef@CSimpleSprite@@@std@@PEAX@std@@@std@@QEAA@XZ 0000000140021640 f i Framework:SimpleSprite.obj
 0002:000106a0       ??0?$map@PEBDUsTextureDef@CSimpleSprite@@U?$less@PEBD@std@@V?$allocator@U?$pair@QEBDUsTextureDef@CSimpleSprite@@@std@@@4@@std@@QEAA@XZ 00000001400216a0 f i Framework:SimpleSprite.obj
 0002:00010710       ??0?$tuple@$$V@std@@QEAA@AEBV01@@Z 0000000140021710 f i Framework:SimpleSprite.obj
 0002:00010770       ??0?$tuple@$$V@std@@QEAA@XZ 0000000140021770 f i Framework:SimpleSprite.obj
 0002:000107d0       ??0?$tuple@AEBQEBD@std@@QEAA@$$QEAV01@@Z 00000001400217d0 f i Framework:SimpleSprite.obj
 0002:00010870       ??0CSimpleSprite@@QEAA@PEBD@Z 0000000140021870 f   Framework:SimpleSprite.obj
 0002:00010bd0       ??0_Iterator_base12@std@@QEAA@XZ 0000000140021bd0 f i Framework:SimpleSprite.obj
 0002:00010c50       ??1?$_Alloc_construct_ptr@V?$allocator@U?$_Tree_node@U?$pair@QEBDUsTextureDef@CSimpleSprite@@@std@@PEAX@std@@@std@@@std@@QEAA@XZ 0000000140021c50 f i Framework:SimpleSprite.obj
 0002:00010ce0       ??1?$_Tree@V?$_Tmap_traits@PEBDUsTextureDef@CSimpleSprite@@U?$less@PEBD@std@@V?$allocator@U?$pair@QEBDUsTextureDef@CSimpleSprite@@@std@@@4@$0A@@std@@@std@@QEAA@XZ 0000000140021ce0 f i Framework:SimpleSprite.obj
 0002:00010df0       ??1?$_Tree_const_iterator@V?$_Tree_val@U?$_Tree_simple_types@U?$pair@QEBDUsTextureDef@CSimpleSprite@@@std@@@std@@@std@@@std@@QEAA@XZ 0000000140021df0 f i Framework:SimpleSprite.obj
 0002:00010e40       ??1?$_Tree_iterator@V?$_Tree_val@U?$_Tree_simple_types@U?$pair@QEBDUsTextureDef@CSimpleSprite@@@std@@@std@@@std@@@std@@QEAA@XZ 0000000140021e40 f i Framework:SimpleSprite.obj
 0002:00010e90       ??1?$_Tree_temp_node@V?$allocator@U?$_Tree_node@U?$pair@QEBDUsTextureDef@CSimpleSprite@@@std@@PEAX@std@@@std@@@std@@QEAA@XZ 0000000140021e90 f i Framework:SimpleSprite.obj
 0002:00010f90       ??1?$_Tree_temp_node_alloc@V?$allocator@U?$_Tree_node@U?$pair@QEBDUsTextureDef@CSimpleSprite@@@std@@PEAX@std@@@std@@@std@@QEAA@XZ 0000000140021f90 f i Framework:SimpleSprite.obj
 0002:00010fe0       ??1?$_Tree_unchecked_const_iterator@V?$_Tree_val@U?$_Tree_simple_types@U?$pair@QEBDUsTextureDef@CSimpleSprite@@@std@@@std@@@std@@U_Iterator_base12@2@@std@@QEAA@XZ 0000000140021fe0 f i Framework:SimpleSprite.obj
 0002:00011030       ??1?$map@PEBDUsTextureDef@CSimpleSprite@@U?$less@PEBD@std@@V?$allocator@U?$pair@QEBDUsTextureDef@CSimpleSprite@@@std@@@4@@std@@QEAA@XZ 0000000140022030 f i Framework:SimpleSprite.obj
 0002:00011080       ??1_Iterator_base12@std@@QEAA@XZ 0000000140022080 f i Framework:SimpleSprite.obj
 0002:00011150       ??8?$_Tree_const_iterator@V?$_Tree_val@U?$_Tree_simple_types@U?$pair@QEBDUsTextureDef@CSimpleSprite@@@std@@@std@@@std@@@std@@QEBA_NAEBV01@@Z 0000000140022150 f i Framework:SimpleSprite.obj
 0002:000112c0       ??9?$_Tree_const_iterator@V?$_Tree_val@U?$_Tree_simple_types@U?$pair@QEBDUsTextureDef@CSimpleSprite@@@std@@@std@@@std@@@std@@QEBA_NAEBV01@@Z 00000001400222c0 f i Framework:SimpleSprite.obj
 0002:00011360       ??A?$map@PEBDUsTextureDef@CSimpleSprite@@U?$less@PEBD@std@@V?$allocator@U?$pair@QEBDUsTextureDef@CSimpleSprite@@@std@@@4@@std@@QEAAAEAUsTextureDef@CSimpleSprite@@AEBQEBD@Z 0000000140022360 f i Framework:SimpleSprite.obj
 0002:000113e0       ??R?$less@PEBD@std@@QEBA_NAEBQEBD0@Z 00000001400223e0 f i Framework:SimpleSprite.obj
 0002:00011480       ?CalculateUVs@CSimpleSprite@@AEAAXXZ 0000000140022480 f   Framework:SimpleSprite.obj
 0002:000116f0       ?Draw@CSimpleSprite@@QEAAXXZ 00000001400226f0 f   Framework:SimpleSprite.obj
 0002:00011a00       ?LoadTexture@CSimpleSprite@@AEAA_NPEBD@Z 0000000140022a00 f   Framework:SimpleSprite.obj
 0002:00011d90       ?_Adopt@_Iterator_base12@std@@QEAAXPEBU_Container_base12@2@@Z 0000000140022d90 f i Framework:SimpleSprite.obj
 0002:00011f00       ?_Alloc_sentinel_and_proxy@?$_Tree@V?$_Tmap_traits@PEBDUsTextureDef@CSimpleSprite@@U?$less@PEBD@std@@V?$allocator@U?$pair@QEBDUsTextureDef@CSimpleSprite@@@std@@@4@$0A@@std@@@std@@IEAAXXZ 0000000140022f00 f i Framework:SimpleSprite.obj
 0002:00012020       ?_Allocate@?$_Alloc_construct_ptr@V?$allocator@U?$_Tree_node@U?$pair@QEBDUsTextureDef@CSimpleSprite@@@std@@PEAX@std@@@std@@@std@@QEAAXXZ 0000000140023020 f i Framework:SimpleSprite.obj
 0002:000120b0       ?_Check_grow_by_1@?$_Tree@V?$_Tmap_traits@PEBDUsTextureDef@CSimpleSprite@@U?$less@PEBD@std@@V?$allocator@U?$pair@QEBDUsTextureDef@CSimpleSprite@@@std@@@4@$0A@@std@@@std@@IEAAXXZ 00000001400230b0 f i Framework:SimpleSprite.obj
 0002:00012140       ?_Get_first@?$_Compressed_pair@U?$less@PEBD@std@@V?$_Compressed_pair@V?$allocator@U?$_Tree_node@U?$pair@QEBDUsTextureDef@CSimpleSprite@@@std@@PEAX@std@@@std@@V?$_Tree_val@U?$_Tree_simple_types@U?$pair@QEBDUsTextureDef@CSimpleSprite@@@std@@@std@@@2@$00@2@$00@std@@QEBAAEBU?$less@PEBD@2@XZ 0000000140023140 f i Framework:SimpleSprite.obj
 0002:000121a0       ?_Get_first@?$_Compressed_pair@V?$allocator@U?$_Tree_node@U?$pair@QEBDUsTextureDef@CSimpleSprite@@@std@@PEAX@std@@@std@@V?$_Tree_val@U?$_Tree_simple_types@U?$pair@QEBDUsTextureDef@CSimpleSprite@@@std@@@std@@@2@$00@std@@QEAAAEAV?$allocator@U?$_Tree_node@U?$pair@QEBDUsTextureDef@CSimpleSprite@@@std@@PEAX@std@@@2@XZ 00000001400231a0 f i Framework:SimpleSprite.obj
 0002:00012200       ?_Get_first@?$_Compressed_pair@V?$allocator@U?$_Tree_node@U?$pair@QEBDUsTextureDef@CSimpleSprite@@@std@@PEAX@std@@@std@@V?$_Tree_val@U?$_Tree_simple_types@U?$pair@QEBDUsTextureDef@CSimpleSprite@@@std@@@std@@@2@$00@std@@QEBAAEBV?$allocator@U?$_Tree_node@U?$pair@QEBDUsTextureDef@CSimpleSprite@@@std@@PEAX@std@@@2@XZ 0000000140023200 f i Framework:SimpleSprite.obj
 0002:00012260       ?_Get_scary@?$_Tree@V?$_Tmap_traits@PEBDUsTextureDef@CSimpleSprite@@U?$less@PEBD@std@@V?$allocator@U?$pair@QEBDUsTextureDef@CSimpleSprite@@@std@@@4@$0A@@std@@@std@@IEAAPEAV?$_Tree_val@U?$_Tree_simple_types@U?$pair@QEBDUsTextureDef@CSimpleSprite@@@std@@@std@@@2@XZ 0000000140023260 f i Framework:SimpleSprite.obj
 0002:000122d0       ?_Get_scary@?$_Tree@V?$_Tmap_traits@PEBDUsTextureDef@CSimpleSprite@@U?$less@PEBD@std@@V?$allocator@U?$pair@QEBDUsTextureDef@CSimpleSprite@@@std@@@4@$0A@@std@@@std@@IEBAPEBV?$_Tree_val@U?$_Tree_simple_types@U?$pair@QEBDUsTextureDef@CSimpleSprite@@@std@@@std@@@2@XZ 00000001400232d0 f i Framework:SimpleSprite.obj
 0002:00012340       ?_Getal@?$_Tree@V?$_Tmap_traits@PEBDUsTextureDef@CSimpleSprite@@U?$less@PEBD@std@@V?$allocator@U?$pair@QEBDUsTextureDef@CSimpleSprite@@@std@@@4@$0A@@std@@@std@@IEAAAEAV?$allocator@U?$_Tree_node@U?$pair@QEBDUsTextureDef@CSimpleSprite@@@std@@PEAX@std@@@2@XZ 0000000140023340 f i Framework:SimpleSprite.obj
 0002:000123b0       ?_Getal@?$_Tree@V?$_Tmap_traits@PEBDUsTextureDef@CSimpleSprite@@U?$less@PEBD@std@@V?$allocator@U?$pair@QEBDUsTextureDef@CSimpleSprite@@@std@@@4@$0A@@std@@@std@@IEBAAEBV?$allocator@U?$_Tree_node@U?$pair@QEBDUsTextureDef@CSimpleSprite@@@std@@PEAX@std@@@2@XZ 00000001400233b0 f i Framework:SimpleSprite.obj
 0002:00012420       ?_Getcomp@?$_Tree@V?$_Tmap_traits@PEBDUsTextureDef@CSimpleSprite@@U?$less@PEBD@std@@V?$allocator@U?$pair@QEBDUsTextureDef@CSimpleSprite@@@std@@@4@$0A@@std@@@std@@IEBAAEBU?$less@PEBD@2@XZ 0000000140023420 f i Framework:SimpleSprite.obj
 0002:00012490       ?_Getcont@_Iterator_base12@std@@QEBAPEBU_Container_base12@2@XZ 0000000140023490 f i Framework:SimpleSprite.obj
 0002:00012530       ?_Insert_node@?$_Tree_val@U?$_Tree_simple_types@U?$pair@QEBDUsTextureDef@CSimpleSprite@@@std@@@std@@@std@@QEAAPEAU?$_Tree_node@U?$pair@QEBDUsTextureDef@CSimpleSprite@@@std@@PEAX@2@U?$_Tree_id@PEAU?$_Tree_node@U?$pair@QEBDUsTextureDef@CSimpleSprite@@@std@@PEAX@std@@@2@QEAU32@@Z 0000000140023530 f i Framework:SimpleSprite.obj
 0002:00012920       ?_Lrotate@?$_Tree_val@U?$_Tree_simple_types@U?$pair@QEBDUsTextureDef@CSimpleSprite@@@std@@@std@@@std@@QEAAXPEAU?$_Tree_node@U?$pair@QEBDUsTextureDef@CSimpleSprite@@@std@@PEAX@2@@Z 0000000140023920 f i Framework:SimpleSprite.obj
 0002:00012a90       ?_Orphan_me@_Iterator_base12@std@@QEAAXXZ 0000000140023a90 f i Framework:SimpleSprite.obj
 0002:00012c10       ?_Release@?$_Alloc_construct_ptr@V?$allocator@U?$_Tree_node@U?$pair@QEBDUsTextureDef@CSimpleSprite@@@std@@PEAX@std@@@std@@@std@@QEAAPEAU?$_Tree_node@U?$pair@QEBDUsTextureDef@CSimpleSprite@@@std@@PEAX@2@XZ 0000000140023c10 f i Framework:SimpleSprite.obj
 0002:00012c90       ?_Rrotate@?$_Tree_val@U?$_Tree_simple_types@U?$pair@QEBDUsTextureDef@CSimpleSprite@@@std@@@std@@@std@@QEAAXPEAU?$_Tree_node@U?$pair@QEBDUsTextureDef@CSimpleSprite@@@std@@PEAX@2@@Z 0000000140023c90 f i Framework:SimpleSprite.obj
 0002:00012e00       ?_Throw_tree_length_error@std@@YAXXZ 0000000140023e00 f i Framework:SimpleSprite.obj
 0002:00012e50       ?__autoclassinit2@?$map@PEBDUsTextureDef@CSimpleSprite@@U?$less@PEBD@std@@V?$allocator@U?$pair@QEBDUsTextureDef@CSimpleSprite@@@std@@@4@@std@@QEAAX_K@Z 0000000140023e50 f i Framework:SimpleSprite.obj
 0002:00012eb0       ?allocate@?$allocator@U?$_Tree_node@U?$pair@QEBDUsTextureDef@CSimpleSprite@@@std@@PEAX@std@@@std@@QEAAPEAU?$_Tree_node@U?$pair@QEBDUsTextureDef@CSimpleSprite@@@std@@PEAX@2@_K@Z 0000000140023eb0 f i Framework:SimpleSprite.obj
 0002:00012f20       ?deallocate@?$_Default_allocator_traits@V?$allocator@U?$_Tree_node@U?$pair@QEBDUsTextureDef@CSimpleSprite@@@std@@PEAX@std@@@std@@@std@@SAXAEAV?$allocator@U?$_Tree_node@U?$pair@QEBDUsTextureDef@CSimpleSprite@@@std@@PEAX@std@@@2@QEAU?$_Tree_node@U?$pair@QEBDUsTextureDef@CSimpleSprite@@@std@@PEAX@2@_K@Z 0000000140023f20 f i Framework:SimpleSprite.obj
 0002:00012fa0       ?deallocate@?$allocator@U?$_Tree_node@U?$pair@QEBDUsTextureDef@CSimpleSprite@@@std@@PEAX@std@@@std@@QEAAXQEAU?$_Tree_node@U?$pair@QEBDUsTextureDef@CSimpleSprite@@@std@@PEAX@2@_K@Z 0000000140023fa0 f i Framework:SimpleSprite.obj
 0002:00013020       ?end@?$_Tree@V?$_Tmap_traits@PEBDUsTextureDef@CSimpleSprite@@U?$less@PEBD@std@@V?$allocator@U?$pair@QEBDUsTextureDef@CSimpleSprite@@@std@@@4@$0A@@std@@@std@@QEAA?AV?$_Tree_iterator@V?$_Tree_val@U?$_Tree_simple_types@U?$pair@QEBDUsTextureDef@CSimpleSprite@@@std@@@std@@@std@@@2@XZ 0000000140024020 f i Framework:SimpleSprite.obj
 0002:000130c0       ?find@?$_Tree@V?$_Tmap_traits@PEBDUsTextureDef@CSimpleSprite@@U?$less@PEBD@std@@V?$allocator@U?$pair@QEBDUsTextureDef@CSimpleSprite@@@std@@@4@$0A@@std@@@std@@QEAA?AV?$_Tree_iterator@V?$_Tree_val@U?$_Tree_simple_types@U?$pair@QEBDUsTextureDef@CSimpleSprite@@@std@@@std@@@std@@@2@AEBQEBD@Z 00000001400240c0 f i Framework:SimpleSprite.obj
 0002:000131a0       ?max_size@?$_Default_allocator_traits@V?$allocator@U?$_Tree_node@U?$pair@QEBDUsTextureDef@CSimpleSprite@@@std@@PEAX@std@@@std@@@std@@SA_KAEBV?$allocator@U?$_Tree_node@U?$pair@QEBDUsTextureDef@CSimpleSprite@@@std@@PEAX@std@@@2@@Z 00000001400241a0 f i Framework:SimpleSprite.obj
 0002:00013200       ?max_size@?$_Tree@V?$_Tmap_traits@PEBDUsTextureDef@CSimpleSprite@@U?$less@PEBD@std@@V?$allocator@U?$pair@QEBDUsTextureDef@CSimpleSprite@@@std@@@4@$0A@@std@@@std@@QEBA_KXZ 0000000140024200 f i Framework:SimpleSprite.obj
 0002:000132b0       ??0CController@@QEAA@XZ    00000001400242b0 f i Framework:SimpleController.obj
 0002:00013360       ??0CSimpleControllers@@QEAA@XZ 0000000140024360 f i Framework:SimpleController.obj
 0002:000133d0       ??_H@YAXPEAX_K1P6APEAX0@Z@Z 00000001400243d0 f i Framework:SimpleController.obj
 0002:000134c0       ?GetInstance@CSimpleControllers@@SAAEAV1@XZ 00000001400244c0 f   Framework:SimpleController.obj
 0002:00013580       ?Update@CSimpleControllers@@QEAAXXZ 0000000140024580 f   Framework:SimpleController.obj
 0002:00013e60       ??$?0$$V@?$_Compressed_pair@V?$allocator@U?$_Tree_node@U?$pair@QEBDPEAUIDirectSoundBuffer8@@@std@@PEAX@std@@@std@@V?$_Tree_val@U?$_Tree_simple_types@U?$pair@QEBDPEAUIDirectSoundBuffer8@@@std@@@std@@@2@$00@std@@QEAA@U_Zero_then_variadic_args_t@1@@Z 0000000140024e60 f i Framework:SimpleSound.obj
 0002:00013ee0       ??$?0AEBQEAU?$_Tree_node@U?$pair@QEBDPEAUIDirectSoundBuffer8@@@std@@PEAX@std@@_N$0A@@?$pair@PEAU?$_Tree_node@U?$pair@QEBDPEAUIDirectSoundBuffer8@@@std@@PEAX@std@@_N@std@@QEAA@AEBQEAU?$_Tree_node@U?$pair@QEBDPEAUIDirectSoundBuffer8@@@std@@PEAX@1@$$QEA_N@Z 0000000140024ee0 f i Framework:SimpleSound.obj
 0002:00013f90       ??$?0AEBQEBD$$Z$$V@?$pair@QEBDPEAUIDirectSoundBuffer8@@@std@@QEAA@Upiecewise_construct_t@1@V?$tuple@AEBQEBD@1@V?$tuple@$$V@1@@Z 0000000140024f90 f i Framework:SimpleSound.obj
 0002:00014040       ??$?0AEBU?$less@PEBD@std@@U_Zero_then_variadic_args_t@1@@?$_Compressed_pair@U?$less@PEBD@std@@V?$_Compressed_pair@V?$allocator@U?$_Tree_node@U?$pair@QEBDPEAUIDirectSoundBuffer8@@@std@@PEAX@std@@@std@@V?$_Tree_val@U?$_Tree_simple_types@U?$pair@QEBDPEAUIDirectSoundBuffer8@@@std@@@std@@@2@$00@2@$00@std@@QEAA@U_One_then_variadic_args_t@1@AEBU?$less@PEBD@1@$$QEAU_Zero_then_variadic_args_t@1@@Z 0000000140025040 f i Framework:SimpleSound.obj
 0002:000140e0       ??$?0AEBUpiecewise_construct_t@std@@V?$tuple@AEBQEBD@1@V?$tuple@$$V@1@@?$_Tree_temp_node@V?$allocator@U?$_Tree_node@U?$pair@QEBDPEAUIDirectSoundBuffer8@@@std@@PEAX@std@@@std@@@std@@QEAA@AEAV?$allocator@U?$_Tree_node@U?$pair@QEBDPEAUIDirectSoundBuffer8@@@std@@PEAX@std@@@1@PEAU?$_Tree_node@U?$pair@QEBDPEAUIDirectSoundBuffer8@@@std@@PEAX@1@AEBUpiecewise_construct_t@1@$$QEAV?$tuple@AEBQEBD@1@$$QEAV?$tuple@$$V@1@@Z 00000001400250e0 f i Framework:SimpleSound.obj
 0002:000142a0       ??$?0PEAU?$_Tree_node@U?$pair@QEBDPEAUIDirectSoundBuffer8@@@std@@PEAX@std@@_N$0A@@?$pair@PEAU?$_Tree_node@U?$pair@QEBDPEAUIDirectSoundBuffer8@@@std@@PEAX@std@@_N@std@@QEAA@$$QEAPEAU?$_Tree_node@U?$pair@QEBDPEAUIDirectSoundBuffer8@@@std@@PEAX@1@$$QEA_N@Z 00000001400252a0 f i Framework:SimpleSound.obj
 0002:00014350       ??$?0U?$_Tree_node@U?$pair@QEBDPEAUIDirectSoundBuffer8@@@std@@PEAX@std@@@?$allocator@U_Container_proxy@std@@@std@@QEAA@AEBV?$allocator@U?$_Tree_node@U?$pair@QEBDPEAUIDirectSoundBuffer8@@@std@@PEAX@std@@@1@@Z 0000000140025350 f i Framework:SimpleSound.obj
 0002:000143b0       ??$?0V?$tuple@AEBQEBD@std@@V?$tuple@$$V@1@$0A@$$Z$S@?$pair@QEBDPEAUIDirectSoundBuffer8@@@std@@QEAA@AEAV?$tuple@AEBQEBD@1@AEAV?$tuple@$$V@1@U?$integer_sequence@_K$0A@@1@U?$integer_sequence@_K$S@1@@Z 00000001400253b0 f i Framework:SimpleSound.obj
 0002:00014460       ??$_Buyheadnode@V?$allocator@U?$_Tree_node@U?$pair@QEBDPEAUIDirectSoundBuffer8@@@std@@PEAX@std@@@std@@@?$_Tree_node@U?$pair@QEBDPEAUIDirectSoundBuffer8@@@std@@PEAX@std@@SAPEAU01@AEAV?$allocator@U?$_Tree_node@U?$pair@QEBDPEAUIDirectSoundBuffer8@@@std@@PEAX@std@@@1@@Z 0000000140025460 f i Framework:SimpleSound.obj
 0002:00014570       ??$_Construct_in_place@PEAU?$_Tree_node@U?$pair@QEBDPEAUIDirectSoundBuffer8@@@std@@PEAX@std@@AEAPEAU12@@std@@YAXAEAPEAU?$_Tree_node@U?$pair@QEBDPEAUIDirectSoundBuffer8@@@std@@PEAX@0@0@Z 0000000140025570 f i Framework:SimpleSound.obj
 0002:00014620       ??$_Construct_in_place@PEAU?$_Tree_node@U?$pair@QEBDPEAUIDirectSoundBuffer8@@@std@@PEAX@std@@AEBQEAU12@@std@@YAXAEAPEAU?$_Tree_node@U?$pair@QEBDPEAUIDirectSoundBuffer8@@@std@@PEAX@0@AEBQEAU10@@Z 0000000140025620 f i Framework:SimpleSound.obj
 0002:000146d0       ??$_Destroy_in_place@PEAU?$_Tree_node@U?$pair@QEBDPEAUIDirectSoundBuffer8@@@std@@PEAX@std@@@std@@YAXAEAPEAU?$_Tree_node@U?$pair@QEBDPEAUIDirectSoundBuffer8@@@std@@PEAX@0@@Z 00000001400256d0 f i Framework:SimpleSound.obj
 0002:00014730       ??$_Erase_head@V?$allocator@U?$_Tree_node@U?$pair@QEBDPEAUIDirectSoundBuffer8@@@std@@PEAX@std@@@std@@@?$_Tree_val@U?$_Tree_simple_types@U?$pair@QEBDPEAUIDirectSoundBuffer8@@@std@@@std@@@std@@QEAAXAEAV?$allocator@U?$_Tree_node@U?$pair@QEBDPEAUIDirectSoundBuffer8@@@std@@PEAX@std@@@1@@Z 0000000140025730 f i Framework:SimpleSound.obj
 0002:000147f0       ??$_Erase_tree@V?$allocator@U?$_Tree_node@U?$pair@QEBDPEAUIDirectSoundBuffer8@@@std@@PEAX@std@@@std@@@?$_Tree_val@U?$_Tree_simple_types@U?$pair@QEBDPEAUIDirectSoundBuffer8@@@std@@@std@@@std@@QEAAXAEAV?$allocator@U?$_Tree_node@U?$pair@QEBDPEAUIDirectSoundBuffer8@@@std@@PEAX@std@@@1@PEAU?$_Tree_node@U?$pair@QEBDPEAUIDirectSoundBuffer8@@@std@@PEAX@1@@Z 00000001400257f0 f i Framework:SimpleSound.obj
 0002:000148c0       ??$_Find_lower_bound@PEBD@?$_Tree@V?$_Tmap_traits@PEBDPEAUIDirectSoundBuffer8@@U?$less@PEBD@std@@V?$allocator@U?$pair@QEBDPEAUIDirectSoundBuffer8@@@std@@@3@$0A@@std@@@std@@IEBA?AU?$_Tree_find_result@PEAU?$_Tree_node@U?$pair@QEBDPEAUIDirectSoundBuffer8@@@std@@PEAX@std@@@1@AEBQEBD@Z 00000001400258c0 f i Framework:SimpleSound.obj
 0002:00014a80       ??$_Freenode0@V?$allocator@U?$_Tree_node@U?$pair@QEBDPEAUIDirectSoundBuffer8@@@std@@PEAX@std@@@std@@@?$_Tree_node@U?$pair@QEBDPEAUIDirectSoundBuffer8@@@std@@PEAX@std@@SAXAEAV?$allocator@U?$_Tree_node@U?$pair@QEBDPEAUIDirectSoundBuffer8@@@std@@PEAX@std@@@1@PEAU01@@Z 0000000140025a80 f i Framework:SimpleSound.obj
 0002:00014b40       ??$_Freenode@V?$allocator@U?$_Tree_node@U?$pair@QEBDPEAUIDirectSoundBuffer8@@@std@@PEAX@std@@@std@@@?$_Tree_node@U?$pair@QEBDPEAUIDirectSoundBuffer8@@@std@@PEAX@std@@SAXAEAV?$allocator@U?$_Tree_node@U?$pair@QEBDPEAUIDirectSoundBuffer8@@@std@@PEAX@std@@@1@PEAU01@@Z 0000000140025b40 f i Framework:SimpleSound.obj
 0002:00014be0       ??$_Get_size_of_n@$0DA@@std@@YA_K_K@Z 0000000140025be0 f i Framework:SimpleSound.obj
 0002:00014c70       ??$_Kfn@QEBDPEAUIDirectSoundBuffer8@@@?$_Tmap_traits@PEBDPEAUIDirectSoundBuffer8@@U?$less@PEBD@std@@V?$allocator@U?$pair@QEBDPEAUIDirectSoundBuffer8@@@std@@@3@$0A@@std@@SAAEBQEBDAEBU?$pair@QEBDPEAUIDirectSoundBuffer8@@@1@@Z 0000000140025c70 f i Framework:SimpleSound.obj
 0002:00014cd0       ??$_Lower_bound_duplicate@PEBD@?$_Tree@V?$_Tmap_traits@PEBDPEAUIDirectSoundBuffer8@@U?$less@PEBD@std@@V?$allocator@U?$pair@QEBDPEAUIDirectSoundBuffer8@@@std@@@3@$0A@@std@@@std@@IEBA_NQEAU?$_Tree_node@U?$pair@QEBDPEAUIDirectSoundBuffer8@@@std@@PEAX@1@AEBQEBD@Z 0000000140025cd0 f i Framework:SimpleSound.obj
 0002:00014dc0       ??$_Try_emplace@AEBQEBD$$V@?$map@PEBDPEAUIDirectSoundBuffer8@@U?$less@PEBD@std@@V?$allocator@U?$pair@QEBDPEAUIDirectSoundBuffer8@@@std@@@3@@std@@AEAA?AU?$pair@PEAU?$_Tree_node@U?$pair@QEBDPEAUIDirectSoundBuffer8@@@std@@PEAX@std@@_N@1@AEBQEBD@Z 0000000140025dc0 f i Framework:SimpleSound.obj
 0002:00015030       ??$addressof@$$CBV?$_Tree_val@U?$_Tree_simple_types@U?$pair@QEBDPEAUIDirectSoundBuffer8@@@std@@@std@@@std@@@std@@YAPEBV?$_Tree_val@U?$_Tree_simple_types@U?$pair@QEBDPEAUIDirectSoundBuffer8@@@std@@@std@@@0@AEBV10@@Z 0000000140026030 f i Framework:SimpleSound.obj
 0002:00015090       ??$addressof@PEAU?$_Tree_node@U?$pair@QEBDPEAUIDirectSoundBuffer8@@@std@@PEAX@std@@@std@@YAPEAPEAU?$_Tree_node@U?$pair@QEBDPEAUIDirectSoundBuffer8@@@std@@PEAX@0@AEAPEAU10@@Z 0000000140026090 f i Framework:SimpleSound.obj
 0002:000150f0       ??$addressof@U?$pair@QEBDPEAUIDirectSoundBuffer8@@@std@@@std@@YAPEAU?$pair@QEBDPEAUIDirectSoundBuffer8@@@0@AEAU10@@Z 00000001400260f0 f i Framework:SimpleSound.obj
 0002:00015150       ??$addressof@V?$_Tree_val@U?$_Tree_simple_types@U?$pair@QEBDPEAUIDirectSoundBuffer8@@@std@@@std@@@std@@@std@@YAPEAV?$_Tree_val@U?$_Tree_simple_types@U?$pair@QEBDPEAUIDirectSoundBuffer8@@@std@@@std@@@0@AEAV10@@Z 0000000140026150 f i Framework:SimpleSound.obj
 0002:000151b0       ??$construct@U?$pair@QEBDPEAUIDirectSoundBuffer8@@@std@@AEBUpiecewise_construct_t@2@V?$tuple@AEBQEBD@2@V?$tuple@$$V@2@@?$_Default_allocator_traits@V?$allocator@U?$_Tree_node@U?$pair@QEBDPEAUIDirectSoundBuffer8@@@std@@PEAX@std@@@std@@@std@@SAXAEAV?$allocator@U?$_Tree_node@U?$pair@QEBDPEAUIDirectSoundBuffer8@@@std@@PEAX@std@@@1@QEAU?$pair@QEBDPEAUIDirectSoundBuffer8@@@1@AEBUpiecewise_construct_t@1@$$QEAV?$tuple@AEBQEBD@1@$$QEAV?$tuple@$$V@1@@Z 00000001400261b0 f i Framework:SimpleSound.obj
 0002:000152f0       ??$destroy@U?$pair@QEBDPEAUIDirectSoundBuffer8@@@std@@@?$_Default_allocator_traits@V?$allocator@U?$_Tree_node@U?$pair@QEBDPEAUIDirectSoundBuffer8@@@std@@PEAX@std@@@std@@@std@@SAXAEAV?$allocator@U?$_Tree_node@U?$pair@QEBDPEAUIDirectSoundBuffer8@@@std@@PEAX@std@@@1@QEAU?$pair@QEBDPEAUIDirectSoundBuffer8@@@1@@Z 00000001400262f0 f i Framework:SimpleSound.obj
 0002:00015350       ??$exchange@PEAU?$_Tree_node@U?$pair@QEBDPEAUIDirectSoundBuffer8@@@std@@PEAX@std@@$$T@std@@YAPEAU?$_Tree_node@U?$pair@QEBDPEAUIDirectSoundBuffer8@@@std@@PEAX@0@AEAPEAU10@$$QEA$$T@Z 0000000140026350 f i Framework:SimpleSound.obj
 0002:000153e0       ??$exchange@PEAU?$_Tree_node@U?$pair@QEBDPEAUIDirectSoundBuffer8@@@std@@PEAX@std@@AEAPEAU12@@std@@YAPEAU?$_Tree_node@U?$pair@QEBDPEAUIDirectSoundBuffer8@@@std@@PEAX@0@AEAPEAU10@0@Z 00000001400263e0 f i Framework:SimpleSound.obj
 0002:00015470       ??$forward@AEAPEAU?$_Tree_node@U?$pair@QEBDPEAUIDirectSoundBuffer8@@@std@@PEAX@std@@@std@@YAAEAPEAU?$_Tree_node@U?$pair@QEBDPEAUIDirectSoundBuffer8@@@std@@PEAX@0@AEAPEAU10@@Z 0000000140026470 f i Framework:SimpleSound.obj
 0002:000154d0       ??$forward@AEBQEAU?$_Tree_node@U?$pair@QEBDPEAUIDirectSoundBuffer8@@@std@@PEAX@std@@@std@@YAAEBQEAU?$_Tree_node@U?$pair@QEBDPEAUIDirectSoundBuffer8@@@std@@PEAX@0@AEBQEAU10@@Z 00000001400264d0 f i Framework:SimpleSound.obj
 0002:00015530       ??$forward@PEAU?$_Tree_node@U?$pair@QEBDPEAUIDirectSoundBuffer8@@@std@@PEAX@std@@@std@@YA$$QEAPEAU?$_Tree_node@U?$pair@QEBDPEAUIDirectSoundBuffer8@@@std@@PEAX@0@AEAPEAU10@@Z 0000000140026530 f i Framework:SimpleSound.obj
 0002:00015590       ??0?$_Alloc_construct_ptr@V?$allocator@U?$_Tree_node@U?$pair@QEBDPEAUIDirectSoundBuffer8@@@std@@PEAX@std@@@std@@@std@@QEAA@AEAV?$allocator@U?$_Tree_node@U?$pair@QEBDPEAUIDirectSoundBuffer8@@@std@@PEAX@std@@@1@@Z 0000000140026590 f i Framework:SimpleSound.obj
 0002:00015620       ??0?$_Tree@V?$_Tmap_traits@PEBDPEAUIDirectSoundBuffer8@@U?$less@PEBD@std@@V?$allocator@U?$pair@QEBDPEAUIDirectSoundBuffer8@@@std@@@3@$0A@@std@@@std@@QEAA@AEBU?$less@PEBD@1@@Z 0000000140026620 f i Framework:SimpleSound.obj
 0002:000156c0       ??0?$_Tree_temp_node_alloc@V?$allocator@U?$_Tree_node@U?$pair@QEBDPEAUIDirectSoundBuffer8@@@std@@PEAX@std@@@std@@@std@@QEAA@AEAV?$allocator@U?$_Tree_node@U?$pair@QEBDPEAUIDirectSoundBuffer8@@@std@@PEAX@std@@@1@@Z 00000001400266c0 f i Framework:SimpleSound.obj
 0002:00015750       ??0?$_Tree_unchecked_const_iterator@V?$_Tree_val@U?$_Tree_simple_types@U?$pair@QEBDPEAUIDirectSoundBuffer8@@@std@@@std@@@std@@U_Iterator_base0@2@@std@@QEAA@PEAU?$_Tree_node@U?$pair@QEBDPEAUIDirectSoundBuffer8@@@std@@PEAX@1@PEBV?$_Tree_val@U?$_Tree_simple_types@U?$pair@QEBDPEAUIDirectSoundBuffer8@@@std@@@std@@@1@@Z 0000000140026750 f i Framework:SimpleSound.obj
 0002:000157f0       ??0?$_Tree_unchecked_iterator@V?$_Tree_val@U?$_Tree_simple_types@U?$pair@QEBDPEAUIDirectSoundBuffer8@@@std@@@std@@@std@@@std@@QEAA@PEAU?$_Tree_node@U?$pair@QEBDPEAUIDirectSoundBuffer8@@@std@@PEAX@1@PEBV?$_Tree_val@U?$_Tree_simple_types@U?$pair@QEBDPEAUIDirectSoundBuffer8@@@std@@@std@@@1@@Z 00000001400267f0 f i Framework:SimpleSound.obj
 0002:00015880       ??0?$_Tree_val@U?$_Tree_simple_types@U?$pair@QEBDPEAUIDirectSoundBuffer8@@@std@@@std@@@std@@QEAA@XZ 0000000140026880 f i Framework:SimpleSound.obj
 0002:00015910       ??0?$allocator@U?$_Tree_node@U?$pair@QEBDPEAUIDirectSoundBuffer8@@@std@@PEAX@std@@@std@@QEAA@XZ 0000000140026910 f i Framework:SimpleSound.obj
 0002:00015970       ??0?$map@PEBDPEAUIDirectSoundBuffer8@@U?$less@PEBD@std@@V?$allocator@U?$pair@QEBDPEAUIDirectSoundBuffer8@@@std@@@3@@std@@QEAA@XZ 0000000140026970 f i Framework:SimpleSound.obj
 0002:000159e0       ??0CSimpleSound@@QEAA@XZ   00000001400269e0 f   Framework:SimpleSound.obj
 0002:00015a80       ??1?$_Alloc_construct_ptr@V?$allocator@U?$_Tree_node@U?$pair@QEBDPEAUIDirectSoundBuffer8@@@std@@PEAX@std@@@std@@@std@@QEAA@XZ 0000000140026a80 f i Framework:SimpleSound.obj
 0002:00015b10       ??1?$_Tree@V?$_Tmap_traits@PEBDPEAUIDirectSoundBuffer8@@U?$less@PEBD@std@@V?$allocator@U?$pair@QEBDPEAUIDirectSoundBuffer8@@@std@@@3@$0A@@std@@@std@@QEAA@XZ 0000000140026b10 f i Framework:SimpleSound.obj
 0002:00015c20       ??1?$_Tree_temp_node@V?$allocator@U?$_Tree_node@U?$pair@QEBDPEAUIDirectSoundBuffer8@@@std@@PEAX@std@@@std@@@std@@QEAA@XZ 0000000140026c20 f i Framework:SimpleSound.obj
 0002:00015d20       ??1?$_Tree_temp_node_alloc@V?$allocator@U?$_Tree_node@U?$pair@QEBDPEAUIDirectSoundBuffer8@@@std@@PEAX@std@@@std@@@std@@QEAA@XZ 0000000140026d20 f i Framework:SimpleSound.obj
 0002:00015d70       ??1?$map@PEBDPEAUIDirectSoundBuffer8@@U?$less@PEBD@std@@V?$allocator@U?$pair@QEBDPEAUIDirectSoundBuffer8@@@std@@@3@@std@@QEAA@XZ 0000000140026d70 f i Framework:SimpleSound.obj
 0002:00015dc0       ??1CSimpleSound@@QEAA@XZ   0000000140026dc0 f   Framework:SimpleSound.obj
 0002:00015e40       ??9?$_Tree_unchecked_const_iterator@V?$_Tree_val@U?$_Tree_simple_types@U?$pair@QEBDPEAUIDirectSoundBuffer8@@@std@@@std@@@std@@U_Iterator_base0@2@@std@@QEBA_NU_Default_sentinel@1@@Z 0000000140026e40 f i Framework:SimpleSound.obj
 0002:00015ee0       ??A?$map@PEBDPEAUIDirectSoundBuffer8@@U?$less@PEBD@std@@V?$allocator@U?$pair@QEBDPEAUIDirectSoundBuffer8@@@std@@@3@@std@@QEAAAEAPEAUIDirectSoundBuffer8@@AEBQEBD@Z 0000000140026ee0 f i Framework:SimpleSound.obj
 0002:00015f60       ??D?$_Tree_unchecked_const_iterator@V?$_Tree_val@U?$_Tree_simple_types@U?$pair@QEBDPEAUIDirectSoundBuffer8@@@std@@@std@@@std@@U_Iterator_base0@2@@std@@QEBAAEBU?$pair@QEBDPEAUIDirectSoundBuffer8@@@1@XZ 0000000140026f60 f i Framework:SimpleSound.obj
 0002:00015fd0       ??D?$_Tree_unchecked_iterator@V?$_Tree_val@U?$_Tree_simple_types@U?$pair@QEBDPEAUIDirectSoundBuffer8@@@std@@@std@@@std@@@std@@QEBAAEAU?$pair@QEBDPEAUIDirectSoundBuffer8@@@1@XZ 0000000140026fd0 f i Framework:SimpleSound.obj
 0002:00016030       ??E?$_Tree_unchecked_const_iterator@V?$_Tree_val@U?$_Tree_simple_types@U?$pair@QEBDPEAUIDirectSoundBuffer8@@@std@@@std@@@std@@U_Iterator_base0@2@@std@@QEAAAEAV01@XZ 0000000140027030 f i Framework:SimpleSound.obj
 0002:00016130       ??E?$_Tree_unchecked_iterator@V?$_Tree_val@U?$_Tree_simple_types@U?$pair@QEBDPEAUIDirectSoundBuffer8@@@std@@@std@@@std@@@std@@QEAAAEAV01@XZ 0000000140027130 f i Framework:SimpleSound.obj
 0002:000161a0       ?GetInstance@CSimpleSound@@SAAEAV1@XZ 00000001400271a0 f   Framework:SimpleSound.obj
 0002:00016280       ?Initialize@CSimpleSound@@QEAA_NPEAUHWND__@@@Z 0000000140027280 f   Framework:SimpleSound.obj
 0002:000162f0       ?InitializeDirectSound@CSimpleSound@@AEAA_NPEAUHWND__@@@Z 00000001400272f0 f   Framework:SimpleSound.obj
 0002:00016560       ?IsPlaying@CSimpleSound@@QEAA_NPEBD@Z 0000000140027560 f   Framework:SimpleSound.obj
 0002:000166b0       ?LoadWaveFile@CSimpleSound@@AEAA_NPEBD@Z 00000001400276b0 f   Framework:SimpleSound.obj
 0002:00016d70       ?Shutdown@CSimpleSound@@QEAAXXZ 0000000140027d70 f   Framework:SimpleSound.obj
 0002:00016ed0       ?ShutdownDirectSound@CSimpleSound@@AEAAXXZ 0000000140027ed0 f   Framework:SimpleSound.obj
 0002:00016fb0       ?StartSound@CSimpleSound@@QEAA_NPEBDK@Z 0000000140027fb0 f   Framework:SimpleSound.obj
 0002:000171c0       ?StopSound@CSimpleSound@@QEAA_NPEBD@Z 00000001400281c0 f   Framework:SimpleSound.obj
 0002:000172f0       ?_Adopt@_Iterator_base0@std@@QEAAXPEBX@Z 00000001400282f0 f i Framework:SimpleSound.obj
 0002:00017350       ?_Alloc_sentinel_and_proxy@?$_Tree@V?$_Tmap_traits@PEBDPEAUIDirectSoundBuffer8@@U?$less@PEBD@std@@V?$allocator@U?$pair@QEBDPEAUIDirectSoundBuffer8@@@std@@@3@$0A@@std@@@std@@IEAAXXZ 0000000140028350 f i Framework:SimpleSound.obj
 0002:00017470       ?_Allocate@?$_Alloc_construct_ptr@V?$allocator@U?$_Tree_node@U?$pair@QEBDPEAUIDirectSoundBuffer8@@@std@@PEAX@std@@@std@@@std@@QEAAXXZ 0000000140028470 f i Framework:SimpleSound.obj
 0002:00017500       ?_Check_grow_by_1@?$_Tree@V?$_Tmap_traits@PEBDPEAUIDirectSoundBuffer8@@U?$less@PEBD@std@@V?$allocator@U?$pair@QEBDPEAUIDirectSoundBuffer8@@@std@@@3@$0A@@std@@@std@@IEAAXXZ 0000000140028500 f i Framework:SimpleSound.obj
 0002:00017590       ?_Get_first@?$_Compressed_pair@U?$less@PEBD@std@@V?$_Compressed_pair@V?$allocator@U?$_Tree_node@U?$pair@QEBDPEAUIDirectSoundBuffer8@@@std@@PEAX@std@@@std@@V?$_Tree_val@U?$_Tree_simple_types@U?$pair@QEBDPEAUIDirectSoundBuffer8@@@std@@@std@@@2@$00@2@$00@std@@QEBAAEBU?$less@PEBD@2@XZ 0000000140028590 f i Framework:SimpleSound.obj
 0002:000175f0       ?_Get_first@?$_Compressed_pair@V?$allocator@U?$_Tree_node@U?$pair@QEBDPEAUIDirectSoundBuffer8@@@std@@PEAX@std@@@std@@V?$_Tree_val@U?$_Tree_simple_types@U?$pair@QEBDPEAUIDirectSoundBuffer8@@@std@@@std@@@2@$00@std@@QEAAAEAV?$allocator@U?$_Tree_node@U?$pair@QEBDPEAUIDirectSoundBuffer8@@@std@@PEAX@std@@@2@XZ 00000001400285f0 f i Framework:SimpleSound.obj
 0002:00017650       ?_Get_first@?$_Compressed_pair@V?$allocator@U?$_Tree_node@U?$pair@QEBDPEAUIDirectSoundBuffer8@@@std@@PEAX@std@@@std@@V?$_Tree_val@U?$_Tree_simple_types@U?$pair@QEBDPEAUIDirectSoundBuffer8@@@std@@@std@@@2@$00@std@@QEBAAEBV?$allocator@U?$_Tree_node@U?$pair@QEBDPEAUIDirectSoundBuffer8@@@std@@PEAX@std@@@2@XZ 0000000140028650 f i Framework:SimpleSound.obj
 0002:000176b0       ?_Get_scary@?$_Tree@V?$_Tmap_traits@PEBDPEAUIDirectSoundBuffer8@@U?$less@PEBD@std@@V?$allocator@U?$pair@QEBDPEAUIDirectSoundBuffer8@@@std@@@3@$0A@@std@@@std@@IEAAPEAV?$_Tree_val@U?$_Tree_simple_types@U?$pair@QEBDPEAUIDirectSoundBuffer8@@@std@@@std@@@2@XZ 00000001400286b0 f i Framework:SimpleSound.obj
 0002:00017720       ?_Get_scary@?$_Tree@V?$_Tmap_traits@PEBDPEAUIDirectSoundBuffer8@@U?$less@PEBD@std@@V?$allocator@U?$pair@QEBDPEAUIDirectSoundBuffer8@@@std@@@3@$0A@@std@@@std@@IEBAPEBV?$_Tree_val@U?$_Tree_simple_types@U?$pair@QEBDPEAUIDirectSoundBuffer8@@@std@@@std@@@2@XZ 0000000140028720 f i Framework:SimpleSound.obj
 0002:00017790       ?_Getal@?$_Tree@V?$_Tmap_traits@PEBDPEAUIDirectSoundBuffer8@@U?$less@PEBD@std@@V?$allocator@U?$pair@QEBDPEAUIDirectSoundBuffer8@@@std@@@3@$0A@@std@@@std@@IEAAAEAV?$allocator@U?$_Tree_node@U?$pair@QEBDPEAUIDirectSoundBuffer8@@@std@@PEAX@std@@@2@XZ 0000000140028790 f i Framework:SimpleSound.obj
 0002:00017800       ?_Getal@?$_Tree@V?$_Tmap_traits@PEBDPEAUIDirectSoundBuffer8@@U?$less@PEBD@std@@V?$allocator@U?$pair@QEBDPEAUIDirectSoundBuffer8@@@std@@@3@$0A@@std@@@std@@IEBAAEBV?$allocator@U?$_Tree_node@U?$pair@QEBDPEAUIDirectSoundBuffer8@@@std@@PEAX@std@@@2@XZ 0000000140028800 f i Framework:SimpleSound.obj
 0002:00017870       ?_Getcomp@?$_Tree@V?$_Tmap_traits@PEBDPEAUIDirectSoundBuffer8@@U?$less@PEBD@std@@V?$allocator@U?$pair@QEBDPEAUIDirectSoundBuffer8@@@std@@@3@$0A@@std@@@std@@IEBAAEBU?$less@PEBD@2@XZ 0000000140028870 f i Framework:SimpleSound.obj
 0002:000178e0       ?_Insert_node@?$_Tree_val@U?$_Tree_simple_types@U?$pair@QEBDPEAUIDirectSoundBuffer8@@@std@@@std@@@std@@QEAAPEAU?$_Tree_node@U?$pair@QEBDPEAUIDirectSoundBuffer8@@@std@@PEAX@2@U?$_Tree_id@PEAU?$_Tree_node@U?$pair@QEBDPEAUIDirectSoundBuffer8@@@std@@PEAX@std@@@2@QEAU32@@Z 00000001400288e0 f i Framework:SimpleSound.obj
 0002:00017cd0       ?_Lrotate@?$_Tree_val@U?$_Tree_simple_types@U?$pair@QEBDPEAUIDirectSoundBuffer8@@@std@@@std@@@std@@QEAAXPEAU?$_Tree_node@U?$pair@QEBDPEAUIDirectSoundBuffer8@@@std@@PEAX@2@@Z 0000000140028cd0 f i Framework:SimpleSound.obj
 0002:00017e40       ?_Min@?$_Tree_val@U?$_Tree_simple_types@U?$pair@QEBDPEAUIDirectSoundBuffer8@@@std@@@std@@@std@@SAPEAU?$_Tree_node@U?$pair@QEBDPEAUIDirectSoundBuffer8@@@std@@PEAX@2@PEAU32@@Z 0000000140028e40 f i Framework:SimpleSound.obj
 0002:00017ed0       ?_Orphan_ptr@?$_Tree_val@U?$_Tree_simple_types@U?$pair@QEBDPEAUIDirectSoundBuffer8@@@std@@@std@@@std@@QEAAXQEAU?$_Tree_node@U?$pair@QEBDPEAUIDirectSoundBuffer8@@@std@@PEAX@2@@Z 0000000140028ed0 f i Framework:SimpleSound.obj
 0002:00018030       ?_Release@?$_Alloc_construct_ptr@V?$allocator@U?$_Tree_node@U?$pair@QEBDPEAUIDirectSoundBuffer8@@@std@@PEAX@std@@@std@@@std@@QEAAPEAU?$_Tree_node@U?$pair@QEBDPEAUIDirectSoundBuffer8@@@std@@PEAX@2@XZ 0000000140029030 f i Framework:SimpleSound.obj
 0002:000180b0       ?_Rrotate@?$_Tree_val@U?$_Tree_simple_types@U?$pair@QEBDPEAUIDirectSoundBuffer8@@@std@@@std@@@std@@QEAAXPEAU?$_Tree_node@U?$pair@QEBDPEAUIDirectSoundBuffer8@@@std@@PEAX@2@@Z 00000001400290b0 f i Framework:SimpleSound.obj
 0002:00018220       ?_Unchecked_begin@?$_Tree@V?$_Tmap_traits@PEBDPEAUIDirectSoundBuffer8@@U?$less@PEBD@std@@V?$allocator@U?$pair@QEBDPEAUIDirectSoundBuffer8@@@std@@@3@$0A@@std@@@std@@QEAA?AV?$_Tree_unchecked_iterator@V?$_Tree_val@U?$_Tree_simple_types@U?$pair@QEBDPEAUIDirectSoundBuffer8@@@std@@@std@@@std@@@2@XZ 0000000140029220 f i Framework:SimpleSound.obj
 0002:000182b0       ?_Unchecked_end@?$_Tree@V?$_Tmap_traits@PEBDPEAUIDirectSoundBuffer8@@U?$less@PEBD@std@@V?$allocator@U?$pair@QEBDPEAUIDirectSoundBuffer8@@@std@@@3@$0A@@std@@@std@@QEBA?AU_Default_sentinel@2@XZ 00000001400292b0 f i Framework:SimpleSound.obj
 0002:00018330       ?__autoclassinit2@?$_Tree_unchecked_iterator@V?$_Tree_val@U?$_Tree_simple_types@U?$pair@QEBDPEAUIDirectSoundBuffer8@@@std@@@std@@@std@@@std@@QEAAX_K@Z 0000000140029330 f i Framework:SimpleSound.obj
 0002:00018390       ?__autoclassinit2@CSimpleSound@@QEAAX_K@Z 0000000140029390 f i Framework:SimpleSound.obj
 0002:000183f0       ?allocate@?$allocator@U?$_Tree_node@U?$pair@QEBDPEAUIDirectSoundBuffer8@@@std@@PEAX@std@@@std@@QEAAPEAU?$_Tree_node@U?$pair@QEBDPEAUIDirectSoundBuffer8@@@std@@PEAX@2@_K@Z 00000001400293f0 f i Framework:SimpleSound.obj
 0002:00018460       ?clear@?$_Tree@V?$_Tmap_traits@PEBDPEAUIDirectSoundBuffer8@@U?$less@PEBD@std@@V?$allocator@U?$pair@QEBDPEAUIDirectSoundBuffer8@@@std@@@3@$0A@@std@@@std@@QEAAXXZ 0000000140029460 f i Framework:SimpleSound.obj
 0002:00018550       ?deallocate@?$_Default_allocator_traits@V?$allocator@U?$_Tree_node@U?$pair@QEBDPEAUIDirectSoundBuffer8@@@std@@PEAX@std@@@std@@@std@@SAXAEAV?$allocator@U?$_Tree_node@U?$pair@QEBDPEAUIDirectSoundBuffer8@@@std@@PEAX@std@@@2@QEAU?$_Tree_node@U?$pair@QEBDPEAUIDirectSoundBuffer8@@@std@@PEAX@2@_K@Z 0000000140029550 f i Framework:SimpleSound.obj
 0002:000185d0       ?deallocate@?$allocator@U?$_Tree_node@U?$pair@QEBDPEAUIDirectSoundBuffer8@@@std@@PEAX@std@@@std@@QEAAXQEAU?$_Tree_node@U?$pair@QEBDPEAUIDirectSoundBuffer8@@@std@@PEAX@2@_K@Z 00000001400295d0 f i Framework:SimpleSound.obj
 0002:00018650       ?max_size@?$_Default_allocator_traits@V?$allocator@U?$_Tree_node@U?$pair@QEBDPEAUIDirectSoundBuffer8@@@std@@PEAX@std@@@std@@@std@@SA_KAEBV?$allocator@U?$_Tree_node@U?$pair@QEBDPEAUIDirectSoundBuffer8@@@std@@PEAX@std@@@2@@Z 0000000140029650 f i Framework:SimpleSound.obj
 0002:000186b0       ?max_size@?$_Tree@V?$_Tmap_traits@PEBDPEAUIDirectSoundBuffer8@@U?$less@PEBD@std@@V?$allocator@U?$pair@QEBDPEAUIDirectSoundBuffer8@@@std@@@3@$0A@@std@@@std@@QEBA_KXZ 00000001400296b0 f i Framework:SimpleSound.obj
 0002:00018760       ?loadBMPRaw@@YAPEAEPEBDAEAI1_N@Z 0000000140029760 f   Framework:TextureLoader.obj
 0002:0001906c       DirectSoundCreate8         000000014002a06c f   dsound:DSOUND.dll
 0002:00019072       QueryPerformanceCounter    000000014002a072 f   kernel32:KERNEL32.dll
 0002:00019078       QueryPerformanceFrequency  000000014002a078 f   kernel32:KERNEL32.dll
 0002:0001907e       WindowFromDC               000000014002a07e f   user32:USER32.dll
 0002:00019084       GetClientRect              000000014002a084 f   user32:USER32.dll
 0002:0001908a       GetAsyncKeyState           000000014002a08a f   user32:USER32.dll
 0002:00019090       GetCursorPos               000000014002a090 f   user32:USER32.dll
 0002:00019096       ScreenToClient             000000014002a096 f   user32:USER32.dll
 0002:000190a0       _CRT_RTC_INIT              000000014002a0a0 f   MSVCRTD:init.obj
 0002:000190b0       _CRT_RTC_INITW             000000014002a0b0 f   MSVCRTD:init.obj
 0002:000190c0       _RTC_InitBase              000000014002a0c0 f   MSVCRTD:init.obj
 0002:00019110       _RTC_Shutdown              000000014002a110 f   MSVCRTD:init.obj
 0002:00019140       __CheckForDebuggerJustMyCode 000000014002a140 f   MSVCRTD:debugger_jmc.obj
 0002:00019190       ??3@YAXPEAX_K@Z            000000014002a190 f   MSVCRTD:delete_scalar_size.obj
 0002:000191c0       _RTC_AllocaHelper          000000014002a1c0 f   MSVCRTD:stack.obj
 0002:00019210       _RTC_CheckStackVars        000000014002a210 f   MSVCRTD:stack.obj
 0002:000192c0       _RTC_CheckStackVars2       000000014002a2c0 f   MSVCRTD:stack.obj
 0002:00019410       __GSHandlerCheck           000000014002a410 f   MSVCRTD:gshandler.obj
 0002:00019460       __GSHandlerCheckCommon     000000014002a460 f   MSVCRTD:gshandler.obj
 0002:000195b0       __security_check_cookie    000000014002a5b0 f   MSVCRTD:amdsecgs.obj
 0002:000195e0       ??1type_info@@UEAA@XZ      000000014002a5e0 f   MSVCRTD:std_type_info_static.obj
 0002:00019600       ??_Gtype_info@@UEAAPEAXI@Z 000000014002a600 f i MSVCRTD:std_type_info_static.obj
 0002:00019600       ??_Etype_info@@UEAAPEAXI@Z 000000014002a600 f i MSVCRTD:std_type_info_static.obj
 0002:00019650       ??2@YAPEAX_K@Z             000000014002a650 f   MSVCRTD:new_scalar.obj
 0002:000196c0       ?configure_argv@__scrt_narrow_argv_policy@@SAHXZ 000000014002a6c0 f i MSVCRTD:utility.obj
 0002:000197e0       ?initialize_environment@__scrt_narrow_environment_policy@@SAHXZ 000000014002a7e0 f i MSVCRTD:utility.obj
 0002:000198b0       NtCurrentTeb               000000014002a8b0 f i MSVCRTD:utility.obj
 0002:000198c0       __scrt_acquire_startup_lock 000000014002a8c0 f   MSVCRTD:utility.obj
 0002:00019940       __scrt_dllmain_after_initialize_c 000000014002a940 f   MSVCRTD:utility.obj
 0002:00019980       __scrt_dllmain_before_initialize_c 000000014002a980 f   MSVCRTD:utility.obj
 0002:000199b0       __scrt_dllmain_crt_thread_attach 000000014002a9b0 f   MSVCRTD:utility.obj
 0002:000199f0       __scrt_dllmain_crt_thread_detach 000000014002a9f0 f   MSVCRTD:utility.obj
 0002:00019a10       __scrt_dllmain_exception_filter 000000014002aa10 f   MSVCRTD:utility.obj
 0002:00019a90       __scrt_dllmain_uninitialize_c 000000014002aa90 f   MSVCRTD:utility.obj
 0002:00019ad0       __scrt_dllmain_uninitialize_critical 000000014002aad0 f   MSVCRTD:utility.obj
 0002:00019af0       __scrt_initialize_crt      000000014002aaf0 f   MSVCRTD:utility.obj
 0002:00019b50       __scrt_initialize_onexit_tables 000000014002ab50 f   MSVCRTD:utility.obj
 0002:00019ca0       __scrt_is_nonwritable_in_current_image 000000014002aca0 f   MSVCRTD:utility.obj
 0002:00019d50       __scrt_release_startup_lock 000000014002ad50 f   MSVCRTD:utility.obj
 0002:00019d90       __scrt_uninitialize_crt    000000014002ad90 f   MSVCRTD:utility.obj
 0002:00019de0       _onexit                    000000014002ade0 f   MSVCRTD:utility.obj
 0002:00019e80       at_quick_exit              000000014002ae80 f   MSVCRTD:utility.obj
 0002:00019ee0       atexit                     000000014002aee0 f   MSVCRTD:utility.obj
 0002:00019f20       __GSHandlerCheck_EH4       000000014002af20 f   MSVCRTD:gshandlereh4.obj
 0002:0001a340       ?configure_argv@__scrt_wide_argv_policy@@SAHXZ 000000014002b340 f i MSVCRTD:exe_wwinmain.obj
 0002:0001a360       ?initialize_environment@__scrt_wide_environment_policy@@SAHXZ 000000014002b360 f i MSVCRTD:exe_wwinmain.obj
 0002:0001a3d0       ?set_app_type@__scrt_winmain_policy@@SAXXZ 000000014002b3d0 f i MSVCRTD:exe_wwinmain.obj
 0002:0001a3f0       ?set_commode@__scrt_file_policy@@SAXXZ 000000014002b3f0 f i MSVCRTD:exe_wwinmain.obj
 0002:0001a420       ?set_fmode@__scrt_file_policy@@SAXXZ 000000014002b420 f i MSVCRTD:exe_wwinmain.obj
 0002:0001a440       wWinMainCRTStartup         000000014002b440 f   MSVCRTD:exe_wwinmain.obj
 0002:0001a610       _Init_thread_abort         000000014002b610 f   MSVCRTD:thread_safe_statics.obj
 0002:0001a650       _Init_thread_footer        000000014002b650 f   MSVCRTD:thread_safe_statics.obj
 0002:0001a6d0       _Init_thread_header        000000014002b6d0 f   MSVCRTD:thread_safe_statics.obj
 0002:0001a780       _Init_thread_lock          000000014002b780 f   MSVCRTD:thread_safe_statics.obj
 0002:0001a7a0       _Init_thread_notify        000000014002b7a0 f   MSVCRTD:thread_safe_statics.obj
 0002:0001a810       _Init_thread_unlock        000000014002b810 f   MSVCRTD:thread_safe_statics.obj
 0002:0001a830       _Init_thread_wait          000000014002b830 f   MSVCRTD:thread_safe_statics.obj
 0002:0001a910       ??_U@YAPEAX_K@Z            000000014002b910 f   MSVCRTD:new_array.obj
 0002:0001a930       ??_V@YAXPEAX@Z             000000014002b930 f   MSVCRTD:delete_array.obj
 0002:0001a950       ?_RTC_GetErrorFunc@@YAP6AHHPEBDH00ZZPEBX@Z 000000014002b950 f   MSVCRTD:userapi.obj
 0002:0001a960       ?_RTC_GetErrorFuncW@@YAP6AHHPEB_WH00ZZPEBX@Z 000000014002b960 f   MSVCRTD:userapi.obj
 0002:0001a970       _RTC_GetErrDesc            000000014002b970 f   MSVCRTD:userapi.obj
 0002:0001a990       _RTC_NumErrors             000000014002b990 f   MSVCRTD:userapi.obj
 0002:0001a9a0       _RTC_SetErrorFunc          000000014002b9a0 f   MSVCRTD:userapi.obj
 0002:0001a9c0       _RTC_SetErrorFuncW         000000014002b9c0 f   MSVCRTD:userapi.obj
 0002:0001a9e0       _RTC_SetErrorType          000000014002b9e0 f   MSVCRTD:userapi.obj
 0002:0001aa10       ??3@YAXPEAX@Z              000000014002ba10 f   MSVCRTD:delete_scalar.obj
 0002:0001aaf0       ?_RTC_AllocaFailure@@YAXPEAXPEAU_RTC_ALLOCA_NODE@@H@Z 000000014002baf0 f   MSVCRTD:error.obj
 0002:0001aca0       ?_RTC_Failure@@YAXPEAXH@Z  000000014002bca0 f   MSVCRTD:error.obj
 0002:0001ad10       ?_RTC_StackFailure@@YAXPEAXPEBD@Z 000000014002bd10 f   MSVCRTD:error.obj
 0002:0001b250       _RTC_UninitUse             000000014002c250 f   MSVCRTD:error.obj
 0002:0001b350       _vsprintf_s_l              000000014002c350 f i MSVCRTD:error.obj
 0002:0001b3d0       sprintf_s                  000000014002c3d0 f i MSVCRTD:error.obj
 0002:0001b400       __raise_securityfailure    000000014002c400 f   MSVCRTD:gs_report.obj
 0002:0001b450       __report_gsfailure         000000014002c450 f   MSVCRTD:gs_report.obj
 0002:0001b560       __report_rangecheckfailure 000000014002c560 f   MSVCRTD:gs_report.obj
 0002:0001b580       __report_securityfailure   000000014002c580 f   MSVCRTD:gs_report.obj
 0002:0001b650       __report_securityfailureEx 000000014002c650 f   MSVCRTD:gs_report.obj
 0002:0001b950       ??0bad_alloc@std@@QEAA@XZ  000000014002c950 f i MSVCRTD:throw_bad_alloc.obj
 0002:0001b9a0       ?__scrt_throw_std_bad_alloc@@YAXXZ 000000014002c9a0 f   MSVCRTD:throw_bad_alloc.obj
 0002:0001b9d0       ?__scrt_throw_std_bad_array_new_length@@YAXXZ 000000014002c9d0 f   MSVCRTD:throw_bad_alloc.obj
 0002:0001ba00       __isa_available_init       000000014002ca00 f   MSVCRTD:cpu_disp.obj
 0002:0001be60       _get_startup_argv_mode     000000014002ce60 f   MSVCRTD:argv_mode.obj
 0002:0001be70       __scrt_is_ucrt_dll_in_use  000000014002ce70 f   MSVCRTD:ucrt_detection.obj
 0002:0001bea0       __crt_debugger_hook        000000014002cea0 f   MSVCRTD:utility_desktop.obj
 0002:0001bec0       __scrt_fastfail            000000014002cec0 f   MSVCRTD:utility_desktop.obj
 0002:0001c0c0       __scrt_get_show_window_mode 000000014002d0c0 f   MSVCRTD:utility_desktop.obj
 0002:0001c130       __scrt_initialize_mta      000000014002d130 f   MSVCRTD:utility_desktop.obj
 0002:0001c150       __scrt_initialize_winrt    000000014002d150 f   MSVCRTD:utility_desktop.obj
 0002:0001c160       __scrt_is_managed_app      000000014002d160 f   MSVCRTD:utility_desktop.obj
 0002:0001c230       __scrt_set_unhandled_exception_filter 000000014002d230 f   MSVCRTD:utility_desktop.obj
 0002:0001c250       __scrt_stub_for_initialize_mta 000000014002d250 f   MSVCRTD:utility_desktop.obj
 0002:0001c250       __scrt_exe_initialize_mta  000000014002d250 f   MSVCRTD:utility_desktop.obj
 0002:0001c260       __scrt_unhandled_exception_filter 000000014002d260 f   MSVCRTD:utility_desktop.obj
 0002:0001c320       _guard_check_icall_nop     000000014002d320 f i MSVCRTD:guard_support.obj
 0002:0001c330       ReadNoFence64              000000014002d330 f i MSVCRTD:guard_support.obj
 0002:0001c360       ReadPointerNoFence         000000014002d360 f i MSVCRTD:guard_support.obj
 0002:0001c380       _guard_icall_checks_enforced 000000014002d380 f i MSVCRTD:guard_support.obj
 0002:0001c3d0       _guard_rf_checks_enforced  000000014002d3d0 f i MSVCRTD:guard_support.obj
 0002:0001c4d0       __security_init_cookie     000000014002d4d0 f   MSVCRTD:gs_support.obj
 0002:0001c570       _matherr                   000000014002d570 f   MSVCRTD:matherr.obj
 0002:0001c580       _get_startup_commit_mode   000000014002d580 f   MSVCRTD:commit_mode.obj
 0002:0001c590       _get_startup_file_mode     000000014002d590 f   MSVCRTD:file_mode.obj
 0002:0001c5a0       _get_startup_new_mode      000000014002d5a0 f   MSVCRTD:new_mode.obj
 0002:0001c5b0       _get_startup_thread_locale_mode 000000014002d5b0 f   MSVCRTD:thread_locale.obj
 0002:0001c5c0       ?__scrt_initialize_type_info@@YAXXZ 000000014002d5c0 f   MSVCRTD:tncleanup.obj
 0002:0001c5e0       ?__scrt_uninitialize_type_info@@YAXXZ 000000014002d5e0 f   MSVCRTD:tncleanup.obj
 0002:0001c600       _should_initialize_environment 000000014002d600 f   MSVCRTD:env_mode.obj
 0002:0001c610       _initialize_invalid_parameter_handler 000000014002d610 f   MSVCRTD:invalid_parameter_handler.obj
 0002:0001c620       _initialize_denormal_control 000000014002d620 f   MSVCRTD:denormal_control.obj
 0002:0001c630       __local_stdio_scanf_options 000000014002d630 f i MSVCRTD:default_local_stdio_options.obj
 0002:0001c640       __scrt_initialize_default_local_stdio_options 000000014002d640 f   MSVCRTD:default_local_stdio_options.obj
 0002:0001c6a0       __scrt_is_user_matherr_present 000000014002d6a0 f   MSVCRTD:matherr_detection.obj
 0002:0001c6d0       __scrt_get_dyn_tls_init_callback 000000014002d6d0 f   MSVCRTD:dyn_tls_init.obj
 0002:0001c6e0       __scrt_get_dyn_tls_dtor_callback 000000014002d6e0 f   MSVCRTD:dyn_tls_dtor.obj
 0002:0001c6f0       _RTC_Initialize            000000014002d6f0 f   MSVCRTD:initsect.obj
 0002:0001c750       _RTC_Terminate             000000014002d750 f   MSVCRTD:initsect.obj
 0002:0001ce00       ?_RTC_GetSrcLine@@YAHPEAEPEA_WKPEAH1K@Z 000000014002de00 f   MSVCRTD:pdblkup.obj
 0002:0001d2c0       glutInitWindowPosition     000000014002e2c0 f   freeglut:freeglut.dll
 0002:0001d2c6       glutInitWindowSize         000000014002e2c6 f   freeglut:freeglut.dll
 0002:0001d2cc       glutMainLoop               000000014002e2cc f   freeglut:freeglut.dll
 0002:0001d2d2       glutPostRedisplay          000000014002e2d2 f   freeglut:freeglut.dll
 0002:0001d2d8       glutIdleFunc               000000014002e2d8 f   freeglut:freeglut.dll
 0002:0001d2de       glutDisplayFunc            000000014002e2de f   freeglut:freeglut.dll
 0002:0001d2e4       __glutInitWithExit         000000014002e2e4 f   freeglut:freeglut.dll
 0002:0001d2ea       __glutCreateWindowWithExit 000000014002e2ea f   freeglut:freeglut.dll
 0002:0001d2f0       glutSetOption              000000014002e2f0 f   freeglut:freeglut.dll
 0002:0001d2f6       glutBitmapCharacter        000000014002e2f6 f   freeglut:freeglut.dll
 0002:0001d2fc       gluBuild2DMipmaps          000000014002e2fc f   glu32:GLU32.dll
 0002:0001d302       wglGetCurrentDC            000000014002e302 f   opengl32:OPENGL32.dll
 0002:0001d308       glClear                    000000014002e308 f   opengl32:OPENGL32.dll
 0002:0001d30e       glClearColor               000000014002e30e f   opengl32:OPENGL32.dll
 0002:0001d314       glFlush                    000000014002e314 f   opengl32:OPENGL32.dll
 0002:0001d31a       glBegin                    000000014002e31a f   opengl32:OPENGL32.dll
 0002:0001d320       glColor3f                  000000014002e320 f   opengl32:OPENGL32.dll
 0002:0001d326       glEnd                      000000014002e326 f   opengl32:OPENGL32.dll
 0002:0001d32c       glRasterPos2f              000000014002e32c f   opengl32:OPENGL32.dll
 0002:0001d332       glVertex2f                 000000014002e332 f   opengl32:OPENGL32.dll
 0002:0001d338       glBindTexture              000000014002e338 f   opengl32:OPENGL32.dll
 0002:0001d33e       glBlendFunc                000000014002e33e f   opengl32:OPENGL32.dll
 0002:0001d344       glColor4f                  000000014002e344 f   opengl32:OPENGL32.dll
 0002:0001d34a       glDisable                  000000014002e34a f   opengl32:OPENGL32.dll
 0002:0001d350       glEnable                   000000014002e350 f   opengl32:OPENGL32.dll
 0002:0001d356       glGenTextures              000000014002e356 f   opengl32:OPENGL32.dll
 0002:0001d35c       glPopMatrix                000000014002e35c f   opengl32:OPENGL32.dll
 0002:0001d362       glPushMatrix               000000014002e362 f   opengl32:OPENGL32.dll
 0002:0001d368       glRotatef                  000000014002e368 f   opengl32:OPENGL32.dll
 0002:0001d36e       glScalef                   000000014002e36e f   opengl32:OPENGL32.dll
 0002:0001d374       glTexCoord2f               000000014002e374 f   opengl32:OPENGL32.dll
 0002:0001d37a       glTexEnvf                  000000014002e37a f   opengl32:OPENGL32.dll
 0002:0001d380       glTexParameterf            000000014002e380 f   opengl32:OPENGL32.dll
 0002:0001d386       glTranslatef               000000014002e386 f   opengl32:OPENGL32.dll
 0002:0001d38c       XInputGetState             000000014002e38c f   xinput:XINPUT1_4.dll
 0002:0001d392       ??0_Lockit@std@@QEAA@H@Z   000000014002e392 f   msvcprtd:MSVCP140D.dll
 0002:0001d398       ??1_Lockit@std@@QEAA@XZ    000000014002e398 f   msvcprtd:MSVCP140D.dll
 0002:0001d39e       ?_Xlength_error@std@@YAXPEBD@Z 000000014002e39e f   msvcprtd:MSVCP140D.dll
 0002:0001d3a4       __CxxFrameHandler4         000000014002e3a4 f   vcruntimed:VCRUNTIME140_1D.dll
 0002:0001d3aa       _purecall                  000000014002e3aa f   vcruntimed:VCRUNTIME140D.dll
 0002:0001d3b0       memmove                    000000014002e3b0 f   vcruntimed:VCRUNTIME140D.dll
 0002:0001d3b6       __std_exception_copy       000000014002e3b6 f   vcruntimed:VCRUNTIME140D.dll
 0002:0001d3bc       __std_exception_destroy    000000014002e3bc f   vcruntimed:VCRUNTIME140D.dll
 0002:0001d3c2       _CxxThrowException         000000014002e3c2 f   vcruntimed:VCRUNTIME140D.dll
 0002:0001d3c8       memset                     000000014002e3c8 f   vcruntimed:VCRUNTIME140D.dll
 0002:0001d3ce       memcpy                     000000014002e3ce f   vcruntimed:VCRUNTIME140D.dll
 0002:0001d3d4       __C_specific_handler       000000014002e3d4 f   vcruntimed:VCRUNTIME140D.dll
 0002:0001d3da       __C_specific_handler_noexcept 000000014002e3da f   vcruntimed:VCRUNTIME140D.dll
 0002:0001d3e0       __current_exception        000000014002e3e0 f   vcruntimed:VCRUNTIME140D.dll
 0002:0001d3e6       __current_exception_context 000000014002e3e6 f   vcruntimed:VCRUNTIME140D.dll
 0002:0001d3ec       __std_type_info_destroy_list 000000014002e3ec f   vcruntimed:VCRUNTIME140D.dll
 0002:0001d3f2       __vcrt_GetModuleFileNameW  000000014002e3f2 f   vcruntimed:VCRUNTIME140D.dll
 0002:0001d3f8       __vcrt_GetModuleHandleW    000000014002e3f8 f   vcruntimed:VCRUNTIME140D.dll
 0002:0001d3fe       __vcrt_LoadLibraryExW      000000014002e3fe f   vcruntimed:VCRUNTIME140D.dll
 0002:0001d404       fmodf                      000000014002e404 f   ucrtd:ucrtbased.dll
 0002:0001d40a       _invalid_parameter         000000014002e40a f   ucrtd:ucrtbased.dll
 0002:0001d410       exit                       000000014002e410 f   ucrtd:ucrtbased.dll
 0002:0001d416       _CrtDbgReport              000000014002e416 f   ucrtd:ucrtbased.dll
 0002:0001d41c       __acrt_iob_func            000000014002e41c f   ucrtd:ucrtbased.dll
 0002:0001d422       __stdio_common_vfprintf    000000014002e422 f   ucrtd:ucrtbased.dll
 0002:0001d428       __stdio_common_vsprintf    000000014002e428 f   ucrtd:ucrtbased.dll
 0002:0001d42e       strlen                     000000014002e42e f   ucrtd:ucrtbased.dll
 0002:0001d434       free                       000000014002e434 f   ucrtd:ucrtbased.dll
 0002:0001d43a       fopen_s                    000000014002e43a f   ucrtd:ucrtbased.dll
 0002:0001d440       fclose                     000000014002e440 f   ucrtd:ucrtbased.dll
 0002:0001d446       fread                      000000014002e446 f   ucrtd:ucrtbased.dll
 0002:0001d44c       fseek                      000000014002e44c f   ucrtd:ucrtbased.dll
 0002:0001d452       _invalid_parameter_noinfo  000000014002e452 f   ucrtd:ucrtbased.dll
 0002:0001d458       fopen                      000000014002e458 f   ucrtd:ucrtbased.dll
 0002:0001d45e       _errno                     000000014002e45e f   ucrtd:ucrtbased.dll
 0002:0001d464       _wassert                   000000014002e464 f   ucrtd:ucrtbased.dll
 0002:0001d46a       _CrtDbgReportW             000000014002e46a f   ucrtd:ucrtbased.dll
 0002:0001d470       _callnewh                  000000014002e470 f   ucrtd:ucrtbased.dll
 0002:0001d476       malloc                     000000014002e476 f   ucrtd:ucrtbased.dll
 0002:0001d47c       _seh_filter_dll            000000014002e47c f   ucrtd:ucrtbased.dll
 0002:0001d482       _configure_narrow_argv     000000014002e482 f   ucrtd:ucrtbased.dll
 0002:0001d488       _initialize_narrow_environment 000000014002e488 f   ucrtd:ucrtbased.dll
 0002:0001d48e       _initialize_onexit_table   000000014002e48e f   ucrtd:ucrtbased.dll
 0002:0001d494       _register_onexit_function  000000014002e494 f   ucrtd:ucrtbased.dll
 0002:0001d49a       _execute_onexit_table      000000014002e49a f   ucrtd:ucrtbased.dll
 0002:0001d4a0       _crt_atexit                000000014002e4a0 f   ucrtd:ucrtbased.dll
 0002:0001d4a6       _crt_at_quick_exit         000000014002e4a6 f   ucrtd:ucrtbased.dll
 0002:0001d4ac       _cexit                     000000014002e4ac f   ucrtd:ucrtbased.dll
 0002:0001d4b2       _seh_filter_exe            000000014002e4b2 f   ucrtd:ucrtbased.dll
 0002:0001d4b8       _set_app_type              000000014002e4b8 f   ucrtd:ucrtbased.dll
 0002:0001d4be       __setusermatherr           000000014002e4be f   ucrtd:ucrtbased.dll
 0002:0001d4c4       _configure_wide_argv       000000014002e4c4 f   ucrtd:ucrtbased.dll
 0002:0001d4ca       _initialize_wide_environment 000000014002e4ca f   ucrtd:ucrtbased.dll
 0002:0001d4d0       _get_wide_winmain_command_line 000000014002e4d0 f   ucrtd:ucrtbased.dll
 0002:0001d4d6       _initterm                  000000014002e4d6 f   ucrtd:ucrtbased.dll
 0002:0001d4dc       _initterm_e                000000014002e4dc f   ucrtd:ucrtbased.dll
 0002:0001d4e2       _exit                      000000014002e4e2 f   ucrtd:ucrtbased.dll
 0002:0001d4e8       _set_fmode                 000000014002e4e8 f   ucrtd:ucrtbased.dll
 0002:0001d4ee       _c_exit                    000000014002e4ee f   ucrtd:ucrtbased.dll
 0002:0001d4f4       _register_thread_local_exe_atexit_callback 000000014002e4f4 f   ucrtd:ucrtbased.dll
 0002:0001d4fa       _configthreadlocale        000000014002e4fa f   ucrtd:ucrtbased.dll
 0002:0001d500       _set_new_mode              000000014002e500 f   ucrtd:ucrtbased.dll
 0002:0001d506       __p__commode               000000014002e506 f   ucrtd:ucrtbased.dll
 0002:0001d50c       _free_dbg                  000000014002e50c f   ucrtd:ucrtbased.dll
 0002:0001d512       strcpy_s                   000000014002e512 f   ucrtd:ucrtbased.dll
 0002:0001d518       strcat_s                   000000014002e518 f   ucrtd:ucrtbased.dll
 0002:0001d51e       __stdio_common_vsprintf_s  000000014002e51e f   ucrtd:ucrtbased.dll
 0002:0001d524       terminate                  000000014002e524 f   ucrtd:ucrtbased.dll
 0002:0001d52a       _wmakepath_s               000000014002e52a f   ucrtd:ucrtbased.dll
 0002:0001d530       _wsplitpath_s              000000014002e530 f   ucrtd:ucrtbased.dll
 0002:0001d536       wcscpy_s                   000000014002e536 f   ucrtd:ucrtbased.dll
 0002:0001d53c       GetCurrentThreadId         000000014002e53c f   kernel32:KERNEL32.dll
 0002:0001d542       CloseHandle                000000014002e542 f   kernel32:KERNEL32.dll
 0002:0001d548       EnterCriticalSection       000000014002e548 f   kernel32:KERNEL32.dll
 0002:0001d54e       LeaveCriticalSection       000000014002e54e f   kernel32:KERNEL32.dll
 0002:0001d554       InitializeCriticalSectionAndSpinCount 000000014002e554 f   kernel32:KERNEL32.dll
 0002:0001d55a       DeleteCriticalSection      000000014002e55a f   kernel32:KERNEL32.dll
 0002:0001d560       SetEvent                   000000014002e560 f   kernel32:KERNEL32.dll
 0002:0001d566       ResetEvent                 000000014002e566 f   kernel32:KERNEL32.dll
 0002:0001d56c       WaitForSingleObjectEx      000000014002e56c f   kernel32:KERNEL32.dll
 0002:0001d572       CreateEventW               000000014002e572 f   kernel32:KERNEL32.dll
 0002:0001d578       GetModuleHandleW           000000014002e578 f   kernel32:KERNEL32.dll
 0002:0001d57e       GetProcAddress             000000014002e57e f   kernel32:KERNEL32.dll
 0002:0001d584       IsDebuggerPresent          000000014002e584 f   kernel32:KERNEL32.dll
 0002:0001d58a       RaiseException             000000014002e58a f   kernel32:KERNEL32.dll
 0002:0001d590       MultiByteToWideChar        000000014002e590 f   kernel32:KERNEL32.dll
 0002:0001d596       WideCharToMultiByte        000000014002e596 f   kernel32:KERNEL32.dll
 0002:0001d59c       RtlCaptureContext          000000014002e59c f   kernel32:KERNEL32.dll
 0002:0001d5a2       RtlLookupFunctionEntry     000000014002e5a2 f   kernel32:KERNEL32.dll
 0002:0001d5a8       RtlVirtualUnwind           000000014002e5a8 f   kernel32:KERNEL32.dll
 0002:0001d5ae       UnhandledExceptionFilter   000000014002e5ae f   kernel32:KERNEL32.dll
 0002:0001d5b4       SetUnhandledExceptionFilter 000000014002e5b4 f   kernel32:KERNEL32.dll
 0002:0001d5ba       GetCurrentProcess          000000014002e5ba f   kernel32:KERNEL32.dll
 0002:0001d5c0       TerminateProcess           000000014002e5c0 f   kernel32:KERNEL32.dll
 0002:0001d5c6       IsProcessorFeaturePresent  000000014002e5c6 f   kernel32:KERNEL32.dll
 0002:0001d5cc       GetStartupInfoW            000000014002e5cc f   kernel32:KERNEL32.dll
 0002:0001d5d2       GetCurrentProcessId        000000014002e5d2 f   kernel32:KERNEL32.dll
 0002:0001d5d8       GetSystemTimeAsFileTime    000000014002e5d8 f   kernel32:KERNEL32.dll
 0002:0001d5de       InitializeSListHead        000000014002e5de f   kernel32:KERNEL32.dll
 0002:0001d5e4       GetLastError               000000014002e5e4 f   kernel32:KERNEL32.dll
 0002:0001d5ea       HeapAlloc                  000000014002e5ea f   kernel32:KERNEL32.dll
 0002:0001d5f0       HeapFree                   000000014002e5f0 f   kernel32:KERNEL32.dll
 0002:0001d5f6       GetProcessHeap             000000014002e5f6 f   kernel32:KERNEL32.dll
 0002:0001d5fc       VirtualQuery               000000014002e5fc f   kernel32:KERNEL32.dll
 0002:0001d602       FreeLibrary                000000014002e602 f   kernel32:KERNEL32.dll
 0002:0001d610       __acrt_initialize          000000014002e610 f   MSVCRTD:ucrt_stubs.obj
 0002:0001d610       __scrt_stub_for_acrt_initialize 000000014002e610 f   MSVCRTD:ucrt_stubs.obj
 0002:0001d610       __vcrt_initialize          000000014002e610 f   MSVCRTD:ucrt_stubs.obj
 0002:0001d620       __scrt_stub_for_acrt_thread_attach 000000014002e620 f   MSVCRTD:ucrt_stubs.obj
 0002:0001d620       __acrt_thread_attach       000000014002e620 f   MSVCRTD:ucrt_stubs.obj
 0002:0001d620       __vcrt_thread_attach       000000014002e620 f   MSVCRTD:ucrt_stubs.obj
 0002:0001d630       __vcrt_thread_detach       000000014002e630 f   MSVCRTD:ucrt_stubs.obj
 0002:0001d630       __scrt_stub_for_acrt_thread_detach 000000014002e630 f   MSVCRTD:ucrt_stubs.obj
 0002:0001d630       __acrt_thread_detach       000000014002e630 f   MSVCRTD:ucrt_stubs.obj
 0002:0001d640       __scrt_stub_for_acrt_uninitialize 000000014002e640 f   MSVCRTD:ucrt_stubs.obj
 0002:0001d640       __acrt_uninitialize        000000014002e640 f   MSVCRTD:ucrt_stubs.obj
 0002:0001d640       __vcrt_uninitialize        000000014002e640 f   MSVCRTD:ucrt_stubs.obj
 0002:0001d650       __acrt_uninitialize_critical 000000014002e650 f   MSVCRTD:ucrt_stubs.obj
 0002:0001d650       __scrt_stub_for_acrt_uninitialize_critical 000000014002e650 f   MSVCRTD:ucrt_stubs.obj
 0002:0001d650       __vcrt_uninitialize_critical 000000014002e650 f   MSVCRTD:ucrt_stubs.obj
 0002:0001d660       __scrt_stub_for_is_c_termination_complete 000000014002e660 f   MSVCRTD:ucrt_stubs.obj
 0002:0001d660       _is_c_termination_complete 000000014002e660 f   MSVCRTD:ucrt_stubs.obj
 0002:0001ec20       _guard_dispatch_icall_nop  000000014002fc20 f   MSVCRTD:guard_dispatch.obj
 0003:00000000       __xc_a                     0000000140034000     MSVCRTD:initializers.obj
 0003:00000360       __xc_z                     0000000140034360     MSVCRTD:initializers.obj
 0003:00000470       __xi_a                     0000000140034470     MSVCRTD:initializers.obj
 0003:000008b0       __xi_z                     00000001400348b0     MSVCRTD:initializers.obj
 0003:000009c0       __xl_a                     00000001400349c0     MSVCRTD:tlssup.obj
 0003:000009c8       __xl_z                     00000001400349c8     MSVCRTD:tlssup.obj
 0003:000009d0       __xp_a                     00000001400349d0     MSVCRTD:initializers.obj
 0003:00000ae0       __xp_z                     0000000140034ae0     MSVCRTD:initializers.obj
 0003:00000bf0       __xt_a                     0000000140034bf0     MSVCRTD:initializers.obj
 0003:00000d00       __xt_z                     0000000140034d00     MSVCRTD:initializers.obj
 0003:00000ed8       ??_7Box@@6B@               0000000140034ed8     Box.obj
 0003:00000ef8       ??_C@_0P@OCLADMEK@?4?2Data?2box?4bmp@ 0000000140034ef8     Box.obj
 0003:00000f0c       __real@3f800000            0000000140034f0c     Box.obj
 0003:00000f10       __real@42800000            0000000140034f10     Box.obj
 0003:00001280       ??_C@_0BD@PEOJLCBF@?4?2Data?2pokemon?4bmp@ 0000000140035280     Character.obj
 0003:00001298       ??_C@_0BE@LGAIHBGN@?4?2Data?2footstep?4wav@ 0000000140035298     Character.obj
 0003:000012b0       __real@3e19999a            00000001400352b0     Character.obj
 0003:000012b4       __real@3f000000            00000001400352b4     Character.obj
 0003:000012b8       __real@43400000            00000001400352b8     Character.obj
 0003:000012bc       __real@43e00000            00000001400352bc     Character.obj
 0003:000012c0       __real@47000000            00000001400352c0     Character.obj
 0003:000012c4       __real@bf000000            00000001400352c4     Character.obj
 0003:000012c8       __real@3e4ccccd            00000001400352c8     Door.obj
 0003:000012cc       __real@447a0000            00000001400352cc     Door.obj
 0003:00001398       ??_7Obstacle@@6B@          0000000140035398     Obstacle.obj
 0003:000018e0       ??_7exception@std@@6B@     00000001400358e0     UbisoftProject.obj
 0003:000018f8       ??_C@_0BC@EOODALEL@Unknown?5exception@ 00000001400358f8     UbisoftProject.obj
 0003:00001918       ??_7bad_alloc@std@@6B@     0000000140035918     UbisoftProject.obj
 0003:00001938       ??_7bad_array_new_length@std@@6B@ 0000000140035938     UbisoftProject.obj
 0003:00001950       ??_C@_0BF@KINCDENJ@bad?5array?5new?5length@ 0000000140035950     UbisoftProject.obj
 0003:00001970       ??_C@_0BB@FCMFBGOM@invalid?5argument@ 0000000140035970     UbisoftProject.obj
 0003:00001984       ??_C@_02DKCKIIND@?$CFs@    0000000140035984     UbisoftProject.obj
 0003:00001990       ??_C@_0GI@FJIKDGOA@C?3?2Program?5Files?5?$CIx86?$CJ?2Microsof@ 0000000140035990     UbisoftProject.obj
 0003:00001a10       ??_C@_1NA@CDBIFGMM@?$AAC?$AA?3?$AA?2?$AAP?$AAr?$AAo?$AAg?$AAr?$AAa?$AAm?$AA?5?$AAF?$AAi?$AAl?$AAe@ 0000000140035a10     UbisoftProject.obj
 0003:00001b10       ??_C@_1EK@NIFDJFDG@?$AAs?$AAt?$AAd?$AA?3?$AA?3?$AA_?$AAA?$AAd?$AAj?$AAu?$AAs?$AAt?$AA_?$AAm?$AAa@ 0000000140035b10     UbisoftProject.obj
 0003:00001b68       ??_C@_1CG@JNLFBNGN@?$AA?$CC?$AAi?$AAn?$AAv?$AAa?$AAl?$AAi?$AAd?$AA?5?$AAa?$AAr?$AAg?$AAu?$AAm?$AAe@ 0000000140035b68     UbisoftProject.obj
 0003:00001b98       ??_C@_0BE@GBACEPPD@?4?2Data?2ambiance?4wav@ 0000000140035b98     UbisoftProject.obj
 0003:00001bb0       ??_C@_0BD@DJHFPKGP@?4?2Data?2victory?4wav@ 0000000140035bb0     UbisoftProject.obj
 0003:00001bc8       ??_C@_0BI@FBJLDINP@?4?2Data?2box_friction?4wav@ 0000000140035bc8     UbisoftProject.obj
 0003:00001be8       ??_C@_0BI@KLMKPLJM@X?5to?5restart?0?5B?5to?5quit@ 0000000140035be8     UbisoftProject.obj
 0003:00001c08       ??_C@_09DHPNELMI@FREEDOM?5?$CB@ 0000000140035c08     UbisoftProject.obj
 0003:00001c18       ??_C@_0BO@PFKOHNJC@vector?5subscript?5out?5of?5range@ 0000000140035c18     UbisoftProject.obj
 0003:00001c40       ??_C@_0GH@OOPCKGB@C?3?2Program?5Files?5?$CIx86?$CJ?2Microsof@ 0000000140035c40     UbisoftProject.obj
 0003:00001cc0       ??_C@_1MO@NOOOHLI@?$AAC?$AA?3?$AA?2?$AAP?$AAr?$AAo?$AAg?$AAr?$AAa?$AAm?$AA?5?$AAF?$AAi?$AAl?$AAe@ 0000000140035cc0     UbisoftProject.obj
 0003:00001dc0       ??_C@_1KG@JGGJJMPG@?$AAs?$AAt?$AAd?$AA?3?$AA?3?$AAv?$AAe?$AAc?$AAt?$AAo?$AAr?$AA?$DM?$AAc?$AAl?$AAa@ 0000000140035dc0     UbisoftProject.obj
 0003:00001e90       ??_C@_1EA@LEKOKFNB@?$AA?$CC?$AAv?$AAe?$AAc?$AAt?$AAo?$AAr?$AA?5?$AAs?$AAu?$AAb?$AAs?$AAc?$AAr?$AAi@ 0000000140035e90     UbisoftProject.obj
 0003:00001ee0       ??_C@_1BJE@PADOKBDJ@?$AAs?$AAt?$AAd?$AA?3?$AA?3?$AAv?$AAe?$AAc?$AAt?$AAo?$AAr?$AA?$DM?$AAc?$AAl?$AAa@ 0000000140035ee0     UbisoftProject.obj
 0003:000020c8       ??_C@_0BD@OLBABOEK@vector?$DMT?$DO?5too?5long@ 00000001400360c8     UbisoftProject.obj
 0003:000020e0       ??_C@_1EO@GFNCMDLA@?$AAs?$AAt?$AAd?$AA?3?$AA?3?$AA_?$AAA?$AAl?$AAl?$AAo?$AAc?$AAa?$AAt?$AAe?$AA_@ 00000001400360e0     UbisoftProject.obj
 0003:00002140       __real@41200000            0000000140036140     UbisoftProject.obj
 0003:00002144       __real@43b90000            0000000140036144     UbisoftProject.obj
 0003:00002148       __real@43c00000            0000000140036148     UbisoftProject.obj
 0003:0000214c       __real@44020000            000000014003614c     UbisoftProject.obj
 0003:00002150       __real@442f0000            0000000140036150     UbisoftProject.obj
 0003:00002154       __real@445f8000            0000000140036154     UbisoftProject.obj
 0003:00002160       ??_7Wall@@6B@              0000000140036160     Wall.obj
 0003:00002180       ??_C@_0BA@EKJGPCMP@?4?2Data?2wall?4bmp@ 0000000140036180     Wall.obj
 0003:00002553       ??_C@_00CNPNBAHC@@         0000000140036553     Framework:main.obj
 0003:00002558       ??_C@_0CF@MKHKCPCJ@Failed?5to?5init?5performance?5coun@ 0000000140036558     Framework:main.obj
 0003:00002588       ??_C@_0N@DHAJMOKJ@?$CFs?3?5?$CF0?44f?5ms@ 0000000140036588     Framework:main.obj
 0003:00002598       ??_C@_06LMAGPFNF@Update@   0000000140036598     Framework:main.obj
 0003:000025a0       ??_C@_0M@HKPPLLPP@User?5Render@ 00000001400365a0     Framework:main.obj
 0003:000025b0       ??_C@_0M@IJEKLDBL@User?5Update@ 00000001400365b0     Framework:main.obj
 0003:000025c0       ??_C@_04IBBNLEM@Game@      00000001400365c0     Framework:main.obj
 0003:000025c8       __real@4030aaaaaaaaaaab    00000001400365c8     Framework:main.obj
 0003:000025d8       __real@408f400000000000    00000001400365d8     Framework:main.obj
 0003:000025e4       __real@41c80000            00000001400365e4     Framework:main.obj
 0003:000025e8       __real@42200000            00000001400365e8     Framework:main.obj
 0003:00002664       __real@40000000            0000000140036664     Framework:app.obj
 0003:00002668       __real@44400000            0000000140036668     Framework:app.obj
 0003:0000266c       __real@44800000            000000014003666c     Framework:app.obj
 0003:00002670       __xmm@80000000800000008000000080000000 0000000140036670     Framework:app.obj
 0003:00002be8       ??_C@_0BJ@LFDBABJJ@ITERATOR?5LIST?5CORRUPTED?$CB@ 0000000140036be8     Framework:SimpleSprite.obj
 0003:00002c10       ??_C@_1EE@KLDMFDFL@?$AAs?$AAt?$AAd?$AA?3?$AA?3?$AA_?$AAI?$AAt?$AAe?$AAr?$AAa?$AAt?$AAo?$AAr?$AA_@ 0000000140036c10     Framework:SimpleSprite.obj
 0003:00002c68       ??_C@_1DG@PLBPCAEM@?$AA?$CC?$AAI?$AAT?$AAE?$AAR?$AAA?$AAT?$AAO?$AAR?$AA?5?$AAL?$AAI?$AAS?$AAT?$AA?5@ 0000000140036c68     Framework:SimpleSprite.obj
 0003:00002ca8       ??_C@_0BB@GCADKGJO@map?1set?5too?5long@ 0000000140036ca8     Framework:SimpleSprite.obj
 0003:00002cc0       ??_C@_0BP@OLDKBHLM@map?1set?5iterators?5incompatible@ 0000000140036cc0     Framework:SimpleSprite.obj
 0003:00002cf0       ??_C@_0GG@OCININGN@C?3?2Program?5Files?5?$CIx86?$CJ?2Microsof@ 0000000140036cf0     Framework:SimpleSprite.obj
 0003:00002d70       ??_C@_1MM@HFHBGPEE@?$AAC?$AA?3?$AA?2?$AAP?$AAr?$AAo?$AAg?$AAr?$AAa?$AAm?$AA?5?$AAF?$AAi?$AAl?$AAe@ 0000000140036d70     Framework:SimpleSprite.obj
 0003:00002e70       ??_C@_1BFA@LHKHIJBL@?$AAs?$AAt?$AAd?$AA?3?$AA?3?$AA_?$AAT?$AAr?$AAe?$AAe?$AA_?$AAc?$AAo?$AAn?$AAs@ 0000000140036e70     Framework:SimpleSprite.obj
 0003:00003010       ??_C@_1EC@JLIDLCDH@?$AA?$CC?$AAm?$AAa?$AAp?$AA?1?$AAs?$AAe?$AAt?$AA?5?$AAi?$AAt?$AAe?$AAr?$AAa?$AAt@ 0000000140037010     Framework:SimpleSprite.obj
 0003:00003060       ??_C@_0BD@FEEMDEPI@invalid?5comparator@ 0000000140037060     Framework:SimpleSprite.obj
 0003:00003080       ??_C@_0GJ@GDKIGMBO@C?3?2Program?5Files?5?$CIx86?$CJ?2Microsof@ 0000000140037080     Framework:SimpleSprite.obj
 0003:00003100       ??_C@_1NC@OIIHGCJJ@?$AAC?$AA?3?$AA?2?$AAP?$AAr?$AAo?$AAg?$AAr?$AAa?$AAm?$AA?5?$AAF?$AAi?$AAl?$AAe@ 0000000140037100     Framework:SimpleSprite.obj
 0003:00003200       ??_C@_1CI@JONCLBEJ@?$AAs?$AAt?$AAd?$AA?3?$AA?3?$AA_?$AAD?$AAe?$AAb?$AAu?$AAg?$AA_?$AAl?$AAt?$AA_@ 0000000140037200     Framework:SimpleSprite.obj
 0003:00003230       ??_C@_1CK@NDNHPKPI@?$AA?$CC?$AAi?$AAn?$AAv?$AAa?$AAl?$AAi?$AAd?$AA?5?$AAc?$AAo?$AAm?$AAp?$AAa?$AAr@ 0000000140037230     Framework:SimpleSprite.obj
 0003:00003264       __real@3dcccccd            0000000140037264     Framework:SimpleSprite.obj
 0003:00003268       __real@40490fdb            0000000140037268     Framework:SimpleSprite.obj
 0003:0000326c       __real@43340000            000000014003726c     Framework:SimpleSprite.obj
 0003:00003270       __real@46040000            0000000140037270     Framework:SimpleSprite.obj
 0003:00003274       __real@46180400            0000000140037274     Framework:SimpleSprite.obj
 0003:00003278       __real@461c0400            0000000140037278     Framework:SimpleSprite.obj
 0003:0000327c       __real@46240400            000000014003727c     Framework:SimpleSprite.obj
 0003:00003280       __real@454ccb33            0000000140037280     Framework:SimpleController.obj
 0003:00003284       __real@c54ccb33            0000000140037284     Framework:SimpleController.obj
 0003:00003b24       ??_C@_02JDPG@rb@           0000000140037b24     Framework:SimpleSound.obj
 0003:00003ba8       ??_C@_0BC@KNDEBHOP@Reading?5image?5?$CFs?6@ 0000000140037ba8     Framework:TextureLoader.obj
 0003:00003bc0       ??_C@_0BL@CCEDHKF@Image?5could?5not?5be?5opened?6@ 0000000140037bc0     Framework:TextureLoader.obj
 0003:00003be0       ??_C@_0BI@NBHBNIEG@Not?5a?5correct?5BMP?5file?6@ 0000000140037be0     Framework:TextureLoader.obj
 0003:00003c00       ??_C@_0BP@FGPPHBPI@Not?5a?5correct?532bits?5BMP?5file?6@ 0000000140037c00     Framework:TextureLoader.obj
 0003:00003c30       ??_C@_1JG@BHIDPIMC@?$AAC?$AA?3?$AA?2?$AAU?$AAs?$AAe?$AAr?$AAs?$AA?2?$AAS?$AAe?$AA7?$AAe?$AAn?$AA?2@ 0000000140037c30     Framework:TextureLoader.obj
 0003:00003ce4       ??_C@_13COJANIEC@?$AA0@    0000000140037ce4     Framework:TextureLoader.obj
 0003:00003ce8       CLSID_DirectPlay8Client    0000000140037ce8     dxguid:dxguid.obj
 0003:00003d00       CLSID_DirectPlay8Server    0000000140037d00     dxguid:dxguid.obj
 0003:00003d18       CLSID_DirectPlay8Peer      0000000140037d18     dxguid:dxguid.obj
 0003:00003d30       CLSID_DirectPlay8ThreadPool 0000000140037d30     dxguid:dxguid.obj
 0003:00003d48       CLSID_DirectPlay8NATResolver 0000000140037d48     dxguid:dxguid.obj
 0003:00003d60       CLSID_DirectPlay8Multicast 0000000140037d60     dxguid:dxguid.obj
 0003:00003d78       CLSID_DirectPlay8Diagnostics 0000000140037d78     dxguid:dxguid.obj
 0003:00003d90       IID_IDirectPlay8Client     0000000140037d90     dxguid:dxguid.obj
 0003:00003da8       IID_IDirectPlay8Server     0000000140037da8     dxguid:dxguid.obj
 0003:00003dc0       IID_IDirectPlay8Peer       0000000140037dc0     dxguid:dxguid.obj
 0003:00003dd8       IID_IDirectPlay8ThreadPool 0000000140037dd8     dxguid:dxguid.obj
 0003:00003df0       IID_IDirectPlay8NATResolver 0000000140037df0     dxguid:dxguid.obj
 0003:00003e08       IID_IDirectPlay8Diagnostics 0000000140037e08     dxguid:dxguid.obj
 0003:00003e20       IID_IDirectPlay8Multicast  0000000140037e20     dxguid:dxguid.obj
 0003:00003e38       IID_IDirectPlay8ThreadPoolWork 0000000140037e38     dxguid:dxguid.obj
 0003:00003e50       CLSID_DP8SP_IPX            0000000140037e50     dxguid:dxguid.obj
 0003:00003e68       CLSID_DP8SP_MODEM          0000000140037e68     dxguid:dxguid.obj
 0003:00003e80       CLSID_DP8SP_SERIAL         0000000140037e80     dxguid:dxguid.obj
 0003:00003e98       CLSID_DP8SP_TCPIP          0000000140037e98     dxguid:dxguid.obj
 0003:00003eb0       CLSID_DP8SP_BLUETOOTH      0000000140037eb0     dxguid:dxguid.obj
 0003:00003ec8       GUID_DP8MULTICASTSCOPE_PRIVATE 0000000140037ec8     dxguid:dxguid.obj
 0003:00003ee0       GUID_DP8MULTICASTSCOPE_LOCAL 0000000140037ee0     dxguid:dxguid.obj
 0003:00003ef8       GUID_DP8MULTICASTSCOPE_GLOBAL 0000000140037ef8     dxguid:dxguid.obj
 0003:00003f10       IID_IDirectSoundFXChorus   0000000140037f10     dxguid:dxguid.obj
 0003:00003f28       IID_IDirectSoundFXFlanger  0000000140037f28     dxguid:dxguid.obj
 0003:00003f40       IID_IDirectSoundFXEcho     0000000140037f40     dxguid:dxguid.obj
 0003:00003f58       IID_IDirectSoundFXDistortion 0000000140037f58     dxguid:dxguid.obj
 0003:00003f70       IID_IDirectSoundFXCompressor 0000000140037f70     dxguid:dxguid.obj
 0003:00003f88       IID_IDirectSoundFXParamEq  0000000140037f88     dxguid:dxguid.obj
 0003:00003fa0       IID_IDirectSoundFXI3DL2Reverb 0000000140037fa0     dxguid:dxguid.obj
 0003:00003fb8       PPM_PERFSTATE_CHANGE_GUID  0000000140037fb8     dxguid:dxguid.obj
 0003:00003fd0       PPM_PERFSTATE_DOMAIN_CHANGE_GUID 0000000140037fd0     dxguid:dxguid.obj
 0003:00003fe8       PPM_IDLESTATE_CHANGE_GUID  0000000140037fe8     dxguid:dxguid.obj
 0003:00004000       PPM_PERFSTATES_DATA_GUID   0000000140038000     dxguid:dxguid.obj
 0003:00004018       PPM_IDLESTATES_DATA_GUID   0000000140038018     dxguid:dxguid.obj
 0003:00004030       PPM_IDLE_ACCOUNTING_GUID   0000000140038030     dxguid:dxguid.obj
 0003:00004048       PPM_IDLE_ACCOUNTING_EX_GUID 0000000140038048     dxguid:dxguid.obj
 0003:00004060       PPM_THERMALCONSTRAINT_GUID 0000000140038060     dxguid:dxguid.obj
 0003:00004078       PPM_PERFMON_PERFSTATE_GUID 0000000140038078     dxguid:dxguid.obj
 0003:00004090       PPM_THERMAL_POLICY_CHANGE_GUID 0000000140038090     dxguid:dxguid.obj
 0003:000040a8       IID_IDirectSoundFXWavesReverb 00000001400380a8     dxguid:dxguid.obj
 0003:000040c0       IID_IDirectSoundCaptureFXAec 00000001400380c0     dxguid:dxguid.obj
 0003:000040d8       IID_IDirectSoundCaptureFXNoiseSuppress 00000001400380d8     dxguid:dxguid.obj
 0003:000040f0       IID_IDirectSoundFullDuplex 00000001400380f0     dxguid:dxguid.obj
 0003:00004108       DS3DALG_NO_VIRTUALIZATION  0000000140038108     dxguid:dxguid.obj
 0003:00004120       DS3DALG_HRTF_FULL          0000000140038120     dxguid:dxguid.obj
 0003:00004138       DS3DALG_HRTF_LIGHT         0000000140038138     dxguid:dxguid.obj
 0003:00004150       GUID_DSFX_STANDARD_GARGLE  0000000140038150     dxguid:dxguid.obj
 0003:00004168       GUID_DSFX_STANDARD_CHORUS  0000000140038168     dxguid:dxguid.obj
 0003:00004180       GUID_DSFX_STANDARD_FLANGER 0000000140038180     dxguid:dxguid.obj
 0003:00004198       GUID_DSFX_STANDARD_ECHO    0000000140038198     dxguid:dxguid.obj
 0003:000041b0       GUID_DSFX_STANDARD_DISTORTION 00000001400381b0     dxguid:dxguid.obj
 0003:000041c8       GUID_DSFX_STANDARD_COMPRESSOR 00000001400381c8     dxguid:dxguid.obj
 0003:000041e0       GUID_DSFX_STANDARD_PARAMEQ 00000001400381e0     dxguid:dxguid.obj
 0003:000041f8       GUID_DSFX_STANDARD_I3DL2REVERB 00000001400381f8     dxguid:dxguid.obj
 0003:00004210       GUID_DSFX_WAVES_REVERB     0000000140038210     dxguid:dxguid.obj
 0003:00004228       GUID_DSCFX_CLASS_AEC       0000000140038228     dxguid:dxguid.obj
 0003:00004240       GUID_DSCFX_MS_AEC          0000000140038240     dxguid:dxguid.obj
 0003:00004258       GUID_DSCFX_SYSTEM_AEC      0000000140038258     dxguid:dxguid.obj
 0003:00004270       GUID_DSCFX_CLASS_NS        0000000140038270     dxguid:dxguid.obj
 0003:00004288       GUID_DSCFX_MS_NS           0000000140038288     dxguid:dxguid.obj
 0003:000042a0       GUID_DSCFX_SYSTEM_NS       00000001400382a0     dxguid:dxguid.obj
 0003:000042b8       CLSID_DirectMusic          00000001400382b8     dxguid:dxguid.obj
 0003:000042d0       CLSID_DirectMusicCollection 00000001400382d0     dxguid:dxguid.obj
 0003:000042e8       CLSID_DirectMusicSynth     00000001400382e8     dxguid:dxguid.obj
 0003:00004300       IID_IDirectMusic           0000000140038300     dxguid:dxguid.obj
 0003:00004318       IID_IDirectMusicBuffer     0000000140038318     dxguid:dxguid.obj
 0003:00004330       IID_IDirectMusicPort       0000000140038330     dxguid:dxguid.obj
 0003:00004348       IID_IDirectMusicThru       0000000140038348     dxguid:dxguid.obj
 0003:00004360       IID_IDirectMusicPortDownload 0000000140038360     dxguid:dxguid.obj
 0003:00004378       IID_IDirectMusicDownload   0000000140038378     dxguid:dxguid.obj
 0003:00004390       IID_IDirectMusicCollection 0000000140038390     dxguid:dxguid.obj
 0003:000043a8       IID_IDirectMusicInstrument 00000001400383a8     dxguid:dxguid.obj
 0003:000043c0       IID_IDirectMusicDownloadedInstrument 00000001400383c0     dxguid:dxguid.obj
 0003:000043d8       IID_IDirectMusic2          00000001400383d8     dxguid:dxguid.obj
 0003:000043f0       IID_IDirectMusic8          00000001400383f0     dxguid:dxguid.obj
 0003:00004408       GUID_DMUS_PROP_GM_Hardware 0000000140038408     dxguid:dxguid.obj
 0003:00004420       GUID_DMUS_PROP_GS_Hardware 0000000140038420     dxguid:dxguid.obj
 0003:00004438       GUID_DMUS_PROP_XG_Hardware 0000000140038438     dxguid:dxguid.obj
 0003:00004450       GUID_DMUS_PROP_XG_Capable  0000000140038450     dxguid:dxguid.obj
 0003:00004468       GUID_DMUS_PROP_GS_Capable  0000000140038468     dxguid:dxguid.obj
 0003:00004480       GUID_DMUS_PROP_DLS1        0000000140038480     dxguid:dxguid.obj
 0003:00004498       GUID_DMUS_PROP_DLS2        0000000140038498     dxguid:dxguid.obj
 0003:000044b0       GUID_DMUS_PROP_INSTRUMENT2 00000001400384b0     dxguid:dxguid.obj
 0003:000044c8       GUID_DMUS_PROP_SynthSink_DSOUND 00000001400384c8     dxguid:dxguid.obj
 0003:000044e0       GUID_DMUS_PROP_SynthSink_WAVE 00000001400384e0     dxguid:dxguid.obj
 0003:000044f8       GUID_DMUS_PROP_SampleMemorySize 00000001400384f8     dxguid:dxguid.obj
 0003:00004510       GUID_DMUS_PROP_SamplePlaybackRate 0000000140038510     dxguid:dxguid.obj
 0003:00004528       GUID_DMUS_PROP_WriteLatency 0000000140038528     dxguid:dxguid.obj
 0003:00004540       GUID_DMUS_PROP_WritePeriod 0000000140038540     dxguid:dxguid.obj
 0003:00004558       GUID_DMUS_PROP_MemorySize  0000000140038558     dxguid:dxguid.obj
 0003:00004570       GUID_DMUS_PROP_WavesReverb 0000000140038570     dxguid:dxguid.obj
 0003:00004588       GUID_DMUS_PROP_Effects     0000000140038588     dxguid:dxguid.obj
 0003:000045a0       GUID_DMUS_PROP_LegacyCaps  00000001400385a0     dxguid:dxguid.obj
 0003:000045b8       GUID_DMUS_PROP_Volume      00000001400385b8     dxguid:dxguid.obj
 0003:000045d0       NETWORK_MANAGER_FIRST_IP_ADDRESS_ARRIVAL_GUID 00000001400385d0     dxguid:dxguid.obj
 0003:000045e8       NETWORK_MANAGER_LAST_IP_ADDRESS_REMOVAL_GUID 00000001400385e8     dxguid:dxguid.obj
 0003:00004600       DOMAIN_JOIN_GUID           0000000140038600     dxguid:dxguid.obj
 0003:00004618       DOMAIN_LEAVE_GUID          0000000140038618     dxguid:dxguid.obj
 0003:00004630       FIREWALL_PORT_OPEN_GUID    0000000140038630     dxguid:dxguid.obj
 0003:00004648       FIREWALL_PORT_CLOSE_GUID   0000000140038648     dxguid:dxguid.obj
 0003:00004660       MACHINE_POLICY_PRESENT_GUID 0000000140038660     dxguid:dxguid.obj
 0003:00004678       USER_POLICY_PRESENT_GUID   0000000140038678     dxguid:dxguid.obj
 0003:00004690       RPC_INTERFACE_EVENT_GUID   0000000140038690     dxguid:dxguid.obj
 0003:000046a8       NAMED_PIPE_EVENT_GUID      00000001400386a8     dxguid:dxguid.obj
 0003:000046c0       CUSTOM_SYSTEM_STATE_CHANGE_EVENT_GUID 00000001400386c0     dxguid:dxguid.obj
 0003:000046d8       IID_IKsControl             00000001400386d8     dxguid:dxguid.obj
 0003:000046f0       KSDATAFORMAT_SUBTYPE_MIDI  00000001400386f0     dxguid:dxguid.obj
 0003:00004708       KSDATAFORMAT_SUBTYPE_DIRECTMUSIC 0000000140038708     dxguid:dxguid.obj
 0003:00004720       IID_IDirect3D8             0000000140038720     dxguid:dxguid.obj
 0003:00004738       IID_IDirect3DDevice8       0000000140038738     dxguid:dxguid.obj
 0003:00004750       IID_IDirect3DResource8     0000000140038750     dxguid:dxguid.obj
 0003:00004768       IID_IDirect3DBaseTexture8  0000000140038768     dxguid:dxguid.obj
 0003:00004780       IID_IDirect3DTexture8      0000000140038780     dxguid:dxguid.obj
 0003:00004798       IID_IDirect3DCubeTexture8  0000000140038798     dxguid:dxguid.obj
 0003:000047b0       IID_IDirect3DVolumeTexture8 00000001400387b0     dxguid:dxguid.obj
 0003:000047c8       IID_IDirect3DVertexBuffer8 00000001400387c8     dxguid:dxguid.obj
 0003:000047e0       IID_IDirect3DIndexBuffer8  00000001400387e0     dxguid:dxguid.obj
 0003:000047f8       IID_IDirect3DSurface8      00000001400387f8     dxguid:dxguid.obj
 0003:00004810       IID_IDirect3DVolume8       0000000140038810     dxguid:dxguid.obj
 0003:00004828       IID_IDirect3DSwapChain8    0000000140038828     dxguid:dxguid.obj
 0003:00004840       TID_D3DRMInfo              0000000140038840     dxguid:dxguid.obj
 0003:00004858       TID_D3DRMMesh              0000000140038858     dxguid:dxguid.obj
 0003:00004870       TID_D3DRMVector            0000000140038870     dxguid:dxguid.obj
 0003:00004888       TID_D3DRMMeshFace          0000000140038888     dxguid:dxguid.obj
 0003:000048a0       TID_D3DRMMaterial          00000001400388a0     dxguid:dxguid.obj
 0003:000048b8       TID_D3DRMMaterialArray     00000001400388b8     dxguid:dxguid.obj
 0003:000048d0       TID_D3DRMFrame             00000001400388d0     dxguid:dxguid.obj
 0003:000048e8       TID_D3DRMFrameTransformMatrix 00000001400388e8     dxguid:dxguid.obj
 0003:00004900       TID_D3DRMMeshMaterialList  0000000140038900     dxguid:dxguid.obj
 0003:00004918       TID_D3DRMMeshTextureCoords 0000000140038918     dxguid:dxguid.obj
 0003:00004930       TID_D3DRMMeshNormals       0000000140038930     dxguid:dxguid.obj
 0003:00004948       TID_D3DRMCoords2d          0000000140038948     dxguid:dxguid.obj
 0003:00004960       TID_D3DRMMatrix4x4         0000000140038960     dxguid:dxguid.obj
 0003:00004978       TID_D3DRMAnimation         0000000140038978     dxguid:dxguid.obj
 0003:00004990       TID_D3DRMAnimationSet      0000000140038990     dxguid:dxguid.obj
 0003:000049a8       TID_D3DRMAnimationKey      00000001400389a8     dxguid:dxguid.obj
 0003:000049c0       TID_D3DRMFloatKeys         00000001400389c0     dxguid:dxguid.obj
 0003:000049d8       TID_D3DRMMaterialAmbientColor 00000001400389d8     dxguid:dxguid.obj
 0003:000049f0       TID_D3DRMMaterialDiffuseColor 00000001400389f0     dxguid:dxguid.obj
 0003:00004a08       TID_D3DRMMaterialSpecularColor 0000000140038a08     dxguid:dxguid.obj
 0003:00004a20       TID_D3DRMMaterialEmissiveColor 0000000140038a20     dxguid:dxguid.obj
 0003:00004a38       TID_D3DRMMaterialPower     0000000140038a38     dxguid:dxguid.obj
 0003:00004a50       TID_D3DRMColorRGBA         0000000140038a50     dxguid:dxguid.obj
 0003:00004a68       TID_D3DRMColorRGB          0000000140038a68     dxguid:dxguid.obj
 0003:00004a80       TID_D3DRMGuid              0000000140038a80     dxguid:dxguid.obj
 0003:00004a98       TID_D3DRMTextureFilename   0000000140038a98     dxguid:dxguid.obj
 0003:00004ab0       TID_D3DRMTextureReference  0000000140038ab0     dxguid:dxguid.obj
 0003:00004ac8       TID_D3DRMIndexedColor      0000000140038ac8     dxguid:dxguid.obj
 0003:00004ae0       TID_D3DRMMeshVertexColors  0000000140038ae0     dxguid:dxguid.obj
 0003:00004af8       TID_D3DRMMaterialWrap      0000000140038af8     dxguid:dxguid.obj
 0003:00004b10       TID_D3DRMBoolean           0000000140038b10     dxguid:dxguid.obj
 0003:00004b28       TID_D3DRMMeshFaceWraps     0000000140038b28     dxguid:dxguid.obj
 0003:00004b40       TID_D3DRMBoolean2d         0000000140038b40     dxguid:dxguid.obj
 0003:00004b58       TID_D3DRMTimedFloatKeys    0000000140038b58     dxguid:dxguid.obj
 0003:00004b70       TID_D3DRMAnimationOptions  0000000140038b70     dxguid:dxguid.obj
 0003:00004b88       TID_D3DRMFramePosition     0000000140038b88     dxguid:dxguid.obj
 0003:00004ba0       TID_D3DRMFrameVelocity     0000000140038ba0     dxguid:dxguid.obj
 0003:00004bb8       TID_D3DRMFrameRotation     0000000140038bb8     dxguid:dxguid.obj
 0003:00004bd0       TID_D3DRMLight             0000000140038bd0     dxguid:dxguid.obj
 0003:00004be8       TID_D3DRMCamera            0000000140038be8     dxguid:dxguid.obj
 0003:00004c00       TID_D3DRMAppData           0000000140038c00     dxguid:dxguid.obj
 0003:00004c18       TID_D3DRMLightUmbra        0000000140038c18     dxguid:dxguid.obj
 0003:00004c30       TID_D3DRMLightRange        0000000140038c30     dxguid:dxguid.obj
 0003:00004c48       TID_D3DRMLightPenumbra     0000000140038c48     dxguid:dxguid.obj
 0003:00004c60       TID_D3DRMLightAttenuation  0000000140038c60     dxguid:dxguid.obj
 0003:00004c78       TID_D3DRMInlineData        0000000140038c78     dxguid:dxguid.obj
 0003:00004c90       TID_D3DRMUrl               0000000140038c90     dxguid:dxguid.obj
 0003:00004ca8       TID_D3DRMProgressiveMesh   0000000140038ca8     dxguid:dxguid.obj
 0003:00004cc0       TID_D3DRMExternalVisual    0000000140038cc0     dxguid:dxguid.obj
 0003:00004cd8       TID_D3DRMStringProperty    0000000140038cd8     dxguid:dxguid.obj
 0003:00004cf0       TID_D3DRMPropertyBag       0000000140038cf0     dxguid:dxguid.obj
 0003:00004d08       TID_D3DRMRightHanded       0000000140038d08     dxguid:dxguid.obj
 0003:00004d20       CLSID_DirectDraw           0000000140038d20     dxguid:dxguid.obj
 0003:00004d38       CLSID_DirectDraw7          0000000140038d38     dxguid:dxguid.obj
 0003:00004d50       CLSID_DirectDrawClipper    0000000140038d50     dxguid:dxguid.obj
 0003:00004d68       IID_IDirectDraw            0000000140038d68     dxguid:dxguid.obj
 0003:00004d80       IID_IDirectDraw2           0000000140038d80     dxguid:dxguid.obj
 0003:00004d98       IID_IDirectDraw4           0000000140038d98     dxguid:dxguid.obj
 0003:00004db0       IID_IDirectDraw7           0000000140038db0     dxguid:dxguid.obj
 0003:00004dc8       CLSID_DirectSound          0000000140038dc8     dxguid:dxguid.obj
 0003:00004de0       IID_IDirectDrawSurface     0000000140038de0     dxguid:dxguid.obj
 0003:00004df8       CLSID_DirectSound8         0000000140038df8     dxguid:dxguid.obj
 0003:00004e10       CLSID_DirectSoundCapture   0000000140038e10     dxguid:dxguid.obj
 0003:00004e28       IID_IDirectDrawSurface2    0000000140038e28     dxguid:dxguid.obj
 0003:00004e40       IID_IDirectDrawSurface3    0000000140038e40     dxguid:dxguid.obj
 0003:00004e58       CLSID_DirectSoundCapture8  0000000140038e58     dxguid:dxguid.obj
 0003:00004e70       IID_IDirectDrawSurface4    0000000140038e70     dxguid:dxguid.obj
 0003:00004e88       CLSID_DirectSoundFullDuplex 0000000140038e88     dxguid:dxguid.obj
 0003:00004ea0       IID_IDirectDrawSurface7    0000000140038ea0     dxguid:dxguid.obj
 0003:00004eb8       DSDEVID_DefaultPlayback    0000000140038eb8     dxguid:dxguid.obj
 0003:00004ed0       IID_IDirectDrawSurfaceNew  0000000140038ed0     dxguid:dxguid.obj
 0003:00004ee8       DSDEVID_DefaultCapture     0000000140038ee8     dxguid:dxguid.obj
 0003:00004f00       DSDEVID_DefaultVoicePlayback 0000000140038f00     dxguid:dxguid.obj
 0003:00004f18       CLSID_DirectDrawFactory2   0000000140038f18     dxguid:dxguid.obj
 0003:00004f30       IID_IDirectDrawFactory2    0000000140038f30     dxguid:dxguid.obj
 0003:00004f48       DSDEVID_DefaultVoiceCapture 0000000140038f48     dxguid:dxguid.obj
 0003:00004f60       GUID_DirectDrawSurfaceStream 0000000140038f60     dxguid:dxguid.obj
 0003:00004f78       GUID_DirectDrawPaletteStream 0000000140038f78     dxguid:dxguid.obj
 0003:00004f90       IID_IDirectDrawOptSurface  0000000140038f90     dxguid:dxguid.obj
 0003:00004fa8       IID_IDirectDrawPalette2    0000000140038fa8     dxguid:dxguid.obj
 0003:00004fc0       IID_IDirectDrawPalette     0000000140038fc0     dxguid:dxguid.obj
 0003:00004fd8       IID_IDirectDrawClipper     0000000140038fd8     dxguid:dxguid.obj
 0003:00004ff0       IID_IDirectDrawColorControl 0000000140038ff0     dxguid:dxguid.obj
 0003:00005008       IID_IDirectDrawGammaControl 0000000140039008     dxguid:dxguid.obj
 0003:00005020       IID_IDirectPlay            0000000140039020     dxguid:dxguid.obj
 0003:00005038       IID_IDirectPlayLobby       0000000140039038     dxguid:dxguid.obj
 0003:00005050       IID_IDirectPlayLobbyA      0000000140039050     dxguid:dxguid.obj
 0003:00005068       IID_IDirectPlayLobby2      0000000140039068     dxguid:dxguid.obj
 0003:00005080       IID_IDirectPlayLobby2A     0000000140039080     dxguid:dxguid.obj
 0003:00005098       IID_IDirectPlayLobby3      0000000140039098     dxguid:dxguid.obj
 0003:000050b0       IID_IDirectPlayLobby3A     00000001400390b0     dxguid:dxguid.obj
 0003:000050c8       CLSID_DirectPlayLobby      00000001400390c8     dxguid:dxguid.obj
 0003:000050e0       CLSID_CDirectXFile         00000001400390e0     dxguid:dxguid.obj
 0003:000050f8       IID_IDirectXFile           00000001400390f8     dxguid:dxguid.obj
 0003:00005110       IID_IDirectXFileEnumObject 0000000140039110     dxguid:dxguid.obj
 0003:00005128       IID_IDirectXFileSaveObject 0000000140039128     dxguid:dxguid.obj
 0003:00005140       IID_IDirectXFileObject     0000000140039140     dxguid:dxguid.obj
 0003:00005158       IID_IDirectXFileData       0000000140039158     dxguid:dxguid.obj
 0003:00005170       IID_IDirectXFileDataReference 0000000140039170     dxguid:dxguid.obj
 0003:00005188       IID_IDirectXFileBinary     0000000140039188     dxguid:dxguid.obj
 0003:000051a0       TID_DXFILEHeader           00000001400391a0     dxguid:dxguid.obj
 0003:000051b8       CLSID_DirectInput          00000001400391b8     dxguid:dxguid.obj
 0003:000051d0       CLSID_DirectInputDevice    00000001400391d0     dxguid:dxguid.obj
 0003:000051e8       CLSID_DirectInput8         00000001400391e8     dxguid:dxguid.obj
 0003:00005200       CLSID_DirectInputDevice8   0000000140039200     dxguid:dxguid.obj
 0003:00005218       IID_IDirectInputA          0000000140039218     dxguid:dxguid.obj
 0003:00005230       IID_IDirectInputW          0000000140039230     dxguid:dxguid.obj
 0003:00005248       IID_IDirectInput2A         0000000140039248     dxguid:dxguid.obj
 0003:00005260       IID_IDirectInput2W         0000000140039260     dxguid:dxguid.obj
 0003:00005278       IID_IDirectInput7A         0000000140039278     dxguid:dxguid.obj
 0003:00005290       IID_IDirectInput7W         0000000140039290     dxguid:dxguid.obj
 0003:000052a8       IID_IDirectInput8A         00000001400392a8     dxguid:dxguid.obj
 0003:000052c0       IID_IDirectInput8W         00000001400392c0     dxguid:dxguid.obj
 0003:000052d8       IID_IDirectInputDeviceA    00000001400392d8     dxguid:dxguid.obj
 0003:000052f0       IID_IDirectInputDeviceW    00000001400392f0     dxguid:dxguid.obj
 0003:00005308       IID_IDirectInputDevice2A   0000000140039308     dxguid:dxguid.obj
 0003:00005320       IID_IDirectInputDevice2W   0000000140039320     dxguid:dxguid.obj
 0003:00005338       IID_IDirectInputDevice7A   0000000140039338     dxguid:dxguid.obj
 0003:00005350       IID_IDirectInputDevice7W   0000000140039350     dxguid:dxguid.obj
 0003:00005368       IID_IDirectInputDevice8A   0000000140039368     dxguid:dxguid.obj
 0003:00005380       IID_IDirectInputDevice8W   0000000140039380     dxguid:dxguid.obj
 0003:00005398       IID_IDirectInputEffect     0000000140039398     dxguid:dxguid.obj
 0003:000053b0       GUID_XAxis                 00000001400393b0     dxguid:dxguid.obj
 0003:000053c8       GUID_YAxis                 00000001400393c8     dxguid:dxguid.obj
 0003:000053e0       GUID_ZAxis                 00000001400393e0     dxguid:dxguid.obj
 0003:000053f8       GUID_RxAxis                00000001400393f8     dxguid:dxguid.obj
 0003:00005410       GUID_RyAxis                0000000140039410     dxguid:dxguid.obj
 0003:00005428       GUID_RzAxis                0000000140039428     dxguid:dxguid.obj
 0003:00005440       GUID_Slider                0000000140039440     dxguid:dxguid.obj
 0003:00005458       GUID_Button                0000000140039458     dxguid:dxguid.obj
 0003:00005470       GUID_Key                   0000000140039470     dxguid:dxguid.obj
 0003:00005488       GUID_POV                   0000000140039488     dxguid:dxguid.obj
 0003:000054a0       GUID_Unknown               00000001400394a0     dxguid:dxguid.obj
 0003:000054b8       GUID_SysMouse              00000001400394b8     dxguid:dxguid.obj
 0003:000054d0       GUID_SysKeyboard           00000001400394d0     dxguid:dxguid.obj
 0003:000054e8       GUID_Joystick              00000001400394e8     dxguid:dxguid.obj
 0003:00005500       GUID_SysMouseEm            0000000140039500     dxguid:dxguid.obj
 0003:00005518       GUID_SysMouseEm2           0000000140039518     dxguid:dxguid.obj
 0003:00005530       GUID_SysKeyboardEm         0000000140039530     dxguid:dxguid.obj
 0003:00005548       GUID_SysKeyboardEm2        0000000140039548     dxguid:dxguid.obj
 0003:00005560       GUID_ConstantForce         0000000140039560     dxguid:dxguid.obj
 0003:00005578       GUID_RampForce             0000000140039578     dxguid:dxguid.obj
 0003:00005590       GUID_Square                0000000140039590     dxguid:dxguid.obj
 0003:000055a8       GUID_Sine                  00000001400395a8     dxguid:dxguid.obj
 0003:000055c0       GUID_Triangle              00000001400395c0     dxguid:dxguid.obj
 0003:000055d8       GUID_SawtoothUp            00000001400395d8     dxguid:dxguid.obj
 0003:000055f0       GUID_SawtoothDown          00000001400395f0     dxguid:dxguid.obj
 0003:00005608       GUID_Spring                0000000140039608     dxguid:dxguid.obj
 0003:00005620       GUID_Damper                0000000140039620     dxguid:dxguid.obj
 0003:00005638       GUID_Inertia               0000000140039638     dxguid:dxguid.obj
 0003:00005650       GUID_Friction              0000000140039650     dxguid:dxguid.obj
 0003:00005668       GUID_CustomForce           0000000140039668     dxguid:dxguid.obj
 0003:00005680       GUID_MiscellaneousCallbacks 0000000140039680     dxguid:dxguid.obj
 0003:00005698       GUID_VideoPortCallbacks    0000000140039698     dxguid:dxguid.obj
 0003:000056b0       GUID_ColorControlCallbacks 00000001400396b0     dxguid:dxguid.obj
 0003:000056c8       GUID_VideoPortCaps         00000001400396c8     dxguid:dxguid.obj
 0003:000056e0       GUID_D3DCallbacks2         00000001400396e0     dxguid:dxguid.obj
 0003:000056f8       GUID_D3DCallbacks3         00000001400396f8     dxguid:dxguid.obj
 0003:00005710       GUID_NonLocalVidMemCaps    0000000140039710     dxguid:dxguid.obj
 0003:00005728       GUID_KernelCallbacks       0000000140039728     dxguid:dxguid.obj
 0003:00005740       GUID_KernelCaps            0000000140039740     dxguid:dxguid.obj
 0003:00005758       GUID_D3DExtendedCaps       0000000140039758     dxguid:dxguid.obj
 0003:00005770       GUID_ZPixelFormats         0000000140039770     dxguid:dxguid.obj
 0003:00005788       GUID_DDMoreSurfaceCaps     0000000140039788     dxguid:dxguid.obj
 0003:000057a0       GUID_DDStereoMode          00000001400397a0     dxguid:dxguid.obj
 0003:000057b8       GUID_OptSurfaceKmodeInfo   00000001400397b8     dxguid:dxguid.obj
 0003:000057d0       GUID_OptSurfaceUmodeInfo   00000001400397d0     dxguid:dxguid.obj
 0003:000057e8       GUID_UserModeDriverInfo    00000001400397e8     dxguid:dxguid.obj
 0003:00005800       GUID_UserModeDriverPassword 0000000140039800     dxguid:dxguid.obj
 0003:00005818       GUID_D3DParseUnknownCommandCallback 0000000140039818     dxguid:dxguid.obj
 0003:00005830       GUID_MotionCompCallbacks   0000000140039830     dxguid:dxguid.obj
 0003:00005848       GUID_NTCallbacks           0000000140039848     dxguid:dxguid.obj
 0003:00005860       GUID_Miscellaneous2Callbacks 0000000140039860     dxguid:dxguid.obj
 0003:00005878       GUID_DDMoreCaps            0000000140039878     dxguid:dxguid.obj
 0003:00005890       IID_IDDVideoPortContainer  0000000140039890     dxguid:dxguid.obj
 0003:000058a8       IID_IDirectDrawVideoPort   00000001400398a8     dxguid:dxguid.obj
 0003:000058c0       IID_IDirectDrawVideoPortNotify 00000001400398c0     dxguid:dxguid.obj
 0003:000058d8       DDVPTYPE_E_HREFH_VREFH     00000001400398d8     dxguid:dxguid.obj
 0003:000058f0       DDVPTYPE_E_HREFH_VREFL     00000001400398f0     dxguid:dxguid.obj
 0003:00005908       DDVPTYPE_E_HREFL_VREFH     0000000140039908     dxguid:dxguid.obj
 0003:00005920       DDVPTYPE_E_HREFL_VREFL     0000000140039920     dxguid:dxguid.obj
 0003:00005938       DDVPTYPE_CCIR656           0000000140039938     dxguid:dxguid.obj
 0003:00005950       DDVPTYPE_BROOKTREE         0000000140039950     dxguid:dxguid.obj
 0003:00005968       DDVPTYPE_PHILIPS           0000000140039968     dxguid:dxguid.obj
 0003:00005980       IID_IReferenceClock        0000000140039980     dxguid:dxguid.obj
 0003:00005998       GUID_MAX_POWER_SAVINGS     0000000140039998     dxguid:dxguid.obj
 0003:000059b0       GUID_MIN_POWER_SAVINGS     00000001400399b0     dxguid:dxguid.obj
 0003:000059c8       GUID_TYPICAL_POWER_SAVINGS 00000001400399c8     dxguid:dxguid.obj
 0003:000059e0       NO_SUBGROUP_GUID           00000001400399e0     dxguid:dxguid.obj
 0003:000059f8       ALL_POWERSCHEMES_GUID      00000001400399f8     dxguid:dxguid.obj
 0003:00005a10       GUID_POWERSCHEME_PERSONALITY 0000000140039a10     dxguid:dxguid.obj
 0003:00005a28       GUID_ACTIVE_POWERSCHEME    0000000140039a28     dxguid:dxguid.obj
 0003:00005a40       GUID_IDLE_RESILIENCY_SUBGROUP 0000000140039a40     dxguid:dxguid.obj
 0003:00005a58       GUID_IDLE_RESILIENCY_PERIOD 0000000140039a58     dxguid:dxguid.obj
 0003:00005a70       GUID_DEEP_SLEEP_ENABLED    0000000140039a70     dxguid:dxguid.obj
 0003:00005a88       GUID_DEEP_SLEEP_PLATFORM_STATE 0000000140039a88     dxguid:dxguid.obj
 0003:00005aa0       GUID_DISK_COALESCING_POWERDOWN_TIMEOUT 0000000140039aa0     dxguid:dxguid.obj
 0003:00005ab8       GUID_EXECUTION_REQUIRED_REQUEST_TIMEOUT 0000000140039ab8     dxguid:dxguid.obj
 0003:00005ad0       GUID_VIDEO_SUBGROUP        0000000140039ad0     dxguid:dxguid.obj
 0003:00005ae8       GUID_VIDEO_POWERDOWN_TIMEOUT 0000000140039ae8     dxguid:dxguid.obj
 0003:00005b00       GUID_VIDEO_ANNOYANCE_TIMEOUT 0000000140039b00     dxguid:dxguid.obj
 0003:00005b18       GUID_VIDEO_ADAPTIVE_PERCENT_INCREASE 0000000140039b18     dxguid:dxguid.obj
 0003:00005b30       GUID_VIDEO_DIM_TIMEOUT     0000000140039b30     dxguid:dxguid.obj
 0003:00005b48       GUID_VIDEO_ADAPTIVE_POWERDOWN 0000000140039b48     dxguid:dxguid.obj
 0003:00005b60       GUID_MONITOR_POWER_ON      0000000140039b60     dxguid:dxguid.obj
 0003:00005b78       GUID_DEVICE_POWER_POLICY_VIDEO_BRIGHTNESS 0000000140039b78     dxguid:dxguid.obj
 0003:00005b90       GUID_DEVICE_POWER_POLICY_VIDEO_DIM_BRIGHTNESS 0000000140039b90     dxguid:dxguid.obj
 0003:00005ba8       GUID_VIDEO_CURRENT_MONITOR_BRIGHTNESS 0000000140039ba8     dxguid:dxguid.obj
 0003:00005bc0       GUID_VIDEO_ADAPTIVE_DISPLAY_BRIGHTNESS 0000000140039bc0     dxguid:dxguid.obj
 0003:00005bd8       GUID_CONSOLE_DISPLAY_STATE 0000000140039bd8     dxguid:dxguid.obj
 0003:00005bf0       GUID_ALLOW_DISPLAY_REQUIRED 0000000140039bf0     dxguid:dxguid.obj
 0003:00005c08       IID_IDirectSound           0000000140039c08     dxguid:dxguid.obj
 0003:00005c20       GUID_VIDEO_CONSOLE_LOCK_TIMEOUT 0000000140039c20     dxguid:dxguid.obj
 0003:00005c38       GUID_ADVANCED_COLOR_QUALITY_BIAS 0000000140039c38     dxguid:dxguid.obj
 0003:00005c50       GUID_ADAPTIVE_POWER_BEHAVIOR_SUBGROUP 0000000140039c50     dxguid:dxguid.obj
 0003:00005c68       GUID_NON_ADAPTIVE_INPUT_TIMEOUT 0000000140039c68     dxguid:dxguid.obj
 0003:00005c80       GUID_ADAPTIVE_INPUT_CONTROLLER_STATE 0000000140039c80     dxguid:dxguid.obj
 0003:00005c98       GUID_DISK_SUBGROUP         0000000140039c98     dxguid:dxguid.obj
 0003:00005cb0       GUID_DISK_MAX_POWER        0000000140039cb0     dxguid:dxguid.obj
 0003:00005cc8       GUID_DISK_POWERDOWN_TIMEOUT 0000000140039cc8     dxguid:dxguid.obj
 0003:00005ce0       GUID_DISK_IDLE_TIMEOUT     0000000140039ce0     dxguid:dxguid.obj
 0003:00005cf8       GUID_DISK_BURST_IGNORE_THRESHOLD 0000000140039cf8     dxguid:dxguid.obj
 0003:00005d10       GUID_DISK_ADAPTIVE_POWERDOWN 0000000140039d10     dxguid:dxguid.obj
 0003:00005d28       GUID_SLEEP_SUBGROUP        0000000140039d28     dxguid:dxguid.obj
 0003:00005d40       GUID_SLEEP_IDLE_THRESHOLD  0000000140039d40     dxguid:dxguid.obj
 0003:00005d58       GUID_STANDBY_TIMEOUT       0000000140039d58     dxguid:dxguid.obj
 0003:00005d70       GUID_UNATTEND_SLEEP_TIMEOUT 0000000140039d70     dxguid:dxguid.obj
 0003:00005d88       GUID_HIBERNATE_TIMEOUT     0000000140039d88     dxguid:dxguid.obj
 0003:00005da0       GUID_HIBERNATE_FASTS4_POLICY 0000000140039da0     dxguid:dxguid.obj
 0003:00005db8       GUID_CRITICAL_POWER_TRANSITION 0000000140039db8     dxguid:dxguid.obj
 0003:00005dd0       GUID_SYSTEM_AWAYMODE       0000000140039dd0     dxguid:dxguid.obj
 0003:00005de8       GUID_ALLOW_AWAYMODE        0000000140039de8     dxguid:dxguid.obj
 0003:00005e00       GUID_USER_PRESENCE_PREDICTION 0000000140039e00     dxguid:dxguid.obj
 0003:00005e18       GUID_STANDBY_BUDGET_GRACE_PERIOD 0000000140039e18     dxguid:dxguid.obj
 0003:00005e30       GUID_STANDBY_BUDGET_PERCENT 0000000140039e30     dxguid:dxguid.obj
 0003:00005e48       GUID_STANDBY_RESERVE_GRACE_PERIOD 0000000140039e48     dxguid:dxguid.obj
 0003:00005e60       GUID_STANDBY_RESERVE_TIME  0000000140039e60     dxguid:dxguid.obj
 0003:00005e78       GUID_STANDBY_RESET_PERCENT 0000000140039e78     dxguid:dxguid.obj
 0003:00005e90       GUID_ALLOW_STANDBY_STATES  0000000140039e90     dxguid:dxguid.obj
 0003:00005ea8       GUID_ALLOW_RTC_WAKE        0000000140039ea8     dxguid:dxguid.obj
 0003:00005ec0       GUID_LEGACY_RTC_MITIGATION 0000000140039ec0     dxguid:dxguid.obj
 0003:00005ed8       GUID_ALLOW_SYSTEM_REQUIRED 0000000140039ed8     dxguid:dxguid.obj
 0003:00005ef0       GUID_POWER_SAVING_STATUS   0000000140039ef0     dxguid:dxguid.obj
 0003:00005f08       GUID_ENERGY_SAVER_SUBGROUP 0000000140039f08     dxguid:dxguid.obj
 0003:00005f20       GUID_ENERGY_SAVER_BATTERY_THRESHOLD 0000000140039f20     dxguid:dxguid.obj
 0003:00005f38       GUID_ENERGY_SAVER_BRIGHTNESS 0000000140039f38     dxguid:dxguid.obj
 0003:00005f50       GUID_ENERGY_SAVER_POLICY   0000000140039f50     dxguid:dxguid.obj
 0003:00005f68       GUID_SYSTEM_BUTTON_SUBGROUP 0000000140039f68     dxguid:dxguid.obj
 0003:00005f80       GUID_POWERBUTTON_ACTION    0000000140039f80     dxguid:dxguid.obj
 0003:00005f98       GUID_SLEEPBUTTON_ACTION    0000000140039f98     dxguid:dxguid.obj
 0003:00005fb0       GUID_USERINTERFACEBUTTON_ACTION 0000000140039fb0     dxguid:dxguid.obj
 0003:00005fc8       GUID_LIDCLOSE_ACTION       0000000140039fc8     dxguid:dxguid.obj
 0003:00005fe0       IID_IDirectSound8          0000000140039fe0     dxguid:dxguid.obj
 0003:00005ff8       GUID_LIDOPEN_POWERSTATE    0000000140039ff8     dxguid:dxguid.obj
 0003:00006010       GUID_BATTERY_SUBGROUP      000000014003a010     dxguid:dxguid.obj
 0003:00006028       GUID_BATTERY_DISCHARGE_ACTION_0 000000014003a028     dxguid:dxguid.obj
 0003:00006040       GUID_BATTERY_DISCHARGE_LEVEL_0 000000014003a040     dxguid:dxguid.obj
 0003:00006058       GUID_BATTERY_DISCHARGE_FLAGS_0 000000014003a058     dxguid:dxguid.obj
 0003:00006070       GUID_BATTERY_DISCHARGE_ACTION_1 000000014003a070     dxguid:dxguid.obj
 0003:00006088       GUID_BATTERY_DISCHARGE_LEVEL_1 000000014003a088     dxguid:dxguid.obj
 0003:000060a0       GUID_BATTERY_DISCHARGE_FLAGS_1 000000014003a0a0     dxguid:dxguid.obj
 0003:000060b8       GUID_BATTERY_DISCHARGE_ACTION_2 000000014003a0b8     dxguid:dxguid.obj
 0003:000060d0       GUID_BATTERY_DISCHARGE_LEVEL_2 000000014003a0d0     dxguid:dxguid.obj
 0003:000060e8       GUID_BATTERY_DISCHARGE_FLAGS_2 000000014003a0e8     dxguid:dxguid.obj
 0003:00006100       GUID_BATTERY_DISCHARGE_ACTION_3 000000014003a100     dxguid:dxguid.obj
 0003:00006118       GUID_BATTERY_DISCHARGE_LEVEL_3 000000014003a118     dxguid:dxguid.obj
 0003:00006130       GUID_BATTERY_DISCHARGE_FLAGS_3 000000014003a130     dxguid:dxguid.obj
 0003:00006148       GUID_PROCESSOR_SETTINGS_SUBGROUP 000000014003a148     dxguid:dxguid.obj
 0003:00006160       GUID_PROCESSOR_THROTTLE_POLICY 000000014003a160     dxguid:dxguid.obj
 0003:00006178       GUID_PROCESSOR_THROTTLE_MAXIMUM 000000014003a178     dxguid:dxguid.obj
 0003:00006190       GUID_PROCESSOR_THROTTLE_MAXIMUM_1 000000014003a190     dxguid:dxguid.obj
 0003:000061a8       GUID_PROCESSOR_THROTTLE_MINIMUM 000000014003a1a8     dxguid:dxguid.obj
 0003:000061c0       GUID_PROCESSOR_THROTTLE_MINIMUM_1 000000014003a1c0     dxguid:dxguid.obj
 0003:000061d8       GUID_PROCESSOR_FREQUENCY_LIMIT 000000014003a1d8     dxguid:dxguid.obj
 0003:000061f0       GUID_PROCESSOR_FREQUENCY_LIMIT_1 000000014003a1f0     dxguid:dxguid.obj
 0003:00006208       GUID_PROCESSOR_ALLOW_THROTTLING 000000014003a208     dxguid:dxguid.obj
 0003:00006220       GUID_PROCESSOR_IDLESTATE_POLICY 000000014003a220     dxguid:dxguid.obj
 0003:00006238       GUID_PROCESSOR_PERFSTATE_POLICY 000000014003a238     dxguid:dxguid.obj
 0003:00006250       GUID_PROCESSOR_PERF_INCREASE_THRESHOLD 000000014003a250     dxguid:dxguid.obj
 0003:00006268       GUID_PROCESSOR_PERF_INCREASE_THRESHOLD_1 000000014003a268     dxguid:dxguid.obj
 0003:00006280       GUID_PROCESSOR_PERF_DECREASE_THRESHOLD 000000014003a280     dxguid:dxguid.obj
 0003:00006298       GUID_PROCESSOR_PERF_DECREASE_THRESHOLD_1 000000014003a298     dxguid:dxguid.obj
 0003:000062b0       GUID_PROCESSOR_PERF_INCREASE_POLICY 000000014003a2b0     dxguid:dxguid.obj
 0003:000062c8       GUID_PROCESSOR_PERF_INCREASE_POLICY_1 000000014003a2c8     dxguid:dxguid.obj
 0003:000062e0       GUID_PROCESSOR_PERF_DECREASE_POLICY 000000014003a2e0     dxguid:dxguid.obj
 0003:000062f8       GUID_PROCESSOR_PERF_DECREASE_POLICY_1 000000014003a2f8     dxguid:dxguid.obj
 0003:00006310       GUID_PROCESSOR_PERF_INCREASE_TIME 000000014003a310     dxguid:dxguid.obj
 0003:00006328       GUID_PROCESSOR_PERF_INCREASE_TIME_1 000000014003a328     dxguid:dxguid.obj
 0003:00006340       GUID_PROCESSOR_PERF_DECREASE_TIME 000000014003a340     dxguid:dxguid.obj
 0003:00006358       GUID_PROCESSOR_PERF_DECREASE_TIME_1 000000014003a358     dxguid:dxguid.obj
 0003:00006370       GUID_PROCESSOR_PERF_TIME_CHECK 000000014003a370     dxguid:dxguid.obj
 0003:00006388       GUID_PROCESSOR_PERF_BOOST_POLICY 000000014003a388     dxguid:dxguid.obj
 0003:000063a0       GUID_PROCESSOR_PERF_BOOST_MODE 000000014003a3a0     dxguid:dxguid.obj
 0003:000063b8       GUID_PROCESSOR_PERF_AUTONOMOUS_MODE 000000014003a3b8     dxguid:dxguid.obj
 0003:000063d0       GUID_PROCESSOR_PERF_ENERGY_PERFORMANCE_PREFERENCE 000000014003a3d0     dxguid:dxguid.obj
 0003:000063e8       IID_IDirectSoundBuffer     000000014003a3e8     dxguid:dxguid.obj
 0003:00006400       GUID_PROCESSOR_PERF_ENERGY_PERFORMANCE_PREFERENCE_1 000000014003a400     dxguid:dxguid.obj
 0003:00006418       GUID_PROCESSOR_PERF_AUTONOMOUS_ACTIVITY_WINDOW 000000014003a418     dxguid:dxguid.obj
 0003:00006430       GUID_PROCESSOR_DUTY_CYCLING 000000014003a430     dxguid:dxguid.obj
 0003:00006448       GUID_PROCESSOR_IDLE_ALLOW_SCALING 000000014003a448     dxguid:dxguid.obj
 0003:00006460       GUID_PROCESSOR_IDLE_DISABLE 000000014003a460     dxguid:dxguid.obj
 0003:00006478       GUID_PROCESSOR_IDLE_STATE_MAXIMUM 000000014003a478     dxguid:dxguid.obj
 0003:00006490       GUID_PROCESSOR_IDLE_TIME_CHECK 000000014003a490     dxguid:dxguid.obj
 0003:000064a8       GUID_PROCESSOR_IDLE_DEMOTE_THRESHOLD 000000014003a4a8     dxguid:dxguid.obj
 0003:000064c0       GUID_PROCESSOR_IDLE_PROMOTE_THRESHOLD 000000014003a4c0     dxguid:dxguid.obj
 0003:000064d8       GUID_PROCESSOR_CORE_PARKING_INCREASE_THRESHOLD 000000014003a4d8     dxguid:dxguid.obj
 0003:000064f0       GUID_PROCESSOR_CORE_PARKING_DECREASE_THRESHOLD 000000014003a4f0     dxguid:dxguid.obj
 0003:00006508       GUID_PROCESSOR_CORE_PARKING_INCREASE_POLICY 000000014003a508     dxguid:dxguid.obj
 0003:00006520       GUID_PROCESSOR_CORE_PARKING_DECREASE_POLICY 000000014003a520     dxguid:dxguid.obj
 0003:00006538       GUID_PROCESSOR_CORE_PARKING_MAX_CORES 000000014003a538     dxguid:dxguid.obj
 0003:00006550       GUID_PROCESSOR_CORE_PARKING_MAX_CORES_1 000000014003a550     dxguid:dxguid.obj
 0003:00006568       GUID_PROCESSOR_CORE_PARKING_MIN_CORES 000000014003a568     dxguid:dxguid.obj
 0003:00006580       GUID_PROCESSOR_CORE_PARKING_MIN_CORES_1 000000014003a580     dxguid:dxguid.obj
 0003:00006598       GUID_PROCESSOR_CORE_PARKING_INCREASE_TIME 000000014003a598     dxguid:dxguid.obj
 0003:000065b0       GUID_PROCESSOR_CORE_PARKING_DECREASE_TIME 000000014003a5b0     dxguid:dxguid.obj
 0003:000065c8       GUID_PROCESSOR_CORE_PARKING_AFFINITY_HISTORY_DECREASE_FACTOR 000000014003a5c8     dxguid:dxguid.obj
 0003:000065e0       GUID_PROCESSOR_CORE_PARKING_AFFINITY_HISTORY_THRESHOLD 000000014003a5e0     dxguid:dxguid.obj
 0003:000065f8       GUID_PROCESSOR_CORE_PARKING_AFFINITY_WEIGHTING 000000014003a5f8     dxguid:dxguid.obj
 0003:00006610       GUID_PROCESSOR_CORE_PARKING_OVER_UTILIZATION_HISTORY_DECREASE_FACTOR 000000014003a610     dxguid:dxguid.obj
 0003:00006628       GUID_PROCESSOR_CORE_PARKING_OVER_UTILIZATION_HISTORY_THRESHOLD 000000014003a628     dxguid:dxguid.obj
 0003:00006640       GUID_PROCESSOR_CORE_PARKING_OVER_UTILIZATION_WEIGHTING 000000014003a640     dxguid:dxguid.obj
 0003:00006658       GUID_PROCESSOR_CORE_PARKING_OVER_UTILIZATION_THRESHOLD 000000014003a658     dxguid:dxguid.obj
 0003:00006670       GUID_PROCESSOR_PARKING_CORE_OVERRIDE 000000014003a670     dxguid:dxguid.obj
 0003:00006688       GUID_PROCESSOR_PARKING_PERF_STATE 000000014003a688     dxguid:dxguid.obj
 0003:000066a0       GUID_PROCESSOR_PARKING_PERF_STATE_1 000000014003a6a0     dxguid:dxguid.obj
 0003:000066b8       GUID_PROCESSOR_PARKING_CONCURRENCY_THRESHOLD 000000014003a6b8     dxguid:dxguid.obj
 0003:000066d0       GUID_PROCESSOR_PARKING_HEADROOM_THRESHOLD 000000014003a6d0     dxguid:dxguid.obj
 0003:000066e8       GUID_PROCESSOR_PARKING_DISTRIBUTION_THRESHOLD 000000014003a6e8     dxguid:dxguid.obj
 0003:00006700       GUID_PROCESSOR_PERF_HISTORY 000000014003a700     dxguid:dxguid.obj
 0003:00006718       GUID_PROCESSOR_PERF_HISTORY_1 000000014003a718     dxguid:dxguid.obj
 0003:00006730       GUID_PROCESSOR_PERF_INCREASE_HISTORY 000000014003a730     dxguid:dxguid.obj
 0003:00006748       GUID_PROCESSOR_PERF_DECREASE_HISTORY 000000014003a748     dxguid:dxguid.obj
 0003:00006760       GUID_PROCESSOR_PERF_CORE_PARKING_HISTORY 000000014003a760     dxguid:dxguid.obj
 0003:00006778       GUID_PROCESSOR_PERF_LATENCY_HINT 000000014003a778     dxguid:dxguid.obj
 0003:00006790       GUID_PROCESSOR_PERF_LATENCY_HINT_PERF 000000014003a790     dxguid:dxguid.obj
 0003:000067a8       GUID_PROCESSOR_PERF_LATENCY_HINT_PERF_1 000000014003a7a8     dxguid:dxguid.obj
 0003:000067c0       GUID_PROCESSOR_LATENCY_HINT_MIN_UNPARK 000000014003a7c0     dxguid:dxguid.obj
 0003:000067d8       GUID_PROCESSOR_LATENCY_HINT_MIN_UNPARK_1 000000014003a7d8     dxguid:dxguid.obj
 0003:000067f0       IID_IDirectInputEffectDriver 000000014003a7f0     dxguid:dxguid.obj
 0003:00006808       GUID_PROCESSOR_DISTRIBUTE_UTILITY 000000014003a808     dxguid:dxguid.obj
 0003:00006820       IID_IDirectInputJoyConfig  000000014003a820     dxguid:dxguid.obj
 0003:00006838       GUID_PROCESSOR_HETEROGENEOUS_POLICY 000000014003a838     dxguid:dxguid.obj
 0003:00006850       IID_IDirectInputPIDDriver  000000014003a850     dxguid:dxguid.obj
 0003:00006868       GUID_PROCESSOR_HETERO_DECREASE_TIME 000000014003a868     dxguid:dxguid.obj
 0003:00006880       IID_IDirectInputJoyConfig8 000000014003a880     dxguid:dxguid.obj
 0003:00006898       GUID_PROCESSOR_HETERO_INCREASE_TIME 000000014003a898     dxguid:dxguid.obj
 0003:000068b0       GUID_PROCESSOR_HETERO_DECREASE_THRESHOLD 000000014003a8b0     dxguid:dxguid.obj
 0003:000068c8       GUID_PROCESSOR_HETERO_INCREASE_THRESHOLD 000000014003a8c8     dxguid:dxguid.obj
 0003:000068e0       GUID_PROCESSOR_CLASS0_FLOOR_PERF 000000014003a8e0     dxguid:dxguid.obj
 0003:000068f8       GUID_PROCESSOR_CLASS1_INITIAL_PERF 000000014003a8f8     dxguid:dxguid.obj
 0003:00006910       GUID_PROCESSOR_THREAD_SCHEDULING_POLICY 000000014003a910     dxguid:dxguid.obj
 0003:00006928       GUID_PROCESSOR_SHORT_THREAD_SCHEDULING_POLICY 000000014003a928     dxguid:dxguid.obj
 0003:00006940       GUID_SYSTEM_COOLING_POLICY 000000014003a940     dxguid:dxguid.obj
 0003:00006958       GUID_PROCESSOR_RESPONSIVENESS_DISABLE_THRESHOLD 000000014003a958     dxguid:dxguid.obj
 0003:00006970       GUID_PROCESSOR_RESPONSIVENESS_DISABLE_THRESHOLD_1 000000014003a970     dxguid:dxguid.obj
 0003:00006988       GUID_PROCESSOR_RESPONSIVENESS_ENABLE_THRESHOLD 000000014003a988     dxguid:dxguid.obj
 0003:000069a0       GUID_PROCESSOR_RESPONSIVENESS_ENABLE_THRESHOLD_1 000000014003a9a0     dxguid:dxguid.obj
 0003:000069b8       GUID_PROCESSOR_RESPONSIVENESS_DISABLE_TIME 000000014003a9b8     dxguid:dxguid.obj
 0003:000069d0       GUID_PROCESSOR_RESPONSIVENESS_DISABLE_TIME_1 000000014003a9d0     dxguid:dxguid.obj
 0003:000069e8       GUID_PROCESSOR_RESPONSIVENESS_ENABLE_TIME 000000014003a9e8     dxguid:dxguid.obj
 0003:00006a00       GUID_PROCESSOR_RESPONSIVENESS_ENABLE_TIME_1 000000014003aa00     dxguid:dxguid.obj
 0003:00006a18       GUID_PROCESSOR_RESPONSIVENESS_EPP_CEILING 000000014003aa18     dxguid:dxguid.obj
 0003:00006a30       GUID_PROCESSOR_RESPONSIVENESS_EPP_CEILING_1 000000014003aa30     dxguid:dxguid.obj
 0003:00006a48       GUID_PROCESSOR_RESPONSIVENESS_PERF_FLOOR 000000014003aa48     dxguid:dxguid.obj
 0003:00006a60       GUID_PROCESSOR_RESPONSIVENESS_PERF_FLOOR_1 000000014003aa60     dxguid:dxguid.obj
 0003:00006a78       GUID_LOCK_CONSOLE_ON_WAKE  000000014003aa78     dxguid:dxguid.obj
 0003:00006a90       GUID_DEVICE_IDLE_POLICY    000000014003aa90     dxguid:dxguid.obj
 0003:00006aa8       GUID_CONNECTIVITY_IN_STANDBY 000000014003aaa8     dxguid:dxguid.obj
 0003:00006ac0       GUID_DISCONNECTED_STANDBY_MODE 000000014003aac0     dxguid:dxguid.obj
 0003:00006ad8       GUID_ACDC_POWER_SOURCE     000000014003aad8     dxguid:dxguid.obj
 0003:00006af0       GUID_LIDSWITCH_STATE_CHANGE 000000014003aaf0     dxguid:dxguid.obj
 0003:00006b08       IID_IDirectSoundBuffer8    000000014003ab08     dxguid:dxguid.obj
 0003:00006b20       GUID_BATTERY_PERCENTAGE_REMAINING 000000014003ab20     dxguid:dxguid.obj
 0003:00006b38       GUID_BATTERY_COUNT         000000014003ab38     dxguid:dxguid.obj
 0003:00006b50       GUID_GLOBAL_USER_PRESENCE  000000014003ab50     dxguid:dxguid.obj
 0003:00006b68       GUID_SESSION_DISPLAY_STATUS 000000014003ab68     dxguid:dxguid.obj
 0003:00006b80       GUID_SESSION_USER_PRESENCE 000000014003ab80     dxguid:dxguid.obj
 0003:00006b98       GUID_IDLE_BACKGROUND_TASK  000000014003ab98     dxguid:dxguid.obj
 0003:00006bb0       GUID_BACKGROUND_TASK_NOTIFICATION 000000014003abb0     dxguid:dxguid.obj
 0003:00006bc8       GUID_APPLAUNCH_BUTTON      000000014003abc8     dxguid:dxguid.obj
 0003:00006be0       GUID_PCIEXPRESS_SETTINGS_SUBGROUP 000000014003abe0     dxguid:dxguid.obj
 0003:00006bf8       GUID_PCIEXPRESS_ASPM_POLICY 000000014003abf8     dxguid:dxguid.obj
 0003:00006c10       GUID_ENABLE_SWITCH_FORCED_SHUTDOWN 000000014003ac10     dxguid:dxguid.obj
 0003:00006c28       GUID_INTSTEER_SUBGROUP     000000014003ac28     dxguid:dxguid.obj
 0003:00006c40       GUID_INTSTEER_MODE         000000014003ac40     dxguid:dxguid.obj
 0003:00006c58       GUID_INTSTEER_LOAD_PER_PROC_TRIGGER 000000014003ac58     dxguid:dxguid.obj
 0003:00006c70       GUID_INTSTEER_TIME_UNPARK_TRIGGER 000000014003ac70     dxguid:dxguid.obj
 0003:00006c88       GUID_GRAPHICS_SUBGROUP     000000014003ac88     dxguid:dxguid.obj
 0003:00006ca0       GUID_GPU_PREFERENCE_POLICY 000000014003aca0     dxguid:dxguid.obj
 0003:00006cb8       GUID_MIXED_REALITY_MODE    000000014003acb8     dxguid:dxguid.obj
 0003:00006cd0       GUID_SPR_ACTIVE_SESSION_CHANGE 000000014003acd0     dxguid:dxguid.obj
 0003:00006ce8       GUID_All_Objects           000000014003ace8     dxguid:dxguid.obj
 0003:00006d00       IID_IDirectSound3DListener 000000014003ad00     dxguid:dxguid.obj
 0003:00006d18       IID_IDirect3D              000000014003ad18     dxguid:dxguid.obj
 0003:00006d30       IID_IDirect3D2             000000014003ad30     dxguid:dxguid.obj
 0003:00006d48       IID_IDirect3D3             000000014003ad48     dxguid:dxguid.obj
 0003:00006d60       IID_IDirect3D7             000000014003ad60     dxguid:dxguid.obj
 0003:00006d78       IID_IDirect3DRampDevice    000000014003ad78     dxguid:dxguid.obj
 0003:00006d90       IID_IDirect3DRGBDevice     000000014003ad90     dxguid:dxguid.obj
 0003:00006da8       IID_IDirect3DHALDevice     000000014003ada8     dxguid:dxguid.obj
 0003:00006dc0       IID_IDirect3DMMXDevice     000000014003adc0     dxguid:dxguid.obj
 0003:00006dd8       IID_IDirect3DRefDevice     000000014003add8     dxguid:dxguid.obj
 0003:00006df0       IID_IDirect3DNullDevice    000000014003adf0     dxguid:dxguid.obj
 0003:00006e08       IID_IDirect3DTnLHalDevice  000000014003ae08     dxguid:dxguid.obj
 0003:00006e20       IID_IDirect3DDevice        000000014003ae20     dxguid:dxguid.obj
 0003:00006e38       IID_IDirect3DDevice2       000000014003ae38     dxguid:dxguid.obj
 0003:00006e50       IID_IDirect3DDevice3       000000014003ae50     dxguid:dxguid.obj
 0003:00006e68       IID_IDirect3DDevice7       000000014003ae68     dxguid:dxguid.obj
 0003:00006e80       IID_IDirect3DTexture       000000014003ae80     dxguid:dxguid.obj
 0003:00006e98       IID_IDirect3DTexture2      000000014003ae98     dxguid:dxguid.obj
 0003:00006eb0       IID_IDirect3DLight         000000014003aeb0     dxguid:dxguid.obj
 0003:00006ec8       IID_IDirect3DMaterial      000000014003aec8     dxguid:dxguid.obj
 0003:00006ee0       IID_IDirect3DMaterial2     000000014003aee0     dxguid:dxguid.obj
 0003:00006ef8       IID_IDirect3DMaterial3     000000014003aef8     dxguid:dxguid.obj
 0003:00006f10       IID_IDirect3DExecuteBuffer 000000014003af10     dxguid:dxguid.obj
 0003:00006f28       IID_IDirect3DViewport      000000014003af28     dxguid:dxguid.obj
 0003:00006f40       IID_IDirect3DViewport2     000000014003af40     dxguid:dxguid.obj
 0003:00006f58       IID_IDirect3DViewport3     000000014003af58     dxguid:dxguid.obj
 0003:00006f70       IID_IDirect3DVertexBuffer  000000014003af70     dxguid:dxguid.obj
 0003:00006f88       IID_IDirect3DVertexBuffer7 000000014003af88     dxguid:dxguid.obj
 0003:00006fa0       IID_IDirectSound3DBuffer   000000014003afa0     dxguid:dxguid.obj
 0003:00006fb8       CLSID_DirectPlay8LobbiedApplication 000000014003afb8     dxguid:dxguid.obj
 0003:00006fd0       CLSID_DirectPlay8LobbyClient 000000014003afd0     dxguid:dxguid.obj
 0003:00006fe8       IID_IDirectPlay8LobbiedApplication 000000014003afe8     dxguid:dxguid.obj
 0003:00007000       IID_IDirectPlay8LobbyClient 000000014003b000     dxguid:dxguid.obj
 0003:00007018       IID_IDirectSoundCapture    000000014003b018     dxguid:dxguid.obj
 0003:00007030       DPLPROPERTY_MessagesSupported 000000014003b030     dxguid:dxguid.obj
 0003:00007048       DPLPROPERTY_LobbyGuid      000000014003b048     dxguid:dxguid.obj
 0003:00007060       DPLPROPERTY_PlayerGuid     000000014003b060     dxguid:dxguid.obj
 0003:00007078       DPLPROPERTY_PlayerScore    000000014003b078     dxguid:dxguid.obj
 0003:00007090       IID_IDirectSoundCaptureBuffer 000000014003b090     dxguid:dxguid.obj
 0003:000070a8       IID_IDirectPlay2           000000014003b0a8     dxguid:dxguid.obj
 0003:000070c0       IID_IDirectPlay2A          000000014003b0c0     dxguid:dxguid.obj
 0003:000070d8       IID_IDirectPlay3           000000014003b0d8     dxguid:dxguid.obj
 0003:000070f0       DPAID_TotalSize            000000014003b0f0     dxguid:dxguid.obj
 0003:00007108       IID_IDirectPlay3A          000000014003b108     dxguid:dxguid.obj
 0003:00007120       IID_IDirectPlay4           000000014003b120     dxguid:dxguid.obj
 0003:00007138       DPAID_ServiceProvider      000000014003b138     dxguid:dxguid.obj
 0003:00007150       IID_IDirectPlay4A          000000014003b150     dxguid:dxguid.obj
 0003:00007168       DPAID_LobbyProvider        000000014003b168     dxguid:dxguid.obj
 0003:00007180       CLSID_DirectPlay           000000014003b180     dxguid:dxguid.obj
 0003:00007198       DPAID_Phone                000000014003b198     dxguid:dxguid.obj
 0003:000071b0       DPAID_PhoneW               000000014003b1b0     dxguid:dxguid.obj
 0003:000071c8       DPSPGUID_IPX               000000014003b1c8     dxguid:dxguid.obj
 0003:000071e0       DPSPGUID_TCPIP             000000014003b1e0     dxguid:dxguid.obj
 0003:000071f8       DPAID_Modem                000000014003b1f8     dxguid:dxguid.obj
 0003:00007210       DPAID_ModemW               000000014003b210     dxguid:dxguid.obj
 0003:00007228       DPSPGUID_SERIAL            000000014003b228     dxguid:dxguid.obj
 0003:00007240       DPSPGUID_MODEM             000000014003b240     dxguid:dxguid.obj
 0003:00007258       DPAID_INet                 000000014003b258     dxguid:dxguid.obj
 0003:00007270       DPAID_INetW                000000014003b270     dxguid:dxguid.obj
 0003:00007288       DPAID_INetPort             000000014003b288     dxguid:dxguid.obj
 0003:000072a0       IID_IDirectSoundCaptureBuffer8 000000014003b2a0     dxguid:dxguid.obj
 0003:000072b8       DPAID_ComPort              000000014003b2b8     dxguid:dxguid.obj
 0003:000072d0       CLSID_DirectPlay8Address   000000014003b2d0     dxguid:dxguid.obj
 0003:000072e8       IID_IDirectPlay8Address    000000014003b2e8     dxguid:dxguid.obj
 0003:00007300       IID_IDirectPlay8AddressIP  000000014003b300     dxguid:dxguid.obj
 0003:00007318       IID_IDirectSoundNotify     000000014003b318     dxguid:dxguid.obj
 0003:00007330       IID_IKsPropertySet         000000014003b330     dxguid:dxguid.obj
 0003:00007348       GUID_KeyboardClass         000000014003b348     dxguid:dxguid.obj
 0003:00007360       GUID_MediaClass            000000014003b360     dxguid:dxguid.obj
 0003:00007378       GUID_MouseClass            000000014003b378     dxguid:dxguid.obj
 0003:00007390       GUID_HIDClass              000000014003b390     dxguid:dxguid.obj
 0003:000073a8       IID_IDirectSoundFXGargle   000000014003b3a8     dxguid:dxguid.obj
 0003:000073c0       GUID_NULL                  000000014003b3c0     uuid:cguid_i.obj
 0003:000073d8       CATID_MARSHALER            000000014003b3d8     uuid:cguid_i.obj
 0003:000073f0       IID_IRpcChannel            000000014003b3f0     uuid:cguid_i.obj
 0003:00007408       IID_IRpcStub               000000014003b408     uuid:cguid_i.obj
 0003:00007420       IID_IStubManager           000000014003b420     uuid:cguid_i.obj
 0003:00007438       IID_IRpcProxy              000000014003b438     uuid:cguid_i.obj
 0003:00007450       IID_IProxyManager          000000014003b450     uuid:cguid_i.obj
 0003:00007468       IID_IPSFactory             000000014003b468     uuid:cguid_i.obj
 0003:00007480       IID_IInternalMoniker       000000014003b480     uuid:cguid_i.obj
 0003:00007498       IID_IDfReserved1           000000014003b498     uuid:cguid_i.obj
 0003:000074b0       IID_IDfReserved2           000000014003b4b0     uuid:cguid_i.obj
 0003:000074c8       IID_IDfReserved3           000000014003b4c8     uuid:cguid_i.obj
 0003:000074e0       CLSID_StdMarshal           000000014003b4e0     uuid:cguid_i.obj
 0003:000074f8       IID_IStub                  000000014003b4f8     uuid:cguid_i.obj
 0003:00007510       IID_IProxy                 000000014003b510     uuid:cguid_i.obj
 0003:00007528       IID_IEnumGeneric           000000014003b528     uuid:cguid_i.obj
 0003:00007540       IID_IEnumHolder            000000014003b540     uuid:cguid_i.obj
 0003:00007558       IID_IEnumCallback          000000014003b558     uuid:cguid_i.obj
 0003:00007570       IID_IOleManager            000000014003b570     uuid:cguid_i.obj
 0003:00007588       IID_IOlePresObj            000000014003b588     uuid:cguid_i.obj
 0003:000075a0       IID_IDebug                 000000014003b5a0     uuid:cguid_i.obj
 0003:000075b8       IID_IDebugStream           000000014003b5b8     uuid:cguid_i.obj
 0003:000075d0       CLSID_PSGenObject          000000014003b5d0     uuid:cguid_i.obj
 0003:000075e8       CLSID_PSClientSite         000000014003b5e8     uuid:cguid_i.obj
 0003:00007600       CLSID_PSClassObject        000000014003b600     uuid:cguid_i.obj
 0003:00007618       CLSID_PSInPlaceActive      000000014003b618     uuid:cguid_i.obj
 0003:00007630       CLSID_PSInPlaceFrame       000000014003b630     uuid:cguid_i.obj
 0003:00007648       CLSID_PSDragDrop           000000014003b648     uuid:cguid_i.obj
 0003:00007660       CLSID_PSBindCtx            000000014003b660     uuid:cguid_i.obj
 0003:00007678       CLSID_PSEnumerators        000000014003b678     uuid:cguid_i.obj
 0003:00007690       CLSID_StaticMetafile       000000014003b690     uuid:cguid_i.obj
 0003:000076a8       CLSID_StaticDib            000000014003b6a8     uuid:cguid_i.obj
 0003:000076c0       CLSID_Picture_Metafile     000000014003b6c0     uuid:cguid_i.obj
 0003:000076d8       CLSID_Picture_EnhMetafile  000000014003b6d8     uuid:cguid_i.obj
 0003:000076f0       CLSID_Picture_Dib          000000014003b6f0     uuid:cguid_i.obj
 0003:00007708       CLSID_DCOMAccessControl    000000014003b708     uuid:cguid_i.obj
 0003:00007720       CLSID_StdGlobalInterfaceTable 000000014003b720     uuid:cguid_i.obj
 0003:00007738       CLSID_ManualResetEvent     000000014003b738     uuid:cguid_i.obj
 0003:00007750       CLSID_StdEvent             000000014003b750     uuid:cguid_i.obj
 0003:00007768       CLSID_SynchronizeContainer 000000014003b768     uuid:cguid_i.obj
 0003:00007780       CLSID_ComBinding           000000014003b780     uuid:cguid_i.obj
 0003:00007798       CLSID_StdAsyncActManager   000000014003b798     uuid:cguid_i.obj
 0003:000077b0       CLSID_InProcFreeMarshaler  000000014003b7b0     uuid:cguid_i.obj
 0003:000077c8       CLSID_RemoteUnknownPSFactory 000000014003b7c8     uuid:cguid_i.obj
 0003:000077e0       IID_IRichEditOle           000000014003b7e0     uuid:cguid_i.obj
 0003:000077f8       IID_IRichEditOleCallback   000000014003b7f8     uuid:cguid_i.obj
 0003:00007810       CLSID_AllClasses           000000014003b810     uuid:cguid_i.obj
 0003:00007828       CLSID_LocalMachineClasses  000000014003b828     uuid:cguid_i.obj
 0003:00007840       CLSID_CurrentUserClasses   000000014003b840     uuid:cguid_i.obj
 0003:00007858       CLSID_AddrControl          000000014003b858     uuid:cguid_i.obj
 0003:00007870       CLSID_GlobalOptions        000000014003b870     uuid:cguid_i.obj
 0003:00007888       CLSID_SurrogateManager     000000014003b888     uuid:cguid_i.obj
 0003:000078a0       CLSID_ContextSwitcher      000000014003b8a0     uuid:cguid_i.obj
 0003:000078b8       CLSID_ActivationStore      000000014003b8b8     uuid:cguid_i.obj
 0003:000078d0       IID_IPropertyFrame         000000014003b8d0     uuid:cguid_i.obj
 0003:000078e8       CLSID_CFontPropPage        000000014003b8e8     uuid:cguid_i.obj
 0003:00007900       CLSID_CColorPropPage       000000014003b900     uuid:cguid_i.obj
 0003:00007918       CLSID_CPicturePropPage     000000014003b918     uuid:cguid_i.obj
 0003:00007930       CLSID_StockFontPage        000000014003b930     uuid:cguid_i.obj
 0003:00007948       CLSID_StockColorPage       000000014003b948     uuid:cguid_i.obj
 0003:00007960       CLSID_StockPicturePage     000000014003b960     uuid:cguid_i.obj
 0003:00007978       CLSID_PersistPropset       000000014003b978     uuid:cguid_i.obj
 0003:00007990       CLSID_ConvertVBX           000000014003b990     uuid:cguid_i.obj
 0003:000079a8       CLSID_StdFont              000000014003b9a8     uuid:cguid_i.obj
 0003:000079c0       CLSID_StdPicture           000000014003b9c0     uuid:cguid_i.obj
 0003:000079d8       GUID_HIMETRIC              000000014003b9d8     uuid:cguid_i.obj
 0003:000079f0       GUID_COLOR                 000000014003b9f0     uuid:cguid_i.obj
 0003:00007a08       GUID_XPOSPIXEL             000000014003ba08     uuid:cguid_i.obj
 0003:00007a20       GUID_YPOSPIXEL             000000014003ba20     uuid:cguid_i.obj
 0003:00007a38       GUID_XSIZEPIXEL            000000014003ba38     uuid:cguid_i.obj
 0003:00007a50       GUID_YSIZEPIXEL            000000014003ba50     uuid:cguid_i.obj
 0003:00007a68       GUID_XPOS                  000000014003ba68     uuid:cguid_i.obj
 0003:00007a80       GUID_YPOS                  000000014003ba80     uuid:cguid_i.obj
 0003:00007a98       GUID_XSIZE                 000000014003ba98     uuid:cguid_i.obj
 0003:00007ab0       GUID_YSIZE                 000000014003bab0     uuid:cguid_i.obj
 0003:00007ac8       GUID_TRISTATE              000000014003bac8     uuid:cguid_i.obj
 0003:00007ae0       GUID_OPTIONVALUEEXCLUSIVE  000000014003bae0     uuid:cguid_i.obj
 0003:00007af8       GUID_CHECKVALUEEXCLUSIVE   000000014003baf8     uuid:cguid_i.obj
 0003:00007b10       GUID_FONTNAME              000000014003bb10     uuid:cguid_i.obj
 0003:00007b28       GUID_FONTSIZE              000000014003bb28     uuid:cguid_i.obj
 0003:00007b40       GUID_FONTBOLD              000000014003bb40     uuid:cguid_i.obj
 0003:00007b58       GUID_FONTITALIC            000000014003bb58     uuid:cguid_i.obj
 0003:00007b70       GUID_FONTUNDERSCORE        000000014003bb70     uuid:cguid_i.obj
 0003:00007b88       GUID_FONTSTRIKETHROUGH     000000014003bb88     uuid:cguid_i.obj
 0003:00007ba0       GUID_HANDLE                000000014003bba0     uuid:cguid_i.obj
 0003:00007bb8       IID_StdOle                 000000014003bbb8     uuid:cguid_i.obj
 0003:00007bd0       IID_ICursor                000000014003bbd0     uuid:cguid_i.obj
 0003:00007be8       IID_ICursorMove            000000014003bbe8     uuid:cguid_i.obj
 0003:00007c00       IID_ICursorScroll          000000014003bc00     uuid:cguid_i.obj
 0003:00007c18       IID_ICursorUpdateARow      000000014003bc18     uuid:cguid_i.obj
 0003:00007c30       IID_INotifyDBEvents        000000014003bc30     uuid:cguid_i.obj
 0003:00007c48       IID_ICursorFind            000000014003bc48     uuid:cguid_i.obj
 0003:00007c60       IID_IEntryID               000000014003bc60     uuid:cguid_i.obj
 0003:00007c78       _GUID_NAMEONLY             000000014003bc78     uuid:cguid_i.obj
 0003:00007c90       _DBBMKGUID                 000000014003bc90     uuid:cguid_i.obj
 0003:00007ca8       _DBCIDGUID                 000000014003bca8     uuid:cguid_i.obj
 0003:00007cc0       IID_IBoundObject           000000014003bcc0     uuid:cguid_i.obj
 0003:00007cd8       IID_IBoundObjectSite       000000014003bcd8     uuid:cguid_i.obj
 0003:00007cf0       CLSID_GblComponentCategoriesMgr 000000014003bcf0     uuid:cguid_i.obj
 0003:00007d08       CLSID_ThumbnailFCNHandler  000000014003bd08     uuid:cguid_i.obj
 0003:00007d20       CLSID_ThumbnailUpdater     000000014003bd20     uuid:cguid_i.obj
 0003:00007d38       IID_ICallbackWithNoReentrancyToApplicationSTA 000000014003bd38     uuid:cguid_i.obj
 0003:00007d50       CLSID_TypeLibRegistrationReader 000000014003bd50     uuid:cguid_i.obj
 0003:00007d68       GUID_DEVCLASS_1394         000000014003bd68     uuid:cguid_i.obj
 0003:00007d80       GUID_DEVCLASS_1394DEBUG    000000014003bd80     uuid:cguid_i.obj
 0003:00007d98       GUID_DEVCLASS_61883        000000014003bd98     uuid:cguid_i.obj
 0003:00007db0       GUID_DEVCLASS_ADAPTER      000000014003bdb0     uuid:cguid_i.obj
 0003:00007dc8       GUID_DEVCLASS_APMSUPPORT   000000014003bdc8     uuid:cguid_i.obj
 0003:00007de0       GUID_DEVCLASS_AVC          000000014003bde0     uuid:cguid_i.obj
 0003:00007df8       GUID_DEVCLASS_BATTERY      000000014003bdf8     uuid:cguid_i.obj
 0003:00007e10       GUID_DEVCLASS_BIOMETRIC    000000014003be10     uuid:cguid_i.obj
 0003:00007e28       GUID_DEVCLASS_BLUETOOTH    000000014003be28     uuid:cguid_i.obj
 0003:00007e40       GUID_DEVCLASS_CAMERA       000000014003be40     uuid:cguid_i.obj
 0003:00007e58       GUID_DEVCLASS_CDROM        000000014003be58     uuid:cguid_i.obj
 0003:00007e70       GUID_DEVCLASS_COMPUTER     000000014003be70     uuid:cguid_i.obj
 0003:00007e88       GUID_DEVCLASS_DECODER      000000014003be88     uuid:cguid_i.obj
 0003:00007ea0       GUID_DEVCLASS_DISKDRIVE    000000014003bea0     uuid:cguid_i.obj
 0003:00007eb8       GUID_DEVCLASS_DISPLAY      000000014003beb8     uuid:cguid_i.obj
 0003:00007ed0       GUID_DEVCLASS_DOT4         000000014003bed0     uuid:cguid_i.obj
 0003:00007ee8       GUID_DEVCLASS_DOT4PRINT    000000014003bee8     uuid:cguid_i.obj
 0003:00007f00       GUID_DEVCLASS_EHSTORAGESILO 000000014003bf00     uuid:cguid_i.obj
 0003:00007f18       GUID_DEVCLASS_ENUM1394     000000014003bf18     uuid:cguid_i.obj
 0003:00007f30       GUID_DEVCLASS_EXTENSION    000000014003bf30     uuid:cguid_i.obj
 0003:00007f48       GUID_DEVCLASS_FDC          000000014003bf48     uuid:cguid_i.obj
 0003:00007f60       GUID_DEVCLASS_FIRMWARE     000000014003bf60     uuid:cguid_i.obj
 0003:00007f78       GUID_DEVCLASS_FLOPPYDISK   000000014003bf78     uuid:cguid_i.obj
 0003:00007f90       GUID_DEVCLASS_GPS          000000014003bf90     uuid:cguid_i.obj
 0003:00007fa8       GUID_DEVCLASS_HDC          000000014003bfa8     uuid:cguid_i.obj
 0003:00007fc0       GUID_DEVCLASS_HIDCLASS     000000014003bfc0     uuid:cguid_i.obj
 0003:00007fd8       GUID_DEVCLASS_HOLOGRAPHIC  000000014003bfd8     uuid:cguid_i.obj
 0003:00007ff0       GUID_DEVCLASS_IMAGE        000000014003bff0     uuid:cguid_i.obj
 0003:00008008       GUID_DEVCLASS_INFINIBAND   000000014003c008     uuid:cguid_i.obj
 0003:00008020       GUID_DEVCLASS_INFRARED     000000014003c020     uuid:cguid_i.obj
 0003:00008038       GUID_DEVCLASS_KEYBOARD     000000014003c038     uuid:cguid_i.obj
 0003:00008050       GUID_DEVCLASS_LEGACYDRIVER 000000014003c050     uuid:cguid_i.obj
 0003:00008068       GUID_DEVCLASS_MEDIA        000000014003c068     uuid:cguid_i.obj
 0003:00008080       GUID_DEVCLASS_MEDIUM_CHANGER 000000014003c080     uuid:cguid_i.obj
 0003:00008098       GUID_DEVCLASS_MEMORY       000000014003c098     uuid:cguid_i.obj
 0003:000080b0       GUID_DEVCLASS_MODEM        000000014003c0b0     uuid:cguid_i.obj
 0003:000080c8       GUID_DEVCLASS_MONITOR      000000014003c0c8     uuid:cguid_i.obj
 0003:000080e0       GUID_DEVCLASS_MOUSE        000000014003c0e0     uuid:cguid_i.obj
 0003:000080f8       GUID_DEVCLASS_MTD          000000014003c0f8     uuid:cguid_i.obj
 0003:00008110       GUID_DEVCLASS_MULTIFUNCTION 000000014003c110     uuid:cguid_i.obj
 0003:00008128       GUID_DEVCLASS_MULTIPORTSERIAL 000000014003c128     uuid:cguid_i.obj
 0003:00008140       GUID_DEVCLASS_NET          000000014003c140     uuid:cguid_i.obj
 0003:00008158       GUID_DEVCLASS_NETCLIENT    000000014003c158     uuid:cguid_i.obj
 0003:00008170       GUID_DEVCLASS_NETDRIVER    000000014003c170     uuid:cguid_i.obj
 0003:00008188       GUID_DEVCLASS_NETSERVICE   000000014003c188     uuid:cguid_i.obj
 0003:000081a0       GUID_DEVCLASS_NETTRANS     000000014003c1a0     uuid:cguid_i.obj
 0003:000081b8       GUID_DEVCLASS_NODRIVER     000000014003c1b8     uuid:cguid_i.obj
 0003:000081d0       GUID_DEVCLASS_PCMCIA       000000014003c1d0     uuid:cguid_i.obj
 0003:000081e8       GUID_DEVCLASS_PNPPRINTERS  000000014003c1e8     uuid:cguid_i.obj
 0003:00008200       GUID_DEVCLASS_PORTS        000000014003c200     uuid:cguid_i.obj
 0003:00008218       GUID_DEVCLASS_PRINTER      000000014003c218     uuid:cguid_i.obj
 0003:00008230       GUID_DEVCLASS_PRINTERUPGRADE 000000014003c230     uuid:cguid_i.obj
 0003:00008248       GUID_DEVCLASS_PRINTQUEUE   000000014003c248     uuid:cguid_i.obj
 0003:00008260       GUID_DEVCLASS_PROCESSOR    000000014003c260     uuid:cguid_i.obj
 0003:00008278       GUID_DEVCLASS_SBP2         000000014003c278     uuid:cguid_i.obj
 0003:00008290       GUID_DEVCLASS_SCMDISK      000000014003c290     uuid:cguid_i.obj
 0003:000082a8       GUID_DEVCLASS_SCMVOLUME    000000014003c2a8     uuid:cguid_i.obj
 0003:000082c0       GUID_DEVCLASS_SCSIADAPTER  000000014003c2c0     uuid:cguid_i.obj
 0003:000082d8       GUID_DEVCLASS_SECURITYACCELERATOR 000000014003c2d8     uuid:cguid_i.obj
 0003:000082f0       GUID_DEVCLASS_SENSOR       000000014003c2f0     uuid:cguid_i.obj
 0003:00008308       GUID_DEVCLASS_SIDESHOW     000000014003c308     uuid:cguid_i.obj
 0003:00008320       GUID_DEVCLASS_SMARTCARDREADER 000000014003c320     uuid:cguid_i.obj
 0003:00008338       GUID_DEVCLASS_SMRDISK      000000014003c338     uuid:cguid_i.obj
 0003:00008350       GUID_DEVCLASS_SMRVOLUME    000000014003c350     uuid:cguid_i.obj
 0003:00008368       GUID_DEVCLASS_SOFTWARECOMPONENT 000000014003c368     uuid:cguid_i.obj
 0003:00008380       GUID_DEVCLASS_SOUND        000000014003c380     uuid:cguid_i.obj
 0003:00008398       GUID_DEVCLASS_SYSTEM       000000014003c398     uuid:cguid_i.obj
 0003:000083b0       GUID_DEVCLASS_TAPEDRIVE    000000014003c3b0     uuid:cguid_i.obj
 0003:000083c8       GUID_DEVCLASS_UNKNOWN      000000014003c3c8     uuid:cguid_i.obj
 0003:000083e0       GUID_DEVCLASS_UCM          000000014003c3e0     uuid:cguid_i.obj
 0003:000083f8       GUID_DEVCLASS_USB          000000014003c3f8     uuid:cguid_i.obj
 0003:00008410       GUID_DEVCLASS_VOLUME       000000014003c410     uuid:cguid_i.obj
 0003:00008428       GUID_DEVCLASS_VOLUMESNAPSHOT 000000014003c428     uuid:cguid_i.obj
 0003:00008440       GUID_DEVCLASS_WCEUSBS      000000014003c440     uuid:cguid_i.obj
 0003:00008458       GUID_DEVCLASS_WPD          000000014003c458     uuid:cguid_i.obj
 0003:00008470       GUID_DEVCLASS_FSFILTER_TOP 000000014003c470     uuid:cguid_i.obj
 0003:00008488       GUID_DEVCLASS_FSFILTER_ACTIVITYMONITOR 000000014003c488     uuid:cguid_i.obj
 0003:000084a0       GUID_DEVCLASS_FSFILTER_UNDELETE 000000014003c4a0     uuid:cguid_i.obj
 0003:000084b8       GUID_DEVCLASS_FSFILTER_ANTIVIRUS 000000014003c4b8     uuid:cguid_i.obj
 0003:000084d0       GUID_DEVCLASS_FSFILTER_REPLICATION 000000014003c4d0     uuid:cguid_i.obj
 0003:000084e8       GUID_DEVCLASS_FSFILTER_CONTINUOUSBACKUP 000000014003c4e8     uuid:cguid_i.obj
 0003:00008500       GUID_DEVCLASS_FSFILTER_CONTENTSCREENER 000000014003c500     uuid:cguid_i.obj
 0003:00008518       GUID_DEVCLASS_FSFILTER_QUOTAMANAGEMENT 000000014003c518     uuid:cguid_i.obj
 0003:00008530       GUID_DEVCLASS_FSFILTER_SYSTEMRECOVERY 000000014003c530     uuid:cguid_i.obj
 0003:00008548       GUID_DEVCLASS_FSFILTER_CFSMETADATASERVER 000000014003c548     uuid:cguid_i.obj
 0003:00008560       GUID_DEVCLASS_FSFILTER_HSM 000000014003c560     uuid:cguid_i.obj
 0003:00008578       GUID_DEVCLASS_FSFILTER_COMPRESSION 000000014003c578     uuid:cguid_i.obj
 0003:00008590       GUID_DEVCLASS_FSFILTER_ENCRYPTION 000000014003c590     uuid:cguid_i.obj
 0003:000085a8       GUID_DEVCLASS_FSFILTER_VIRTUALIZATION 000000014003c5a8     uuid:cguid_i.obj
 0003:000085c0       GUID_DEVCLASS_FSFILTER_PHYSICALQUOTAMANAGEMENT 000000014003c5c0     uuid:cguid_i.obj
 0003:000085d8       GUID_DEVCLASS_FSFILTER_OPENFILEBACKUP 000000014003c5d8     uuid:cguid_i.obj
 0003:000085f0       GUID_DEVCLASS_FSFILTER_SECURITYENHANCER 000000014003c5f0     uuid:cguid_i.obj
 0003:00008608       GUID_DEVCLASS_FSFILTER_COPYPROTECTION 000000014003c608     uuid:cguid_i.obj
 0003:00008620       GUID_DEVCLASS_FSFILTER_BOTTOM 000000014003c620     uuid:cguid_i.obj
 0003:00008638       GUID_DEVCLASS_FSFILTER_SYSTEM 000000014003c638     uuid:cguid_i.obj
 0003:00008650       GUID_DEVCLASS_FSFILTER_INFRASTRUCTURE 000000014003c650     uuid:cguid_i.obj
 0003:00008668       GUID_DEVINTERFACE_DISK     000000014003c668     uuid:cguid_i.obj
 0003:00008680       GUID_DEVINTERFACE_CDROM    000000014003c680     uuid:cguid_i.obj
 0003:00008698       GUID_DEVINTERFACE_PARTITION 000000014003c698     uuid:cguid_i.obj
 0003:000086b0       GUID_DEVINTERFACE_TAPE     000000014003c6b0     uuid:cguid_i.obj
 0003:000086c8       GUID_DEVINTERFACE_WRITEONCEDISK 000000014003c6c8     uuid:cguid_i.obj
 0003:000086e0       GUID_DEVINTERFACE_VOLUME   000000014003c6e0     uuid:cguid_i.obj
 0003:000086f8       GUID_DEVINTERFACE_MEDIUMCHANGER 000000014003c6f8     uuid:cguid_i.obj
 0003:00008710       GUID_DEVINTERFACE_FLOPPY   000000014003c710     uuid:cguid_i.obj
 0003:00008728       GUID_DEVINTERFACE_CDCHANGER 000000014003c728     uuid:cguid_i.obj
 0003:00008740       GUID_DEVINTERFACE_STORAGEPORT 000000014003c740     uuid:cguid_i.obj
 0003:00008758       GUID_DEVINTERFACE_VMLUN    000000014003c758     uuid:cguid_i.obj
 0003:00008770       GUID_DEVINTERFACE_SES      000000014003c770     uuid:cguid_i.obj
 0003:00008788       GUID_DEVINTERFACE_SERVICE_VOLUME 000000014003c788     uuid:cguid_i.obj
 0003:000087a0       GUID_DEVINTERFACE_HIDDEN_VOLUME 000000014003c7a0     uuid:cguid_i.obj
 0003:000087b8       GUID_DEVINTERFACE_UNIFIED_ACCESS_RPMB 000000014003c7b8     uuid:cguid_i.obj
 0003:000087d0       GUID_DEVINTERFACE_SCM_PHYSICAL_DEVICE 000000014003c7d0     uuid:cguid_i.obj
 0003:000087e8       GUID_SCM_PD_HEALTH_NOTIFICATION 000000014003c7e8     uuid:cguid_i.obj
 0003:00008800       GUID_SCM_PD_PASSTHROUGH_INVDIMM 000000014003c800     uuid:cguid_i.obj
 0003:00008818       GUID_DEVINTERFACE_COMPORT  000000014003c818     uuid:cguid_i.obj
 0003:00008830       GUID_DEVINTERFACE_SERENUM_BUS_ENUMERATOR 000000014003c830     uuid:cguid_i.obj
 0003:00008850       ??_7type_info@@6B@         000000014003c850     MSVCRTD:std_type_info_static.obj
 0003:00008860       ??_C@_17CNPHIMPH@?$AA?$CF?$AAl?$AAs@ 000000014003c860     MSVCRTD:thread_safe_statics.obj
 0003:00008870       ??_C@_1EC@JIJBPKFM@?$AAa?$AAp?$AAi?$AA?9?$AAm?$AAs?$AA?9?$AAw?$AAi?$AAn?$AA?9?$AAc?$AAo?$AAr?$AAe@ 000000014003c870     MSVCRTD:thread_safe_statics.obj
 0003:000088c0       ??_C@_1BK@MGMFAEKH@?$AAk?$AAe?$AAr?$AAn?$AAe?$AAl?$AA3?$AA2?$AA?4?$AAd?$AAl?$AAl@ 000000014003c8c0     MSVCRTD:thread_safe_statics.obj
 0003:000088e0       ??_C@_0BJ@JEBJOJFJ@SleepConditionVariableCS@ 000000014003c8e0     MSVCRTD:thread_safe_statics.obj
 0003:00008900       ??_C@_0BJ@PGPPEPCC@WakeAllConditionVariable@ 000000014003c900     MSVCRTD:thread_safe_statics.obj
 0003:00008920       ??_C@_1JM@MEGLFHBK@?$AAd?$AA?3?$AA?2?$AAa?$AAg?$AAe?$AAn?$AAt?$AA?2?$AA_?$AAw?$AAo?$AAr?$AAk?$AA?2@ 000000014003c920     MSVCRTD:thread_safe_statics.obj
 0003:00008a10       ??_C@_0BJ@HEGAHDFO@Stack?5pointer?5corruption@ 000000014003ca10     MSVCRTD:userapi.obj
 0003:00008a30       ??_C@_0CK@FEGOIOPB@Cast?5to?5smaller?5type?5causing?5lo@ 000000014003ca30     MSVCRTD:userapi.obj
 0003:00008a68       ??_C@_0BI@CIGMDCBH@Stack?5memory?5corruption@ 000000014003ca68     MSVCRTD:userapi.obj
 0003:00008a88       ??_C@_0CK@CNLNOEPB@Local?5variable?5used?5before?5init@ 000000014003ca88     MSVCRTD:userapi.obj
 0003:00008ac0       ??_C@_0BP@OGBCLIBO@Stack?5around?5_alloca?5corrupted@ 000000014003cac0     MSVCRTD:userapi.obj
 0003:00008bd0       ??_C@_0NN@JMPELKLB@The?5value?5of?5ESP?5was?5not?5proper@ 000000014003cbd0     MSVCRTD:error.obj
 0003:00008ce0       ??_C@_0BBN@ELNNILBE@A?5cast?5to?5a?5smaller?5data?5type?5h@ 000000014003cce0     MSVCRTD:error.obj
 0003:00008e38       ??_C@_0BN@BPOGFMJL@Stack?5memory?5was?5corrupted?$AN?6@ 000000014003ce38     MSVCRTD:error.obj
 0003:00008e60       ??_C@_0DG@DAJCDLPN@A?5local?5variable?5was?5used?5befor@ 000000014003ce60     MSVCRTD:error.obj
 0003:00008ea0       ??_C@_0CM@JMIDGKLA@Stack?5memory?5around?5_alloca?5was@ 000000014003cea0     MSVCRTD:error.obj
 0003:00008ed8       ??_C@_0BO@CHIONIOI@Unknown?5Runtime?5Check?5Error?$AN?6@ 000000014003ced8     MSVCRTD:error.obj
 0003:00008f00       ??_C@_1GM@CNOOJIHC@?$AAR?$AAu?$AAn?$AAt?$AAi?$AAm?$AAe?$AA?5?$AAC?$AAh?$AAe?$AAc?$AAk?$AA?5?$AAE@ 000000014003cf00     MSVCRTD:error.obj
 0003:00008f90       ??_C@_1EA@NFKNIFJP@?$AAR?$AAu?$AAn?$AA?9?$AAT?$AAi?$AAm?$AAe?$AA?5?$AAC?$AAh?$AAe?$AAc?$AAk?$AA?5@ 000000014003cf90     MSVCRTD:error.obj
 0003:00008fe0       ??_C@_0BB@PFFGGCJP@Unknown?5Filename@ 000000014003cfe0     MSVCRTD:error.obj
 0003:00008ff8       ??_C@_0BE@GNBOBNCK@Unknown?5Module?5Name@ 000000014003cff8     MSVCRTD:error.obj
 0003:00009010       ??_C@_0CA@IODNCDPG@Run?9Time?5Check?5Failure?5?$CD?$CFd?5?9?5?$CFs@ 000000014003d010     MSVCRTD:error.obj
 0003:00009038       ??_C@_0CG@IAFNJNEE@Stack?5corrupted?5near?5unknown?5va@ 000000014003d038     MSVCRTD:error.obj
 0003:00009068       ??_C@_05MKKEDADM@?$CF?42X?5@ 000000014003d068     MSVCRTD:error.obj
 0003:00009070       ??_C@_0EJ@LJKNEOLN@Stack?5area?5around?5_alloca?5memor@ 000000014003d070     MSVCRTD:error.obj
 0003:000090c8       ??_C@_01EEMJAFIK@?6@       000000014003d0c8     MSVCRTD:error.obj
 0003:000090cc       ??_C@_02LLMPMKNF@?$DO?5@   000000014003d0cc     MSVCRTD:error.obj
 0003:000090d0       ??_C@_08OMAHNMHJ@?6Data?3?5?$DM@ 000000014003d0d0     MSVCRTD:error.obj
 0003:000090e0       ??_C@_0CK@DKGBICFE@?6Allocation?5number?5within?5this?5@ 000000014003d0e0     MSVCRTD:error.obj
 0003:00009118       ??_C@_07DFDJCKFN@?6Size?3?5@ 000000014003d118     MSVCRTD:error.obj
 0003:00009128       ??_C@_0N@MHFFIMFG@?6Address?3?50x@ 000000014003d128     MSVCRTD:error.obj
 0003:00009140       ??_C@_0EI@CLEPFNGI@Stack?5area?5around?5_alloca?5memor@ 000000014003d140     MSVCRTD:error.obj
 0003:00009198       ??_C@_0BK@ODNDAGKB@?$CFs?$CFs?$CFp?$CFs?$CFzd?$CFs?$CFd?$CFs?$CFs?$CFs?$CFs?$CFs@ 000000014003d198     MSVCRTD:error.obj
 0003:000091b8       ??_C@_0DE@OHJBPMBP@A?5variable?5is?5being?5used?5withou@ 000000014003d1b8     MSVCRTD:error.obj
 0003:00009210       ??_C@_0P@GHFPNOJB@bad?5allocation@ 000000014003d210     MSVCRTD:throw_bad_alloc.obj
 0003:00009290       ??_C@_1EI@MLPKHBGE@?$AAa?$AAp?$AAi?$AA?9?$AAm?$AAs?$AA?9?$AAw?$AAi?$AAn?$AA?9?$AAc?$AAo?$AAr?$AAe@ 000000014003d290     MSVCRTD:pdblkup.obj
 0003:000092e8       ??_C@_1BK@JHLNAEJL@?$AAa?$AAd?$AAv?$AAa?$AAp?$AAi?$AA3?$AA2?$AA?4?$AAd?$AAl?$AAl@ 000000014003d2e8     MSVCRTD:pdblkup.obj
 0003:00009308       ??_C@_0O@COHOBMLB@RegOpenKeyExW@ 000000014003d308     MSVCRTD:pdblkup.obj
 0003:00009318       ??_C@_0BB@GLNAEDBD@RegQueryValueExW@ 000000014003d318     MSVCRTD:pdblkup.obj
 0003:00009330       ??_C@_0M@HLOHPNFA@RegCloseKey@ 000000014003d330     MSVCRTD:pdblkup.obj
 0003:00009340       ??_C@_1HE@EBEAGLFB@?$AAS?$AAO?$AAF?$AAT?$AAW?$AAA?$AAR?$AAE?$AA?2?$AAW?$AAo?$AAw?$AA6?$AA4?$AA3@ 000000014003d340     MSVCRTD:pdblkup.obj
 0003:000093d0       ??_C@_1BG@EABPBLLF@?$AAP?$AAr?$AAo?$AAd?$AAu?$AAc?$AAt?$AAD?$AAi?$AAr@ 000000014003d3d0     MSVCRTD:pdblkup.obj
 0003:00009418       ??_C@_1BC@JINFINNJ@?$AAM?$AAS?$AAP?$AAD?$AAB?$AA1?$AA4?$AA0@ 000000014003d418     MSVCRTD:pdblkup.obj
 0003:00009430       ??_C@_0BB@KCIACLNC@PDBOpenValidate5@ 000000014003d430     MSVCRTD:pdblkup.obj
 0003:00009444       ??_C@_01KDCPPGHE@r@        000000014003d444     MSVCRTD:pdblkup.obj
 0003:00009490       _load_config_used          000000014003d490     MSVCRTD:loadcfg.obj
 0003:00009b98       _tls_used                  000000014003db98     MSVCRTD:tlssup.obj
 0003:00009cc8       ??_R4Box@@6B@              000000014003dcc8     Box.obj
 0003:00009cf8       ??_R3Box@@8                000000014003dcf8     Box.obj
 0003:00009d10       ??_R2Box@@8                000000014003dd10     Box.obj
 0003:00009d28       ??_R1A@?0A@EA@Box@@8       000000014003dd28     Box.obj
 0003:00009d58       ??_R1A@?0A@EA@Obstacle@@8  000000014003dd58     Box.obj
 0003:00009d88       ??_R3Obstacle@@8           000000014003dd88     Box.obj
 0003:00009da0       ??_R2Obstacle@@8           000000014003dda0     Box.obj
 0003:00009db0       ??_R4Obstacle@@6B@         000000014003ddb0     Obstacle.obj
 0003:00009de0       ??_R4exception@std@@6B@    000000014003dde0     UbisoftProject.obj
 0003:00009e10       ??_R3exception@std@@8      000000014003de10     UbisoftProject.obj
 0003:00009e28       ??_R2exception@std@@8      000000014003de28     UbisoftProject.obj
 0003:00009e38       ??_R1A@?0A@EA@exception@std@@8 000000014003de38     UbisoftProject.obj
 0003:00009e68       ??_R4bad_alloc@std@@6B@    000000014003de68     UbisoftProject.obj
 0003:00009e98       ??_R3bad_alloc@std@@8      000000014003de98     UbisoftProject.obj
 0003:00009eb0       ??_R2bad_alloc@std@@8      000000014003deb0     UbisoftProject.obj
 0003:00009ec8       ??_R1A@?0A@EA@bad_alloc@std@@8 000000014003dec8     UbisoftProject.obj
 0003:00009ef8       ??_R4bad_array_new_length@std@@6B@ 000000014003def8     UbisoftProject.obj
 0003:00009f28       ??_R3bad_array_new_length@std@@8 000000014003df28     UbisoftProject.obj
 0003:00009f40       ??_R2bad_array_new_length@std@@8 000000014003df40     UbisoftProject.obj
 0003:00009f68       ??_R1A@?0A@EA@bad_array_new_length@std@@8 000000014003df68     UbisoftProject.obj
 0003:00009f98       ??_R4Wall@@6B@             000000014003df98     Wall.obj
 0003:00009fc8       ??_R3Wall@@8               000000014003dfc8     Wall.obj
 0003:00009fe0       ??_R2Wall@@8               000000014003dfe0     Wall.obj
 0003:00009ff8       ??_R1A@?0A@EA@Wall@@8      000000014003dff8     Wall.obj
 0003:0000a028       ??_R4type_info@@6B@        000000014003e028     MSVCRTD:std_type_info_static.obj
 0003:0000a058       ??_R3type_info@@8          000000014003e058     MSVCRTD:std_type_info_static.obj
 0003:0000a070       ??_R2type_info@@8          000000014003e070     MSVCRTD:std_type_info_static.obj
 0003:0000a080       ??_R1A@?0A@EA@type_info@@8 000000014003e080     MSVCRTD:std_type_info_static.obj
 0003:0000a360       __rtc_iaa                  000000014003e360     MSVCRTD:initsect.obj
 0003:0000a658       __rtc_izz                  000000014003e658     MSVCRTD:initsect.obj
 0003:0000a768       __rtc_taa                  000000014003e768     MSVCRTD:initsect.obj
 0003:0000aa60       __rtc_tzz                  000000014003ea60     MSVCRTD:initsect.obj
 0003:0000e608       _TI3?AVbad_array_new_length@std@@ 0000000140042608     UbisoftProject.obj
 0003:0000e628       _CTA3?AVbad_array_new_length@std@@ 0000000140042628     UbisoftProject.obj
 0003:0000e648       _CT??_R0?AVbad_array_new_length@std@@@8??0bad_array_new_length@std@@QEAA@AEBV01@@Z24 0000000140042648     UbisoftProject.obj
 0003:0000e670       _CT??_R0?AVbad_alloc@std@@@8??0bad_alloc@std@@QEAA@AEBV01@@Z24 0000000140042670     UbisoftProject.obj
 0003:0000e698       _CT??_R0?AVexception@std@@@8??0exception@std@@QEAA@AEBV01@@Z24 0000000140042698     UbisoftProject.obj
 0003:0000e6c0       _TI2?AVbad_alloc@std@@     00000001400426c0     MSVCRTD:throw_bad_alloc.obj
 0003:0000e6e0       _CTA2?AVbad_alloc@std@@    00000001400426e0     MSVCRTD:throw_bad_alloc.obj
 0004:00000000       ?mapTerrainBase@@3PAY0BA@HA 0000000140043000     UbisoftProject.obj
 0004:0000039c       ?__LINE__Var@?0??_Adjust_manually_vector_aligned@std@@YAXAEAPEAXAEA_K@Z@4JA 000000014004339c     UbisoftProject.obj
 0004:000003a0       ?WINDOW_WIDTH@@3HA         00000001400433a0     Framework:main.obj
 0004:000003a4       ?WINDOW_HEIGHT@@3HA        00000001400433a4     Framework:main.obj
 0004:000003a8       ?gRenderUpdateTimes@@3_NA  00000001400433a8     Framework:main.obj
 0004:000003ac       ?__LINE__Var@?0??loadBMPRaw@@YAPEAEPEBDAEAI1_N@Z@4JA 00000001400433ac     Framework:TextureLoader.obj
 0004:000003b0       _fltused                   00000001400433b0     MSVCRTD:fltused.obj
 0004:000003c0       __security_cookie_complement 00000001400433c0     MSVCRTD:gs_cookie.obj
 0004:000003c8       __security_cookie          00000001400433c8     MSVCRTD:gs_cookie.obj
 0004:000003d4       __scrt_native_dllmain_reason 00000001400433d4     MSVCRTD:utility.obj
 0004:000003d8       _Init_global_epoch         00000001400433d8     MSVCRTD:thread_safe_statics.obj
 0004:000003e0       ?_RTC_ErrorLevels@@3PAHA   00000001400433e0     MSVCRTD:error.obj
 0004:000003f8       __isa_available            00000001400433f8     MSVCRTD:cpu_disp.obj
 0004:000003fc       __isa_enabled              00000001400433fc     MSVCRTD:cpu_disp.obj
 0004:00000400       __memcpy_nt_iters          0000000140043400     MSVCRTD:cpu_disp.obj
 0004:00000408       __memset_nt_iters          0000000140043408     MSVCRTD:cpu_disp.obj
 0004:00000414       __scrt_default_matherr     0000000140043414     MSVCRTD:matherr.obj
 0004:00000420       __scrt_ucrt_dll_is_in_use  0000000140043420     MSVCRTD:ucrt_stubs.obj
 0004:00000538       ??_R0?AVBox@@@8            0000000140043538     Box.obj
 0004:00000558       ??_R0?AVObstacle@@@8       0000000140043558     Box.obj
 0004:00000580       ??_R0?AVbad_array_new_length@std@@@8 0000000140043580     UbisoftProject.obj
 0004:000005b8       ??_R0?AVbad_alloc@std@@@8  00000001400435b8     UbisoftProject.obj
 0004:000005e8       ??_R0?AVexception@std@@@8  00000001400435e8     UbisoftProject.obj
 0004:00000618       ??_R0?AVWall@@@8           0000000140043618     Wall.obj
 0004:00000638       ??_R0?AVtype_info@@@8      0000000140043638     MSVCRTD:std_type_info_static.obj
 0004:00000770       ?m_character@@3PEAVCharacter@@EA 0000000140043770     UbisoftProject.obj
 0004:00000778       ?m_door@@3PEAVDoor@@EA     0000000140043778     UbisoftProject.obj
 0004:00000780       ?m_box@@3PEAVBox@@EA       0000000140043780     UbisoftProject.obj
 0004:00000788       ?i@@3HA                    0000000140043788     UbisoftProject.obj
 0004:0000078c       ?j@@3HA                    000000014004378c     UbisoftProject.obj
 0004:00000790       ?mapTerrain@@3PAY0BA@HA    0000000140043790     UbisoftProject.obj
 0004:00000a90       ?globalState@@3W4GameState@@A 0000000140043a90     UbisoftProject.obj
 0004:00000a98       ?mapVisu@@3V?$vector@V?$vector@PEAVObstacle@@V?$allocator@PEAVObstacle@@@std@@@std@@V?$allocator@V?$vector@PEAVObstacle@@V?$allocator@PEAVObstacle@@@std@@@std@@@2@@std@@A 0000000140043a98     UbisoftProject.obj
 0004:00000b60       ?MAIN_WINDOW_HANDLE@@3PEAUHWND__@@EA 0000000140043b60     Framework:main.obj
 0004:00000b68       ?gPCFreq@@3NA              0000000140043b68     Framework:main.obj
 0004:00000b70       ?gCounterStart@@3_JA       0000000140043b70     Framework:main.obj
 0004:00000b78       ?gLastTime@@3NA            0000000140043b78     Framework:main.obj
 0004:00000b80       ?gUserUpdateProfiler@@3VCProfiler@@A 0000000140043b80     Framework:main.obj
 0004:00000b90       ?gUserRenderProfiler@@3VCProfiler@@A 0000000140043b90     Framework:main.obj
 0004:00000ba0       ?gUpdateDeltaTime@@3VCProfiler@@A 0000000140043ba0     Framework:main.obj
 0004:00000bd0       ?_OptionsStorage@?1??__local_stdio_printf_options@@9@4_KA 0000000140043bd0     Framework:main.obj
 0004:00000be0       ?m_textures@CSimpleSprite@@0V?$map@PEBDUsTextureDef@CSimpleSprite@@U?$less@PEBD@std@@V?$allocator@U?$pair@QEBDUsTextureDef@CSimpleSprite@@@std@@@4@@std@@A 0000000140043be0     Framework:SimpleSprite.obj
 0004:00000cb8       __scrt_current_native_startup_state 0000000140043cb8     MSVCRTD:utility.obj
 0004:00000cc0       __scrt_native_startup_lock 0000000140043cc0     MSVCRTD:utility.obj
 0004:00000d68       _tls_index                 0000000140043d68     MSVCRTD:tlssup.obj
 0004:00001418       __favor                    0000000140044418     MSVCRTD:cpu_disp.obj
 0004:0000141c       __scrt_debugger_hook_flag  000000014004441c     MSVCRTD:utility_desktop.obj
 0004:00001420       ?__type_info_root_node@@3U__type_info_node@@A 0000000140044420     MSVCRTD:tncleanup.obj
 0004:00001438       ?_OptionsStorage@?1??__local_stdio_scanf_options@@9@4_KA 0000000140044438     MSVCRTD:default_local_stdio_options.obj
 0004:00001458       __dyn_tls_dtor_callback    0000000140044458     <common>
 0004:00001470       __dyn_tls_init_callback    0000000140044470     <common>
 0004:00001484       __DebuggerCurrentSteppingThreadId 0000000140044484     <common>
 0006:00000000       __imp_DirectSoundCreate8   0000000140049000     dsound:DSOUND.dll
 0006:00000008       \177DSOUND_NULL_THUNK_DATA 0000000140049008     dsound:DSOUND.dll
 0006:00000060       __imp_gluBuild2DMipmaps    0000000140049060     glu32:GLU32.dll
 0006:00000068       \177GLU32_NULL_THUNK_DATA  0000000140049068     glu32:GLU32.dll
 0006:000000c0       __imp_VirtualQuery         00000001400490c0     kernel32:KERNEL32.dll
 0006:000000c8       __imp_GetProcessHeap       00000001400490c8     kernel32:KERNEL32.dll
 0006:000000d0       __imp_HeapFree             00000001400490d0     kernel32:KERNEL32.dll
 0006:000000d8       __imp_HeapAlloc            00000001400490d8     kernel32:KERNEL32.dll
 0006:000000e0       __imp_GetLastError         00000001400490e0     kernel32:KERNEL32.dll
 0006:000000e8       __imp_InitializeSListHead  00000001400490e8     kernel32:KERNEL32.dll
 0006:000000f0       __imp_GetSystemTimeAsFileTime 00000001400490f0     kernel32:KERNEL32.dll
 0006:000000f8       __imp_GetCurrentProcessId  00000001400490f8     kernel32:KERNEL32.dll
 0006:00000100       __imp_QueryPerformanceFrequency 0000000140049100     kernel32:KERNEL32.dll
 0006:00000108       __imp_IsProcessorFeaturePresent 0000000140049108     kernel32:KERNEL32.dll
 0006:00000110       __imp_TerminateProcess     0000000140049110     kernel32:KERNEL32.dll
 0006:00000118       __imp_GetCurrentProcess    0000000140049118     kernel32:KERNEL32.dll
 0006:00000120       __imp_SetUnhandledExceptionFilter 0000000140049120     kernel32:KERNEL32.dll
 0006:00000128       __imp_UnhandledExceptionFilter 0000000140049128     kernel32:KERNEL32.dll
 0006:00000130       __imp_RtlVirtualUnwind     0000000140049130     kernel32:KERNEL32.dll
 0006:00000138       __imp_RtlLookupFunctionEntry 0000000140049138     kernel32:KERNEL32.dll
 0006:00000140       __imp_RtlCaptureContext    0000000140049140     kernel32:KERNEL32.dll
 0006:00000148       __imp_WideCharToMultiByte  0000000140049148     kernel32:KERNEL32.dll
 0006:00000150       __imp_QueryPerformanceCounter 0000000140049150     kernel32:KERNEL32.dll
 0006:00000158       __imp_GetStartupInfoW      0000000140049158     kernel32:KERNEL32.dll
 0006:00000160       __imp_MultiByteToWideChar  0000000140049160     kernel32:KERNEL32.dll
 0006:00000168       __imp_RaiseException       0000000140049168     kernel32:KERNEL32.dll
 0006:00000170       __imp_IsDebuggerPresent    0000000140049170     kernel32:KERNEL32.dll
 0006:00000178       __imp_GetProcAddress       0000000140049178     kernel32:KERNEL32.dll
 0006:00000180       __imp_GetModuleHandleW     0000000140049180     kernel32:KERNEL32.dll
 0006:00000188       __imp_CreateEventW         0000000140049188     kernel32:KERNEL32.dll
 0006:00000190       __imp_WaitForSingleObjectEx 0000000140049190     kernel32:KERNEL32.dll
 0006:00000198       __imp_ResetEvent           0000000140049198     kernel32:KERNEL32.dll
 0006:000001a0       __imp_SetEvent             00000001400491a0     kernel32:KERNEL32.dll
 0006:000001a8       __imp_DeleteCriticalSection 00000001400491a8     kernel32:KERNEL32.dll
 0006:000001b0       __imp_InitializeCriticalSectionAndSpinCount 00000001400491b0     kernel32:KERNEL32.dll
 0006:000001b8       __imp_LeaveCriticalSection 00000001400491b8     kernel32:KERNEL32.dll
 0006:000001c0       __imp_EnterCriticalSection 00000001400491c0     kernel32:KERNEL32.dll
 0006:000001c8       __imp_CloseHandle          00000001400491c8     kernel32:KERNEL32.dll
 0006:000001d0       __imp_GetCurrentThreadId   00000001400491d0     kernel32:KERNEL32.dll
 0006:000001d8       __imp_FreeLibrary          00000001400491d8     kernel32:KERNEL32.dll
 0006:000001e0       \177KERNEL32_NULL_THUNK_DATA 00000001400491e0     kernel32:KERNEL32.dll
 0006:00000270       __imp_??1_Lockit@std@@QEAA@XZ 0000000140049270     msvcprtd:MSVCP140D.dll
 0006:00000278       __imp_??0_Lockit@std@@QEAA@H@Z 0000000140049278     msvcprtd:MSVCP140D.dll
 0006:00000280       __imp_?_Xlength_error@std@@YAXPEBD@Z 0000000140049280     msvcprtd:MSVCP140D.dll
 0006:00000288       \177MSVCP140D_NULL_THUNK_DATA 0000000140049288     msvcprtd:MSVCP140D.dll
 0006:000002e0       __imp_glTexParameterf      00000001400492e0     opengl32:OPENGL32.dll
 0006:000002e8       __imp_glTranslatef         00000001400492e8     opengl32:OPENGL32.dll
 0006:000002f0       __imp_glTexEnvf            00000001400492f0     opengl32:OPENGL32.dll
 0006:000002f8       __imp_glGenTextures        00000001400492f8     opengl32:OPENGL32.dll
 0006:00000300       __imp_glEnable             0000000140049300     opengl32:OPENGL32.dll
 0006:00000308       __imp_glTexCoord2f         0000000140049308     opengl32:OPENGL32.dll
 0006:00000310       __imp_glScalef             0000000140049310     opengl32:OPENGL32.dll
 0006:00000318       __imp_glRotatef            0000000140049318     opengl32:OPENGL32.dll
 0006:00000320       __imp_glPushMatrix         0000000140049320     opengl32:OPENGL32.dll
 0006:00000328       __imp_glDisable            0000000140049328     opengl32:OPENGL32.dll
 0006:00000330       __imp_glColor4f            0000000140049330     opengl32:OPENGL32.dll
 0006:00000338       __imp_wglGetCurrentDC      0000000140049338     opengl32:OPENGL32.dll
 0006:00000340       __imp_glClear              0000000140049340     opengl32:OPENGL32.dll
 0006:00000348       __imp_glClearColor         0000000140049348     opengl32:OPENGL32.dll
 0006:00000350       __imp_glFlush              0000000140049350     opengl32:OPENGL32.dll
 0006:00000358       __imp_glBegin              0000000140049358     opengl32:OPENGL32.dll
 0006:00000360       __imp_glColor3f            0000000140049360     opengl32:OPENGL32.dll
 0006:00000368       __imp_glEnd                0000000140049368     opengl32:OPENGL32.dll
 0006:00000370       __imp_glRasterPos2f        0000000140049370     opengl32:OPENGL32.dll
 0006:00000378       __imp_glVertex2f           0000000140049378     opengl32:OPENGL32.dll
 0006:00000380       __imp_glBindTexture        0000000140049380     opengl32:OPENGL32.dll
 0006:00000388       __imp_glBlendFunc          0000000140049388     opengl32:OPENGL32.dll
 0006:00000390       __imp_glPopMatrix          0000000140049390     opengl32:OPENGL32.dll
 0006:00000398       \177OPENGL32_NULL_THUNK_DATA 0000000140049398     opengl32:OPENGL32.dll
 0006:00000410       __imp_GetClientRect        0000000140049410     user32:USER32.dll
 0006:00000418       __imp_GetAsyncKeyState     0000000140049418     user32:USER32.dll
 0006:00000420       __imp_WindowFromDC         0000000140049420     user32:USER32.dll
 0006:00000428       __imp_GetCursorPos         0000000140049428     user32:USER32.dll
 0006:00000430       __imp_ScreenToClient       0000000140049430     user32:USER32.dll
 0006:00000438       \177USER32_NULL_THUNK_DATA 0000000140049438     user32:USER32.dll
 0006:00000498       __imp__purecall            0000000140049498     vcruntimed:VCRUNTIME140D.dll
 0006:000004a0       __imp___vcrt_LoadLibraryExW 00000001400494a0     vcruntimed:VCRUNTIME140D.dll
 0006:000004a8       __imp___C_specific_handler 00000001400494a8     vcruntimed:VCRUNTIME140D.dll
 0006:000004b0       __imp_memmove              00000001400494b0     vcruntimed:VCRUNTIME140D.dll
 0006:000004b8       __imp___std_exception_copy 00000001400494b8     vcruntimed:VCRUNTIME140D.dll
 0006:000004c0       __imp___std_exception_destroy 00000001400494c0     vcruntimed:VCRUNTIME140D.dll
 0006:000004c8       __imp__CxxThrowException   00000001400494c8     vcruntimed:VCRUNTIME140D.dll
 0006:000004d0       __imp_memset               00000001400494d0     vcruntimed:VCRUNTIME140D.dll
 0006:000004d8       __imp_memcpy               00000001400494d8     vcruntimed:VCRUNTIME140D.dll
 0006:000004e0       __imp___vcrt_GetModuleFileNameW 00000001400494e0     vcruntimed:VCRUNTIME140D.dll
 0006:000004e8       __imp___C_specific_handler_noexcept 00000001400494e8     vcruntimed:VCRUNTIME140D.dll
 0006:000004f0       __imp___current_exception  00000001400494f0     vcruntimed:VCRUNTIME140D.dll
 0006:000004f8       __imp___current_exception_context 00000001400494f8     vcruntimed:VCRUNTIME140D.dll
 0006:00000500       __imp___std_type_info_destroy_list 0000000140049500     vcruntimed:VCRUNTIME140D.dll
 0006:00000508       __imp___vcrt_GetModuleHandleW 0000000140049508     vcruntimed:VCRUNTIME140D.dll
 0006:00000510       \177VCRUNTIME140D_NULL_THUNK_DATA 0000000140049510     vcruntimed:VCRUNTIME140D.dll
 0006:00000580       __imp___CxxFrameHandler4   0000000140049580     vcruntimed:VCRUNTIME140_1D.dll
 0006:00000588       \177VCRUNTIME140_1D_NULL_THUNK_DATA 0000000140049588     vcruntimed:VCRUNTIME140_1D.dll
 0006:000005e0       __imp_XInputGetState       00000001400495e0     xinput:XINPUT1_4.dll
 0006:000005e8       \177XINPUT1_4_NULL_THUNK_DATA 00000001400495e8     xinput:XINPUT1_4.dll
 0006:00000640       __imp_glutInitWindowPosition 0000000140049640     freeglut:freeglut.dll
 0006:00000648       __imp_glutMainLoop         0000000140049648     freeglut:freeglut.dll
 0006:00000650       __imp_glutPostRedisplay    0000000140049650     freeglut:freeglut.dll
 0006:00000658       __imp_glutIdleFunc         0000000140049658     freeglut:freeglut.dll
 0006:00000660       __imp_glutDisplayFunc      0000000140049660     freeglut:freeglut.dll
 0006:00000668       __imp___glutInitWithExit   0000000140049668     freeglut:freeglut.dll
 0006:00000670       __imp___glutCreateWindowWithExit 0000000140049670     freeglut:freeglut.dll
 0006:00000678       __imp_glutSetOption        0000000140049678     freeglut:freeglut.dll
 0006:00000680       __imp_glutBitmapCharacter  0000000140049680     freeglut:freeglut.dll
 0006:00000688       __imp_glutInitWindowSize   0000000140049688     freeglut:freeglut.dll
 0006:00000690       \177freeglut_NULL_THUNK_DATA 0000000140049690     freeglut:freeglut.dll
 0006:000006f8       __imp__get_wide_winmain_command_line 00000001400496f8     ucrtd:ucrtbased.dll
 0006:00000700       __imp__initterm            0000000140049700     ucrtd:ucrtbased.dll
 0006:00000708       __imp__initterm_e          0000000140049708     ucrtd:ucrtbased.dll
 0006:00000710       __imp__exit                0000000140049710     ucrtd:ucrtbased.dll
 0006:00000718       __imp__set_fmode           0000000140049718     ucrtd:ucrtbased.dll
 0006:00000720       __imp__c_exit              0000000140049720     ucrtd:ucrtbased.dll
 0006:00000728       __imp__register_thread_local_exe_atexit_callback 0000000140049728     ucrtd:ucrtbased.dll
 0006:00000730       __imp__configthreadlocale  0000000140049730     ucrtd:ucrtbased.dll
 0006:00000738       __imp__initialize_narrow_environment 0000000140049738     ucrtd:ucrtbased.dll
 0006:00000740       __imp___p__commode         0000000140049740     ucrtd:ucrtbased.dll
 0006:00000748       __imp__free_dbg            0000000140049748     ucrtd:ucrtbased.dll
 0006:00000750       __imp_strcpy_s             0000000140049750     ucrtd:ucrtbased.dll
 0006:00000758       __imp_strcat_s             0000000140049758     ucrtd:ucrtbased.dll
 0006:00000760       __imp___stdio_common_vsprintf_s 0000000140049760     ucrtd:ucrtbased.dll
 0006:00000768       __imp_terminate            0000000140049768     ucrtd:ucrtbased.dll
 0006:00000770       __imp__wmakepath_s         0000000140049770     ucrtd:ucrtbased.dll
 0006:00000778       __imp__configure_wide_argv 0000000140049778     ucrtd:ucrtbased.dll
 0006:00000780       __imp_wcscpy_s             0000000140049780     ucrtd:ucrtbased.dll
 0006:00000788       __imp__configure_narrow_argv 0000000140049788     ucrtd:ucrtbased.dll
 0006:00000790       __imp__seh_filter_dll      0000000140049790     ucrtd:ucrtbased.dll
 0006:00000798       __imp_malloc               0000000140049798     ucrtd:ucrtbased.dll
 0006:000007a0       __imp__callnewh            00000001400497a0     ucrtd:ucrtbased.dll
 0006:000007a8       __imp__CrtDbgReportW       00000001400497a8     ucrtd:ucrtbased.dll
 0006:000007b0       __imp__wassert             00000001400497b0     ucrtd:ucrtbased.dll
 0006:000007b8       __imp__errno               00000001400497b8     ucrtd:ucrtbased.dll
 0006:000007c0       __imp_fopen                00000001400497c0     ucrtd:ucrtbased.dll
 0006:000007c8       __imp__invalid_parameter_noinfo 00000001400497c8     ucrtd:ucrtbased.dll
 0006:000007d0       __imp_fseek                00000001400497d0     ucrtd:ucrtbased.dll
 0006:000007d8       __imp_fread                00000001400497d8     ucrtd:ucrtbased.dll
 0006:000007e0       __imp_fclose               00000001400497e0     ucrtd:ucrtbased.dll
 0006:000007e8       __imp_fopen_s              00000001400497e8     ucrtd:ucrtbased.dll
 0006:000007f0       __imp_free                 00000001400497f0     ucrtd:ucrtbased.dll
 0006:000007f8       __imp__invalid_parameter   00000001400497f8     ucrtd:ucrtbased.dll
 0006:00000800       __imp___stdio_common_vsprintf 0000000140049800     ucrtd:ucrtbased.dll
 0006:00000808       __imp__initialize_wide_environment 0000000140049808     ucrtd:ucrtbased.dll
 0006:00000810       __imp___setusermatherr     0000000140049810     ucrtd:ucrtbased.dll
 0006:00000818       __imp__set_app_type        0000000140049818     ucrtd:ucrtbased.dll
 0006:00000820       __imp__seh_filter_exe      0000000140049820     ucrtd:ucrtbased.dll
 0006:00000828       __imp__cexit               0000000140049828     ucrtd:ucrtbased.dll
 0006:00000830       __imp__crt_at_quick_exit   0000000140049830     ucrtd:ucrtbased.dll
 0006:00000838       __imp_fmodf                0000000140049838     ucrtd:ucrtbased.dll
 0006:00000840       __imp__execute_onexit_table 0000000140049840     ucrtd:ucrtbased.dll
 0006:00000848       __imp__register_onexit_function 0000000140049848     ucrtd:ucrtbased.dll
 0006:00000850       __imp__wsplitpath_s        0000000140049850     ucrtd:ucrtbased.dll
 0006:00000858       __imp__initialize_onexit_table 0000000140049858     ucrtd:ucrtbased.dll
 0006:00000860       __imp___stdio_common_vfprintf 0000000140049860     ucrtd:ucrtbased.dll
 0006:00000868       __imp___acrt_iob_func      0000000140049868     ucrtd:ucrtbased.dll
 0006:00000870       __imp__CrtDbgReport        0000000140049870     ucrtd:ucrtbased.dll
 0006:00000878       __imp__set_new_mode        0000000140049878     ucrtd:ucrtbased.dll
 0006:00000880       __imp_exit                 0000000140049880     ucrtd:ucrtbased.dll
 0006:00000888       __imp__crt_atexit          0000000140049888     ucrtd:ucrtbased.dll
 0006:00000890       __imp_strlen               0000000140049890     ucrtd:ucrtbased.dll
 0006:00000898       \177ucrtbased_NULL_THUNK_DATA 0000000140049898     ucrtd:ucrtbased.dll
 0006:00000940       __IMPORT_DESCRIPTOR_DSOUND 0000000140049940     dsound:DSOUND.dll
 0006:00000954       __IMPORT_DESCRIPTOR_KERNEL32 0000000140049954     kernel32:KERNEL32.dll
 0006:00000968       __IMPORT_DESCRIPTOR_USER32 0000000140049968     user32:USER32.dll
 0006:0000097c       __IMPORT_DESCRIPTOR_freeglut 000000014004997c     freeglut:freeglut.dll
 0006:00000990       __IMPORT_DESCRIPTOR_GLU32  0000000140049990     glu32:GLU32.dll
 0006:000009a4       __IMPORT_DESCRIPTOR_OPENGL32 00000001400499a4     opengl32:OPENGL32.dll
 0006:000009b8       __IMPORT_DESCRIPTOR_XINPUT1_4 00000001400499b8     xinput:XINPUT1_4.dll
 0006:000009cc       __IMPORT_DESCRIPTOR_MSVCP140D 00000001400499cc     msvcprtd:MSVCP140D.dll
 0006:000009e0       __IMPORT_DESCRIPTOR_VCRUNTIME140_1D 00000001400499e0     vcruntimed:VCRUNTIME140_1D.dll
 0006:000009f4       __IMPORT_DESCRIPTOR_VCRUNTIME140D 00000001400499f4     vcruntimed:VCRUNTIME140D.dll
 0006:00000a08       __IMPORT_DESCRIPTOR_ucrtbased 0000000140049a08     ucrtd:ucrtbased.dll
 0006:00000a1c       __NULL_IMPORT_DESCRIPTOR   0000000140049a1c     dsound:DSOUND.dll
 0008:00000000       _tls_start                 000000014004d000     MSVCRTD:tlssup.obj
 0008:00000104       _Init_thread_epoch         000000014004d104     MSVCRTD:thread_safe_statics.obj
 0008:00000208       _tls_end                   000000014004d208     MSVCRTD:tlssup.obj
 0009:00000000       __guard_check_icall_fptr   000000014004e000     MSVCRTD:guard_support.obj
 0009:00000010       __guard_dispatch_icall_fptr 000000014004e010     MSVCRTD:guard_support.obj

 entry point at        0002:00000c3a

 Static symbols

 0000:fffaf000       .debug$S                   0000000140000000     dsound:DSOUND.dll
 0000:fffaf000       .debug$S                   0000000140000000     glu32:GLU32.dll
 0000:fffaf000       .debug$S                   0000000140000000     kernel32:KERNEL32.dll
 0000:fffaf000       .debug$S                   0000000140000000     kernel32:KERNEL32.dll
 0000:fffaf000       .debug$S                   0000000140000000     kernel32:KERNEL32.dll
 0000:fffaf000       .debug$S                   0000000140000000     kernel32:KERNEL32.dll
 0000:fffaf000       .debug$S                   0000000140000000     kernel32:KERNEL32.dll
 0000:fffaf000       .debug$S                   0000000140000000     kernel32:KERNEL32.dll
 0000:fffaf000       .debug$S                   0000000140000000     kernel32:KERNEL32.dll
 0000:fffaf000       .debug$S                   0000000140000000     kernel32:KERNEL32.dll
 0000:fffaf000       .debug$S                   0000000140000000     kernel32:KERNEL32.dll
 0000:fffaf000       .debug$S                   0000000140000000     kernel32:KERNEL32.dll
 0000:fffaf000       .debug$S                   0000000140000000     kernel32:KERNEL32.dll
 0000:fffaf000       .debug$S                   0000000140000000     kernel32:KERNEL32.dll
 0000:fffaf000       .debug$S                   0000000140000000     kernel32:KERNEL32.dll
 0000:fffaf000       .debug$S                   0000000140000000     kernel32:KERNEL32.dll
 0000:fffaf000       .debug$S                   0000000140000000     kernel32:KERNEL32.dll
 0000:fffaf000       .debug$S                   0000000140000000     kernel32:KERNEL32.dll
 0000:fffaf000       .debug$S                   0000000140000000     kernel32:KERNEL32.dll
 0000:fffaf000       .debug$S                   0000000140000000     kernel32:KERNEL32.dll
 0000:fffaf000       .debug$S                   0000000140000000     kernel32:KERNEL32.dll
 0000:fffaf000       .debug$S                   0000000140000000     kernel32:KERNEL32.dll
 0000:fffaf000       .debug$S                   0000000140000000     kernel32:KERNEL32.dll
 0000:fffaf000       .debug$S                   0000000140000000     kernel32:KERNEL32.dll
 0000:fffaf000       .debug$S                   0000000140000000     kernel32:KERNEL32.dll
 0000:fffaf000       .debug$S                   0000000140000000     kernel32:KERNEL32.dll
 0000:fffaf000       .debug$S                   0000000140000000     kernel32:KERNEL32.dll
 0000:fffaf000       .debug$S                   0000000140000000     kernel32:KERNEL32.dll
 0000:fffaf000       .debug$S                   0000000140000000     kernel32:KERNEL32.dll
 0000:fffaf000       .debug$S                   0000000140000000     kernel32:KERNEL32.dll
 0000:fffaf000       .debug$S                   0000000140000000     kernel32:KERNEL32.dll
 0000:fffaf000       .debug$S                   0000000140000000     kernel32:KERNEL32.dll
 0000:fffaf000       .debug$S                   0000000140000000     kernel32:KERNEL32.dll
 0000:fffaf000       .debug$S                   0000000140000000     kernel32:KERNEL32.dll
 0000:fffaf000       .debug$S                   0000000140000000     kernel32:KERNEL32.dll
 0000:fffaf000       .debug$S                   0000000140000000     kernel32:KERNEL32.dll
 0000:fffaf000       .debug$S                   0000000140000000     kernel32:KERNEL32.dll
 0000:fffaf000       .debug$S                   0000000140000000     kernel32:KERNEL32.dll
 0000:fffaf000       .debug$S                   0000000140000000     msvcprtd:MSVCP140D.dll
 0000:fffaf000       .debug$S                   0000000140000000     msvcprtd:MSVCP140D.dll
 0000:fffaf000       .debug$S                   0000000140000000     msvcprtd:MSVCP140D.dll
 0000:fffaf000       .debug$S                   0000000140000000     opengl32:OPENGL32.dll
 0000:fffaf000       .debug$S                   0000000140000000     opengl32:OPENGL32.dll
 0000:fffaf000       .debug$S                   0000000140000000     opengl32:OPENGL32.dll
 0000:fffaf000       .debug$S                   0000000140000000     opengl32:OPENGL32.dll
 0000:fffaf000       .debug$S                   0000000140000000     opengl32:OPENGL32.dll
 0000:fffaf000       .debug$S                   0000000140000000     opengl32:OPENGL32.dll
 0000:fffaf000       .debug$S                   0000000140000000     opengl32:OPENGL32.dll
 0000:fffaf000       .debug$S                   0000000140000000     opengl32:OPENGL32.dll
 0000:fffaf000       .debug$S                   0000000140000000     opengl32:OPENGL32.dll
 0000:fffaf000       .debug$S                   0000000140000000     opengl32:OPENGL32.dll
 0000:fffaf000       .debug$S                   0000000140000000     opengl32:OPENGL32.dll
 0000:fffaf000       .debug$S                   0000000140000000     opengl32:OPENGL32.dll
 0000:fffaf000       .debug$S                   0000000140000000     opengl32:OPENGL32.dll
 0000:fffaf000       .debug$S                   0000000140000000     opengl32:OPENGL32.dll
 0000:fffaf000       .debug$S                   0000000140000000     opengl32:OPENGL32.dll
 0000:fffaf000       .debug$S                   0000000140000000     opengl32:OPENGL32.dll
 0000:fffaf000       .debug$S                   0000000140000000     opengl32:OPENGL32.dll
 0000:fffaf000       .debug$S                   0000000140000000     opengl32:OPENGL32.dll
 0000:fffaf000       .debug$S                   0000000140000000     opengl32:OPENGL32.dll
 0000:fffaf000       .debug$S                   0000000140000000     opengl32:OPENGL32.dll
 0000:fffaf000       .debug$S                   0000000140000000     opengl32:OPENGL32.dll
 0000:fffaf000       .debug$S                   0000000140000000     opengl32:OPENGL32.dll
 0000:fffaf000       .debug$S                   0000000140000000     opengl32:OPENGL32.dll
 0000:fffaf000       .debug$S                   0000000140000000     user32:USER32.dll
 0000:fffaf000       .debug$S                   0000000140000000     user32:USER32.dll
 0000:fffaf000       .debug$S                   0000000140000000     user32:USER32.dll
 0000:fffaf000       .debug$S                   0000000140000000     user32:USER32.dll
 0000:fffaf000       .debug$S                   0000000140000000     user32:USER32.dll
 0000:fffaf000       .debug$S                   0000000140000000     vcruntimed:VCRUNTIME140D.dll
 0000:fffaf000       .debug$S                   0000000140000000     vcruntimed:VCRUNTIME140D.dll
 0000:fffaf000       .debug$S                   0000000140000000     vcruntimed:VCRUNTIME140D.dll
 0000:fffaf000       .debug$S                   0000000140000000     vcruntimed:VCRUNTIME140D.dll
 0000:fffaf000       .debug$S                   0000000140000000     vcruntimed:VCRUNTIME140D.dll
 0000:fffaf000       .debug$S                   0000000140000000     vcruntimed:VCRUNTIME140D.dll
 0000:fffaf000       .debug$S                   0000000140000000     vcruntimed:VCRUNTIME140D.dll
 0000:fffaf000       .debug$S                   0000000140000000     vcruntimed:VCRUNTIME140D.dll
 0000:fffaf000       .debug$S                   0000000140000000     vcruntimed:VCRUNTIME140D.dll
 0000:fffaf000       .debug$S                   0000000140000000     vcruntimed:VCRUNTIME140D.dll
 0000:fffaf000       .debug$S                   0000000140000000     vcruntimed:VCRUNTIME140D.dll
 0000:fffaf000       .debug$S                   0000000140000000     vcruntimed:VCRUNTIME140D.dll
 0000:fffaf000       .debug$S                   0000000140000000     vcruntimed:VCRUNTIME140D.dll
 0000:fffaf000       .debug$S                   0000000140000000     vcruntimed:VCRUNTIME140D.dll
 0000:fffaf000       .debug$S                   0000000140000000     vcruntimed:VCRUNTIME140D.dll
 0000:fffaf000       .debug$S                   0000000140000000     vcruntimed:VCRUNTIME140_1D.dll
 0000:fffaf000       .debug$S                   0000000140000000     xinput:XINPUT1_4.dll
 0000:fffb4000       __guard_fids_?pre_c_initialization@@YAHXZ 0000000140000000     MSVCRTD:exe_wwinmain.obj
 0000:fffb4000       __guard_fids__             0000000140000000     MSVCRTD:exe_wwinmain.obj
 0000:fffb4000       __guard_fids__             0000000140000000     MSVCRTD:guard_support.obj
 0000:fffb4000       __guard_fids__guard_icall_checks_enforced 0000000140000000     MSVCRTD:guard_support.obj
 0000:fffb4000       __guard_fids__CRT_RTC_INIT 0000000140000000     MSVCRTD:init.obj
 0000:fffb4000       __guard_fids__CRT_RTC_INITW 0000000140000000     MSVCRTD:init.obj
 0000:fffb4000       __guard_fids__             0000000140000000     MSVCRTD:std_type_info_static.obj
 0000:fffb4000       __guard_fids_?__scrt_initialize_thread_safe_statics@@YAHXZ 0000000140000000     MSVCRTD:thread_safe_statics.obj
 0000:fffb4000       __guard_fids__             0000000140000000     MSVCRTD:thread_safe_statics.obj
 0005:fffbb000       $pdata$??0bad_alloc@std@@AEAA@QEBD@Z 0000000140000000     MSVCRTD:throw_bad_alloc.obj
 0005:fffbb000       $pdata$??0bad_alloc@std@@QEAA@AEBV01@@Z 0000000140000000     MSVCRTD:throw_bad_alloc.obj
 0005:fffbb000       $pdata$??0bad_array_new_length@std@@QEAA@AEBV01@@Z 0000000140000000     MSVCRTD:throw_bad_alloc.obj
 0005:fffbb000       $pdata$??0bad_array_new_length@std@@QEAA@XZ 0000000140000000     MSVCRTD:throw_bad_alloc.obj
 0005:fffbb000       $pdata$??0exception@std@@QEAA@AEBV01@@Z 0000000140000000     MSVCRTD:throw_bad_alloc.obj
 0005:fffbb000       $pdata$??0exception@std@@QEAA@QEBDH@Z 0000000140000000     MSVCRTD:throw_bad_alloc.obj
 0005:fffbb000       $pdata$??1bad_alloc@std@@UEAA@XZ 0000000140000000     MSVCRTD:throw_bad_alloc.obj
 0005:fffbb000       $pdata$??1bad_array_new_length@std@@UEAA@XZ 0000000140000000     MSVCRTD:throw_bad_alloc.obj
 0005:fffbb000       $pdata$??1exception@std@@UEAA@XZ 0000000140000000     MSVCRTD:throw_bad_alloc.obj
 0005:fffbb000       $pdata$??_Gbad_alloc@std@@UEAAPEAXI@Z 0000000140000000     MSVCRTD:throw_bad_alloc.obj
 0005:fffbb000       $pdata$??_Gbad_array_new_length@std@@UEAAPEAXI@Z 0000000140000000     MSVCRTD:throw_bad_alloc.obj
 0005:fffbb000       $pdata$??_Gexception@std@@UEAAPEAXI@Z 0000000140000000     MSVCRTD:throw_bad_alloc.obj
 0005:fffbb000       $pdata$?what@exception@std@@UEBAPEBDXZ 0000000140000000     MSVCRTD:throw_bad_alloc.obj
 0003:fffcc000       $unwind$??0bad_alloc@std@@AEAA@QEBD@Z 0000000140000000     MSVCRTD:throw_bad_alloc.obj
 0003:fffcc000       $unwind$??0bad_alloc@std@@QEAA@AEBV01@@Z 0000000140000000     MSVCRTD:throw_bad_alloc.obj
 0003:fffcc000       $unwind$??0bad_array_new_length@std@@QEAA@AEBV01@@Z 0000000140000000     MSVCRTD:throw_bad_alloc.obj
 0003:fffcc000       $unwind$??0bad_array_new_length@std@@QEAA@XZ 0000000140000000     MSVCRTD:throw_bad_alloc.obj
 0003:fffcc000       $unwind$??0exception@std@@QEAA@AEBV01@@Z 0000000140000000     MSVCRTD:throw_bad_alloc.obj
 0003:fffcc000       $unwind$??0exception@std@@QEAA@QEBDH@Z 0000000140000000     MSVCRTD:throw_bad_alloc.obj
 0003:fffcc000       $unwind$??1bad_alloc@std@@UEAA@XZ 0000000140000000     MSVCRTD:throw_bad_alloc.obj
 0003:fffcc000       $unwind$??1bad_array_new_length@std@@UEAA@XZ 0000000140000000     MSVCRTD:throw_bad_alloc.obj
 0003:fffcc000       $unwind$??1exception@std@@UEAA@XZ 0000000140000000     MSVCRTD:throw_bad_alloc.obj
 0003:fffcc000       $unwind$??_Gbad_alloc@std@@UEAAPEAXI@Z 0000000140000000     MSVCRTD:throw_bad_alloc.obj
 0003:fffcc000       $unwind$??_Gbad_array_new_length@std@@UEAAPEAXI@Z 0000000140000000     MSVCRTD:throw_bad_alloc.obj
 0003:fffcc000       $unwind$??_Gexception@std@@UEAAPEAXI@Z 0000000140000000     MSVCRTD:throw_bad_alloc.obj
 0003:fffcc000       $unwind$?what@exception@std@@UEBAPEBDXZ 0000000140000000     MSVCRTD:throw_bad_alloc.obj
 0000:fffb4000       __guard_fids__             0000000140000000     MSVCRTD:throw_bad_alloc.obj
 0000:fffb4000       __guard_fids__             0000000140000000     MSVCRTD:throw_bad_alloc.obj
 0000:fffb4000       __guard_fids__             0000000140000000     MSVCRTD:throw_bad_alloc.obj
 0000:fffb4000       __guard_fids___scrt_set_unhandled_exception_filter 0000000140000000     MSVCRTD:utility_desktop.obj
 0000:fffaf000       .debug$S                   0000000140000000     freeglut:freeglut.dll
 0000:fffaf000       .debug$S                   0000000140000000     freeglut:freeglut.dll
 0000:fffaf000       .debug$S                   0000000140000000     freeglut:freeglut.dll
 0000:fffaf000       .debug$S                   0000000140000000     freeglut:freeglut.dll
 0000:fffaf000       .debug$S                   0000000140000000     freeglut:freeglut.dll
 0000:fffaf000       .debug$S                   0000000140000000     freeglut:freeglut.dll
 0000:fffaf000       .debug$S                   0000000140000000     freeglut:freeglut.dll
 0000:fffaf000       .debug$S                   0000000140000000     freeglut:freeglut.dll
 0000:fffaf000       .debug$S                   0000000140000000     freeglut:freeglut.dll
 0000:fffaf000       .debug$S                   0000000140000000     freeglut:freeglut.dll
 0000:fffaf000       .debug$S                   0000000140000000     ucrtd:ucrtbased.dll
 0000:fffaf000       .debug$S                   0000000140000000     ucrtd:ucrtbased.dll
 0000:fffaf000       .debug$S                   0000000140000000     ucrtd:ucrtbased.dll
 0000:fffaf000       .debug$S                   0000000140000000     ucrtd:ucrtbased.dll
 0000:fffaf000       .debug$S                   0000000140000000     ucrtd:ucrtbased.dll
 0000:fffaf000       .debug$S                   0000000140000000     ucrtd:ucrtbased.dll
 0000:fffaf000       .debug$S                   0000000140000000     ucrtd:ucrtbased.dll
 0000:fffaf000       .debug$S                   0000000140000000     ucrtd:ucrtbased.dll
 0000:fffaf000       .debug$S                   0000000140000000     ucrtd:ucrtbased.dll
 0000:fffaf000       .debug$S                   0000000140000000     ucrtd:ucrtbased.dll
 0000:fffaf000       .debug$S                   0000000140000000     ucrtd:ucrtbased.dll
 0000:fffaf000       .debug$S                   0000000140000000     ucrtd:ucrtbased.dll
 0000:fffaf000       .debug$S                   0000000140000000     ucrtd:ucrtbased.dll
 0000:fffaf000       .debug$S                   0000000140000000     ucrtd:ucrtbased.dll
 0000:fffaf000       .debug$S                   0000000140000000     ucrtd:ucrtbased.dll
 0000:fffaf000       .debug$S                   0000000140000000     ucrtd:ucrtbased.dll
 0000:fffaf000       .debug$S                   0000000140000000     ucrtd:ucrtbased.dll
 0000:fffaf000       .debug$S                   0000000140000000     ucrtd:ucrtbased.dll
 0000:fffaf000       .debug$S                   0000000140000000     ucrtd:ucrtbased.dll
 0000:fffaf000       .debug$S                   0000000140000000     ucrtd:ucrtbased.dll
 0000:fffaf000       .debug$S                   0000000140000000     ucrtd:ucrtbased.dll
 0000:fffaf000       .debug$S                   0000000140000000     ucrtd:ucrtbased.dll
 0000:fffaf000       .debug$S                   0000000140000000     ucrtd:ucrtbased.dll
 0000:fffaf000       .debug$S                   0000000140000000     ucrtd:ucrtbased.dll
 0000:fffaf000       .debug$S                   0000000140000000     ucrtd:ucrtbased.dll
 0000:fffaf000       .debug$S                   0000000140000000     ucrtd:ucrtbased.dll
 0000:fffaf000       .debug$S                   0000000140000000     ucrtd:ucrtbased.dll
 0000:fffaf000       .debug$S                   0000000140000000     ucrtd:ucrtbased.dll
 0000:fffaf000       .debug$S                   0000000140000000     ucrtd:ucrtbased.dll
 0000:fffaf000       .debug$S                   0000000140000000     ucrtd:ucrtbased.dll
 0000:fffaf000       .debug$S                   0000000140000000     ucrtd:ucrtbased.dll
 0000:fffaf000       .debug$S                   0000000140000000     ucrtd:ucrtbased.dll
 0000:fffaf000       .debug$S                   0000000140000000     ucrtd:ucrtbased.dll
 0000:fffaf000       .debug$S                   0000000140000000     ucrtd:ucrtbased.dll
 0000:fffaf000       .debug$S                   0000000140000000     ucrtd:ucrtbased.dll
 0000:fffaf000       .debug$S                   0000000140000000     ucrtd:ucrtbased.dll
 0000:fffaf000       .debug$S                   0000000140000000     ucrtd:ucrtbased.dll
 0000:fffaf000       .debug$S                   0000000140000000     ucrtd:ucrtbased.dll
 0000:fffaf000       .debug$S                   0000000140000000     ucrtd:ucrtbased.dll
 0000:fffaf000       .debug$S                   0000000140000000     ucrtd:ucrtbased.dll
 0000:fffaf000       .debug$S                   0000000140000000     ucrtd:ucrtbased.dll
 0000:fffaf000       .debug$S                   0000000140000000     ucrtd:ucrtbased.dll
 0000:fffaf000       .debug$S                   0000000140000000     ucrtd:ucrtbased.dll
 0000:fffaf000       .debug$S                   0000000140000000     ucrtd:ucrtbased.dll
 0000:fffaf000       .debug$S                   0000000140000000     ucrtd:ucrtbased.dll
 0000:fffaf000       .debug$S                   0000000140000000     ucrtd:ucrtbased.dll
 0000:fffaf000       .debug$S                   0000000140000000     ucrtd:ucrtbased.dll
 0000:fffaf000       .debug$S                   0000000140000000     ucrtd:ucrtbased.dll
 0000:fffaf000       .debug$S                   0000000140000000     ucrtd:ucrtbased.dll
 0000:fffaf000       .debug$S                   0000000140000000     ucrtd:ucrtbased.dll
 0000:fffaf000       .debug$S                   0000000140000000     ucrtd:ucrtbased.dll
 0000:fffaf000       .debug$S                   0000000140000000     ucrtd:ucrtbased.dll
 0005:fffbb000       $pdata$?GetPosition@CSimpleSprite@@QEAAXAEAM0@Z 0000000140000000     Character.obj
 0005:fffbb000       $pdata$?SetPosition@CSimpleSprite@@QEAAXMM@Z 0000000140000000     Character.obj
 0005:fffbb000       $pdata$?SetScale@CSimpleSprite@@QEAAXM@Z 0000000140000000     Character.obj
 0003:fffcc000       $unwind$?GetPosition@CSimpleSprite@@QEAAXAEAM0@Z 0000000140000000     Character.obj
 0003:fffcc000       $unwind$?SetPosition@CSimpleSprite@@QEAAXMM@Z 0000000140000000     Character.obj
 0003:fffcc000       $unwind$?SetScale@CSimpleSprite@@QEAAXM@Z 0000000140000000     Character.obj
 0005:fffbb000       $pdata$?GetHeight@CSimpleSprite@@QEBAMXZ 0000000140000000     Obstacle.obj
 0005:fffbb000       $pdata$?GetPosition@CSimpleSprite@@QEAAXAEAM0@Z 0000000140000000     Obstacle.obj
 0005:fffbb000       $pdata$?GetWidth@CSimpleSprite@@QEBAMXZ 0000000140000000     Obstacle.obj
 0003:fffcc000       $unwind$?GetHeight@CSimpleSprite@@QEBAMXZ 0000000140000000     Obstacle.obj
 0003:fffcc000       $unwind$?GetPosition@CSimpleSprite@@QEAAXAEAM0@Z 0000000140000000     Obstacle.obj
 0003:fffcc000       $unwind$?GetWidth@CSimpleSprite@@QEBAMXZ 0000000140000000     Obstacle.obj
 0003:fffcc000       $cppxdata$??$?0AEBQEBD$0A@@?$tuple@AEBQEBD@std@@QEAA@AEBQEBD@Z 0000000140000000     Framework:SimpleSound.obj
 0003:fffcc000       $cppxdata$??$?0U_Exact_args_t@std@@$0A@@?$tuple@$$V@std@@QEAA@U_Exact_args_t@1@@Z 0000000140000000     Framework:SimpleSound.obj
 0003:fffcc000       $cppxdata$??$_Construct_in_place@U_Container_proxy@std@@PEAU_Container_base12@2@@std@@YAXAEAU_Container_proxy@0@$$QEAPEAU_Container_base12@0@@Z 0000000140000000     Framework:SimpleSound.obj
 0003:fffcc000       $cppxdata$??$_Deallocate@$0BA@$0A@@std@@YAXPEAX_K@Z 0000000140000000     Framework:SimpleSound.obj
 0003:fffcc000       $cppxdata$??$_Deallocate_plain@V?$allocator@U_Container_proxy@std@@@std@@@std@@YAXAEAV?$allocator@U_Container_proxy@std@@@0@QEAU_Container_proxy@0@@Z 0000000140000000     Framework:SimpleSound.obj
 0003:fffcc000       $cppxdata$??$_Delete_plain_internal@V?$allocator@U_Container_proxy@std@@@std@@@std@@YAXAEAV?$allocator@U_Container_proxy@std@@@0@QEAU_Container_proxy@0@@Z 0000000140000000     Framework:SimpleSound.obj
 0003:fffcc000       $cppxdata$??$_Min_value@_K@std@@YAAEB_KAEB_K0@Z 0000000140000000     Framework:SimpleSound.obj
 0003:fffcc000       $cppxdata$??$addressof@U_Container_base12@std@@@std@@YAPEAU_Container_base12@0@AEAU10@@Z 0000000140000000     Framework:SimpleSound.obj
 0003:fffcc000       $cppxdata$??$addressof@U_Container_proxy@std@@@std@@YAPEAU_Container_proxy@0@AEAU10@@Z 0000000140000000     Framework:SimpleSound.obj
 0003:fffcc000       $cppxdata$??$forward@AEBQEBD@std@@YAAEBQEBDAEBQEBD@Z 0000000140000000     Framework:SimpleSound.obj
 0003:fffcc000       $cppxdata$??$forward@AEBU?$less@PEBD@std@@@std@@YAAEBU?$less@PEBD@0@AEBU10@@Z 0000000140000000     Framework:SimpleSound.obj
 0003:fffcc000       $cppxdata$??$forward@AEBUpiecewise_construct_t@std@@@std@@YAAEBUpiecewise_construct_t@0@AEBU10@@Z 0000000140000000     Framework:SimpleSound.obj
 0003:fffcc000       $cppxdata$??$forward@PEAU_Container_base12@std@@@std@@YA$$QEAPEAU_Container_base12@0@AEAPEAU10@@Z 0000000140000000     Framework:SimpleSound.obj
 0003:fffcc000       $cppxdata$??$forward@U_Zero_then_variadic_args_t@std@@@std@@YA$$QEAU_Zero_then_variadic_args_t@0@AEAU10@@Z 0000000140000000     Framework:SimpleSound.obj
 0003:fffcc000       $cppxdata$??$forward@V?$tuple@$$V@std@@@std@@YA$$QEAV?$tuple@$$V@0@AEAV10@@Z 0000000140000000     Framework:SimpleSound.obj
 0003:fffcc000       $cppxdata$??$forward@V?$tuple@AEBQEBD@std@@@std@@YA$$QEAV?$tuple@AEBQEBD@0@AEAV10@@Z 0000000140000000     Framework:SimpleSound.obj
 0003:fffcc000       $cppxdata$??$forward@_N@std@@YA$$QEA_NAEA_N@Z 0000000140000000     Framework:SimpleSound.obj
 0003:fffcc000       $cppxdata$??$forward_as_tuple@$$V@std@@YA?AV?$tuple@$$V@0@XZ 0000000140000000     Framework:SimpleSound.obj
 0003:fffcc000       $cppxdata$??$forward_as_tuple@AEBQEBD@std@@YA?AV?$tuple@AEBQEBD@0@AEBQEBD@Z 0000000140000000     Framework:SimpleSound.obj
 0003:fffcc000       $cppxdata$??$get@$0A@AEBQEBD@std@@YAAEBQEBD$$QEAV?$tuple@AEBQEBD@0@@Z 0000000140000000     Framework:SimpleSound.obj
 0003:fffcc000       $cppxdata$??$move@AEAV?$tuple@AEBQEBD@std@@@std@@YA$$QEAV?$tuple@AEBQEBD@0@AEAV10@@Z 0000000140000000     Framework:SimpleSound.obj
 0003:fffcc000       $cppxdata$??0?$tuple@$$V@std@@QEAA@AEBV01@@Z 0000000140000000     Framework:SimpleSound.obj
 0003:fffcc000       $cppxdata$??0?$tuple@$$V@std@@QEAA@XZ 0000000140000000     Framework:SimpleSound.obj
 0003:fffcc000       $cppxdata$??0?$tuple@AEBQEBD@std@@QEAA@$$QEAV01@@Z 0000000140000000     Framework:SimpleSound.obj
 0003:fffcc000       $cppxdata$??0_Container_proxy@std@@QEAA@PEAU_Container_base12@1@@Z 0000000140000000     Framework:SimpleSound.obj
 0003:fffcc000       $cppxdata$??0bad_alloc@std@@AEAA@QEBD@Z 0000000140000000     Framework:SimpleSound.obj
 0003:fffcc000       $cppxdata$??0bad_array_new_length@std@@QEAA@XZ 0000000140000000     Framework:SimpleSound.obj
 0003:fffcc000       $cppxdata$??0exception@std@@QEAA@AEBV01@@Z 0000000140000000     Framework:SimpleSound.obj
 0003:fffcc000       $cppxdata$??0exception@std@@QEAA@QEBDH@Z 0000000140000000     Framework:SimpleSound.obj
 0003:fffcc000       $cppxdata$??1?$_Container_proxy_ptr12@V?$allocator@U_Container_proxy@std@@@std@@@std@@QEAA@XZ 0000000140000000     Framework:SimpleSound.obj
 0003:fffcc000       $cppxdata$??1exception@std@@UEAA@XZ 0000000140000000     Framework:SimpleSound.obj
 0003:fffcc000       $cppxdata$??2@YAPEAX_KPEAX@Z 0000000140000000     Framework:SimpleSound.obj
 0003:fffcc000       $cppxdata$?_Orphan_all@_Container_base12@std@@QEAAXXZ 0000000140000000     Framework:SimpleSound.obj
 0003:fffcc000       $cppxdata$?_Release@_Basic_container_proxy_ptr12@std@@QEAAXXZ 0000000140000000     Framework:SimpleSound.obj
 0003:fffcc000       $cppxdata$?max@?$numeric_limits@_J@std@@SA_JXZ 0000000140000000     Framework:SimpleSound.obj
 0003:fffcc000       $ip2state$??$?0AEBQEBD$0A@@?$tuple@AEBQEBD@std@@QEAA@AEBQEBD@Z 0000000140000000     Framework:SimpleSound.obj
 0003:fffcc000       $ip2state$??$?0U_Exact_args_t@std@@$0A@@?$tuple@$$V@std@@QEAA@U_Exact_args_t@1@@Z 0000000140000000     Framework:SimpleSound.obj
 0003:fffcc000       $ip2state$??$_Construct_in_place@U_Container_proxy@std@@PEAU_Container_base12@2@@std@@YAXAEAU_Container_proxy@0@$$QEAPEAU_Container_base12@0@@Z 0000000140000000     Framework:SimpleSound.obj
 0003:fffcc000       $ip2state$??$_Deallocate@$0BA@$0A@@std@@YAXPEAX_K@Z 0000000140000000     Framework:SimpleSound.obj
 0003:fffcc000       $ip2state$??$_Deallocate_plain@V?$allocator@U_Container_proxy@std@@@std@@@std@@YAXAEAV?$allocator@U_Container_proxy@std@@@0@QEAU_Container_proxy@0@@Z 0000000140000000     Framework:SimpleSound.obj
 0003:fffcc000       $ip2state$??$_Delete_plain_internal@V?$allocator@U_Container_proxy@std@@@std@@@std@@YAXAEAV?$allocator@U_Container_proxy@std@@@0@QEAU_Container_proxy@0@@Z 0000000140000000     Framework:SimpleSound.obj
 0003:fffcc000       $ip2state$??$_Min_value@_K@std@@YAAEB_KAEB_K0@Z 0000000140000000     Framework:SimpleSound.obj
 0003:fffcc000       $ip2state$??$addressof@U_Container_base12@std@@@std@@YAPEAU_Container_base12@0@AEAU10@@Z 0000000140000000     Framework:SimpleSound.obj
 0003:fffcc000       $ip2state$??$addressof@U_Container_proxy@std@@@std@@YAPEAU_Container_proxy@0@AEAU10@@Z 0000000140000000     Framework:SimpleSound.obj
 0003:fffcc000       $ip2state$??$forward@AEBQEBD@std@@YAAEBQEBDAEBQEBD@Z 0000000140000000     Framework:SimpleSound.obj
 0003:fffcc000       $ip2state$??$forward@AEBU?$less@PEBD@std@@@std@@YAAEBU?$less@PEBD@0@AEBU10@@Z 0000000140000000     Framework:SimpleSound.obj
 0003:fffcc000       $ip2state$??$forward@AEBUpiecewise_construct_t@std@@@std@@YAAEBUpiecewise_construct_t@0@AEBU10@@Z 0000000140000000     Framework:SimpleSound.obj
 0003:fffcc000       $ip2state$??$forward@PEAU_Container_base12@std@@@std@@YA$$QEAPEAU_Container_base12@0@AEAPEAU10@@Z 0000000140000000     Framework:SimpleSound.obj
 0003:fffcc000       $ip2state$??$forward@U_Zero_then_variadic_args_t@std@@@std@@YA$$QEAU_Zero_then_variadic_args_t@0@AEAU10@@Z 0000000140000000     Framework:SimpleSound.obj
 0003:fffcc000       $ip2state$??$forward@V?$tuple@$$V@std@@@std@@YA$$QEAV?$tuple@$$V@0@AEAV10@@Z 0000000140000000     Framework:SimpleSound.obj
 0003:fffcc000       $ip2state$??$forward@V?$tuple@AEBQEBD@std@@@std@@YA$$QEAV?$tuple@AEBQEBD@0@AEAV10@@Z 0000000140000000     Framework:SimpleSound.obj
 0003:fffcc000       $ip2state$??$forward@_N@std@@YA$$QEA_NAEA_N@Z 0000000140000000     Framework:SimpleSound.obj
 0003:fffcc000       $ip2state$??$forward_as_tuple@$$V@std@@YA?AV?$tuple@$$V@0@XZ 0000000140000000     Framework:SimpleSound.obj
 0003:fffcc000       $ip2state$??$forward_as_tuple@AEBQEBD@std@@YA?AV?$tuple@AEBQEBD@0@AEBQEBD@Z 0000000140000000     Framework:SimpleSound.obj
 0003:fffcc000       $ip2state$??$get@$0A@AEBQEBD@std@@YAAEBQEBD$$QEAV?$tuple@AEBQEBD@0@@Z 0000000140000000     Framework:SimpleSound.obj
 0003:fffcc000       $ip2state$??$move@AEAV?$tuple@AEBQEBD@std@@@std@@YA$$QEAV?$tuple@AEBQEBD@0@AEAV10@@Z 0000000140000000     Framework:SimpleSound.obj
 0003:fffcc000       $ip2state$??0?$tuple@$$V@std@@QEAA@AEBV01@@Z 0000000140000000     Framework:SimpleSound.obj
 0003:fffcc000       $ip2state$??0?$tuple@$$V@std@@QEAA@XZ 0000000140000000     Framework:SimpleSound.obj
 0003:fffcc000       $ip2state$??0?$tuple@AEBQEBD@std@@QEAA@$$QEAV01@@Z 0000000140000000     Framework:SimpleSound.obj
 0003:fffcc000       $ip2state$??0_Container_proxy@std@@QEAA@PEAU_Container_base12@1@@Z 0000000140000000     Framework:SimpleSound.obj
 0003:fffcc000       $ip2state$??0bad_alloc@std@@AEAA@QEBD@Z 0000000140000000     Framework:SimpleSound.obj
 0003:fffcc000       $ip2state$??0bad_array_new_length@std@@QEAA@XZ 0000000140000000     Framework:SimpleSound.obj
 0003:fffcc000       $ip2state$??0exception@std@@QEAA@AEBV01@@Z 0000000140000000     Framework:SimpleSound.obj
 0003:fffcc000       $ip2state$??0exception@std@@QEAA@QEBDH@Z 0000000140000000     Framework:SimpleSound.obj
 0003:fffcc000       $ip2state$??1?$_Container_proxy_ptr12@V?$allocator@U_Container_proxy@std@@@std@@@std@@QEAA@XZ 0000000140000000     Framework:SimpleSound.obj
 0003:fffcc000       $ip2state$??1exception@std@@UEAA@XZ 0000000140000000     Framework:SimpleSound.obj
 0003:fffcc000       $ip2state$??2@YAPEAX_KPEAX@Z 0000000140000000     Framework:SimpleSound.obj
 0003:fffcc000       $ip2state$?_Orphan_all@_Container_base12@std@@QEAAXXZ 0000000140000000     Framework:SimpleSound.obj
 0003:fffcc000       $ip2state$?_Release@_Basic_container_proxy_ptr12@std@@QEAAXXZ 0000000140000000     Framework:SimpleSound.obj
 0003:fffcc000       $ip2state$?max@?$numeric_limits@_J@std@@SA_JXZ 0000000140000000     Framework:SimpleSound.obj
 0005:fffbb000       $pdata$??$?0AEBQEBD$0A@@?$tuple@AEBQEBD@std@@QEAA@AEBQEBD@Z 0000000140000000     Framework:SimpleSound.obj
 0005:fffbb000       $pdata$??$?0AEBQEBD@?$_Tuple_val@AEBQEBD@std@@QEAA@AEBQEBD@Z 0000000140000000     Framework:SimpleSound.obj
 0005:fffbb000       $pdata$??$?0U_Exact_args_t@std@@$0A@@?$tuple@$$V@std@@QEAA@U_Exact_args_t@1@@Z 0000000140000000     Framework:SimpleSound.obj
 0005:fffbb000       $pdata$??$?0U_Exact_args_t@std@@AEBQEBD$$V$0A@@?$tuple@AEBQEBD@std@@QEAA@U_Exact_args_t@1@AEBQEBD@Z 0000000140000000     Framework:SimpleSound.obj
 0005:fffbb000       $pdata$??$_Allocate@$0BA@U_Default_allocate_traits@std@@$0A@@std@@YAPEAX_K@Z 0000000140000000     Framework:SimpleSound.obj
 0005:fffbb000       $pdata$??$_Allocate_manually_vector_aligned@U_Default_allocate_traits@std@@@std@@YAPEAX_K@Z 0000000140000000     Framework:SimpleSound.obj
 0005:fffbb000       $pdata$??$_Construct_in_place@U_Container_proxy@std@@PEAU_Container_base12@2@@std@@YAXAEAU_Container_proxy@0@$$QEAPEAU_Container_base12@0@@Z 0000000140000000     Framework:SimpleSound.obj
 0005:fffbb000       $pdata$??$_Deallocate@$0BA@$0A@@std@@YAXPEAX_K@Z 0000000140000000     Framework:SimpleSound.obj
 0005:fffbb000       $pdata$??$_Deallocate_plain@V?$allocator@U_Container_proxy@std@@@std@@@std@@YAXAEAV?$allocator@U_Container_proxy@std@@@0@QEAU_Container_proxy@0@@Z 0000000140000000     Framework:SimpleSound.obj
 0005:fffbb000       $pdata$??$_Debug_lt_pred@AEBU?$less@PEBD@std@@AEBQEBDAEBQEBD$0A@@std@@YA_NAEBU?$less@PEBD@0@AEBQEBD1@Z 0000000140000000     Framework:SimpleSound.obj
 0005:fffbb000       $pdata$??$_Delete_plain_internal@V?$allocator@U_Container_proxy@std@@@std@@@std@@YAXAEAV?$allocator@U_Container_proxy@std@@@0@QEAU_Container_proxy@0@@Z 0000000140000000     Framework:SimpleSound.obj
 0005:fffbb000       $pdata$??$_Get_size_of_n@$0BA@@std@@YA_K_K@Z 0000000140000000     Framework:SimpleSound.obj
 0005:fffbb000       $pdata$??$_Min_value@_K@std@@YAAEB_KAEB_K0@Z 0000000140000000     Framework:SimpleSound.obj
 0005:fffbb000       $pdata$??$_Unfancy@U_Container_proxy@std@@@std@@YAPEAU_Container_proxy@0@PEAU10@@Z 0000000140000000     Framework:SimpleSound.obj
 0005:fffbb000       $pdata$??$addressof@U_Container_base12@std@@@std@@YAPEAU_Container_base12@0@AEAU10@@Z 0000000140000000     Framework:SimpleSound.obj
 0005:fffbb000       $pdata$??$addressof@U_Container_proxy@std@@@std@@YAPEAU_Container_proxy@0@AEAU10@@Z 0000000140000000     Framework:SimpleSound.obj
 0005:fffbb000       $pdata$??$forward@AEBQEBD@std@@YAAEBQEBDAEBQEBD@Z 0000000140000000     Framework:SimpleSound.obj
 0005:fffbb000       $pdata$??$forward@AEBU?$less@PEBD@std@@@std@@YAAEBU?$less@PEBD@0@AEBU10@@Z 0000000140000000     Framework:SimpleSound.obj
 0005:fffbb000       $pdata$??$forward@AEBUpiecewise_construct_t@std@@@std@@YAAEBUpiecewise_construct_t@0@AEBU10@@Z 0000000140000000     Framework:SimpleSound.obj
 0005:fffbb000       $pdata$??$forward@PEAU_Container_base12@std@@@std@@YA$$QEAPEAU_Container_base12@0@AEAPEAU10@@Z 0000000140000000     Framework:SimpleSound.obj
 0005:fffbb000       $pdata$??$forward@U_Zero_then_variadic_args_t@std@@@std@@YA$$QEAU_Zero_then_variadic_args_t@0@AEAU10@@Z 0000000140000000     Framework:SimpleSound.obj
 0005:fffbb000       $pdata$??$forward@V?$tuple@$$V@std@@@std@@YA$$QEAV?$tuple@$$V@0@AEAV10@@Z 0000000140000000     Framework:SimpleSound.obj
 0005:fffbb000       $pdata$??$forward@V?$tuple@AEBQEBD@std@@@std@@YA$$QEAV?$tuple@AEBQEBD@0@AEAV10@@Z 0000000140000000     Framework:SimpleSound.obj
 0005:fffbb000       $pdata$??$forward@_N@std@@YA$$QEA_NAEA_N@Z 0000000140000000     Framework:SimpleSound.obj
 0005:fffbb000       $pdata$??$forward_as_tuple@$$V@std@@YA?AV?$tuple@$$V@0@XZ 0000000140000000     Framework:SimpleSound.obj
 0005:fffbb000       $pdata$??$forward_as_tuple@AEBQEBD@std@@YA?AV?$tuple@AEBQEBD@0@AEBQEBD@Z 0000000140000000     Framework:SimpleSound.obj
 0005:fffbb000       $pdata$??$get@$0A@AEBQEBD@std@@YAAEBQEBD$$QEAV?$tuple@AEBQEBD@0@@Z 0000000140000000     Framework:SimpleSound.obj
 0005:fffbb000       $pdata$??$move@AEAV?$tuple@AEBQEBD@std@@@std@@YA$$QEAV?$tuple@AEBQEBD@0@AEAV10@@Z 0000000140000000     Framework:SimpleSound.obj
 0005:fffbb000       $pdata$??0?$_Container_proxy_ptr12@V?$allocator@U_Container_proxy@std@@@std@@@std@@QEAA@AEAV?$allocator@U_Container_proxy@std@@@1@AEAU_Container_base12@1@@Z 0000000140000000     Framework:SimpleSound.obj
 0005:fffbb000       $pdata$??0?$tuple@$$V@std@@QEAA@AEBV01@@Z 0000000140000000     Framework:SimpleSound.obj
 0005:fffbb000       $pdata$??0?$tuple@$$V@std@@QEAA@XZ 0000000140000000     Framework:SimpleSound.obj
 0005:fffbb000       $pdata$??0?$tuple@AEBQEBD@std@@QEAA@$$QEAV01@@Z 0000000140000000     Framework:SimpleSound.obj
 0005:fffbb000       $pdata$??0_Container_base12@std@@QEAA@XZ 0000000140000000     Framework:SimpleSound.obj
 0005:fffbb000       $pdata$??0_Container_proxy@std@@QEAA@PEAU_Container_base12@1@@Z 0000000140000000     Framework:SimpleSound.obj
 0005:fffbb000       $pdata$??0bad_alloc@std@@AEAA@QEBD@Z 0000000140000000     Framework:SimpleSound.obj
 0005:fffbb000       $pdata$??0bad_alloc@std@@QEAA@AEBV01@@Z 0000000140000000     Framework:SimpleSound.obj
 0005:fffbb000       $pdata$??0bad_array_new_length@std@@QEAA@AEBV01@@Z 0000000140000000     Framework:SimpleSound.obj
 0005:fffbb000       $pdata$??0bad_array_new_length@std@@QEAA@XZ 0000000140000000     Framework:SimpleSound.obj
 0005:fffbb000       $pdata$??0exception@std@@QEAA@AEBV01@@Z 0000000140000000     Framework:SimpleSound.obj
 0005:fffbb000       $pdata$??0exception@std@@QEAA@QEBDH@Z 0000000140000000     Framework:SimpleSound.obj
 0005:fffbb000       $pdata$??1?$_Container_proxy_ptr12@V?$allocator@U_Container_proxy@std@@@std@@@std@@QEAA@XZ 0000000140000000     Framework:SimpleSound.obj
 0005:fffbb000       $pdata$??1bad_alloc@std@@UEAA@XZ 0000000140000000     Framework:SimpleSound.obj
 0005:fffbb000       $pdata$??1bad_array_new_length@std@@UEAA@XZ 0000000140000000     Framework:SimpleSound.obj
 0005:fffbb000       $pdata$??1exception@std@@UEAA@XZ 0000000140000000     Framework:SimpleSound.obj
 0005:fffbb000       $pdata$??2@YAPEAX_KPEAX@Z  0000000140000000     Framework:SimpleSound.obj
 0005:fffbb000       $pdata$??R?$less@PEBD@std@@QEBA_NAEBQEBD0@Z 0000000140000000     Framework:SimpleSound.obj
 0005:fffbb000       $pdata$??_Gbad_alloc@std@@UEAAPEAXI@Z 0000000140000000     Framework:SimpleSound.obj
 0005:fffbb000       $pdata$??_Gbad_array_new_length@std@@UEAAPEAXI@Z 0000000140000000     Framework:SimpleSound.obj
 0005:fffbb000       $pdata$??_Gexception@std@@UEAAPEAXI@Z 0000000140000000     Framework:SimpleSound.obj
 0005:fffbb000       $pdata$?_Adjust_manually_vector_aligned@std@@YAXAEAPEAXAEA_K@Z 0000000140000000     Framework:SimpleSound.obj
 0005:fffbb000       $pdata$?_Allocate@_Default_allocate_traits@std@@SAPEAX_K@Z 0000000140000000     Framework:SimpleSound.obj
 0005:fffbb000       $pdata$?_Orphan_all@_Container_base12@std@@QEAAXXZ 0000000140000000     Framework:SimpleSound.obj
 0005:fffbb000       $pdata$?_Release@_Basic_container_proxy_ptr12@std@@QEAAXXZ 0000000140000000     Framework:SimpleSound.obj
 0005:fffbb000       $pdata$?_Throw_bad_array_new_length@std@@YAXXZ 0000000140000000     Framework:SimpleSound.obj
 0005:fffbb000       $pdata$?_Throw_tree_length_error@std@@YAXXZ 0000000140000000     Framework:SimpleSound.obj
 0005:fffbb000       $pdata$?allocate@?$allocator@U_Container_proxy@std@@@std@@QEAAPEAU_Container_proxy@2@_K@Z 0000000140000000     Framework:SimpleSound.obj
 0005:fffbb000       $pdata$?deallocate@?$_Default_allocator_traits@V?$allocator@U_Container_proxy@std@@@std@@@std@@SAXAEAV?$allocator@U_Container_proxy@std@@@2@QEAU_Container_proxy@2@_K@Z 0000000140000000     Framework:SimpleSound.obj
 0005:fffbb000       $pdata$?max@?$numeric_limits@_J@std@@SA_JXZ 0000000140000000     Framework:SimpleSound.obj
 0005:fffbb000       $pdata$?what@exception@std@@UEBAPEBDXZ 0000000140000000     Framework:SimpleSound.obj
 0003:fffcc000       $unwind$??$?0AEBQEBD$0A@@?$tuple@AEBQEBD@std@@QEAA@AEBQEBD@Z 0000000140000000     Framework:SimpleSound.obj
 0003:fffcc000       $unwind$??$?0AEBQEBD@?$_Tuple_val@AEBQEBD@std@@QEAA@AEBQEBD@Z 0000000140000000     Framework:SimpleSound.obj
 0003:fffcc000       $unwind$??$?0U_Exact_args_t@std@@$0A@@?$tuple@$$V@std@@QEAA@U_Exact_args_t@1@@Z 0000000140000000     Framework:SimpleSound.obj
 0003:fffcc000       $unwind$??$?0U_Exact_args_t@std@@AEBQEBD$$V$0A@@?$tuple@AEBQEBD@std@@QEAA@U_Exact_args_t@1@AEBQEBD@Z 0000000140000000     Framework:SimpleSound.obj
 0003:fffcc000       $unwind$??$_Allocate@$0BA@U_Default_allocate_traits@std@@$0A@@std@@YAPEAX_K@Z 0000000140000000     Framework:SimpleSound.obj
 0003:fffcc000       $unwind$??$_Allocate_manually_vector_aligned@U_Default_allocate_traits@std@@@std@@YAPEAX_K@Z 0000000140000000     Framework:SimpleSound.obj
 0003:fffcc000       $unwind$??$_Construct_in_place@U_Container_proxy@std@@PEAU_Container_base12@2@@std@@YAXAEAU_Container_proxy@0@$$QEAPEAU_Container_base12@0@@Z 0000000140000000     Framework:SimpleSound.obj
 0003:fffcc000       $unwind$??$_Deallocate@$0BA@$0A@@std@@YAXPEAX_K@Z 0000000140000000     Framework:SimpleSound.obj
 0003:fffcc000       $unwind$??$_Deallocate_plain@V?$allocator@U_Container_proxy@std@@@std@@@std@@YAXAEAV?$allocator@U_Container_proxy@std@@@0@QEAU_Container_proxy@0@@Z 0000000140000000     Framework:SimpleSound.obj
 0003:fffcc000       $unwind$??$_Debug_lt_pred@AEBU?$less@PEBD@std@@AEBQEBDAEBQEBD$0A@@std@@YA_NAEBU?$less@PEBD@0@AEBQEBD1@Z 0000000140000000     Framework:SimpleSound.obj
 0003:fffcc000       $unwind$??$_Delete_plain_internal@V?$allocator@U_Container_proxy@std@@@std@@@std@@YAXAEAV?$allocator@U_Container_proxy@std@@@0@QEAU_Container_proxy@0@@Z 0000000140000000     Framework:SimpleSound.obj
 0003:fffcc000       $unwind$??$_Get_size_of_n@$0BA@@std@@YA_K_K@Z 0000000140000000     Framework:SimpleSound.obj
 0003:fffcc000       $unwind$??$_Min_value@_K@std@@YAAEB_KAEB_K0@Z 0000000140000000     Framework:SimpleSound.obj
 0003:fffcc000       $unwind$??$_Unfancy@U_Container_proxy@std@@@std@@YAPEAU_Container_proxy@0@PEAU10@@Z 0000000140000000     Framework:SimpleSound.obj
 0003:fffcc000       $unwind$??$addressof@U_Container_base12@std@@@std@@YAPEAU_Container_base12@0@AEAU10@@Z 0000000140000000     Framework:SimpleSound.obj
 0003:fffcc000       $unwind$??$addressof@U_Container_proxy@std@@@std@@YAPEAU_Container_proxy@0@AEAU10@@Z 0000000140000000     Framework:SimpleSound.obj
 0003:fffcc000       $unwind$??$forward@AEBQEBD@std@@YAAEBQEBDAEBQEBD@Z 0000000140000000     Framework:SimpleSound.obj
 0003:fffcc000       $unwind$??$forward@AEBU?$less@PEBD@std@@@std@@YAAEBU?$less@PEBD@0@AEBU10@@Z 0000000140000000     Framework:SimpleSound.obj
 0003:fffcc000       $unwind$??$forward@AEBUpiecewise_construct_t@std@@@std@@YAAEBUpiecewise_construct_t@0@AEBU10@@Z 0000000140000000     Framework:SimpleSound.obj
 0003:fffcc000       $unwind$??$forward@PEAU_Container_base12@std@@@std@@YA$$QEAPEAU_Container_base12@0@AEAPEAU10@@Z 0000000140000000     Framework:SimpleSound.obj
 0003:fffcc000       $unwind$??$forward@U_Zero_then_variadic_args_t@std@@@std@@YA$$QEAU_Zero_then_variadic_args_t@0@AEAU10@@Z 0000000140000000     Framework:SimpleSound.obj
 0003:fffcc000       $unwind$??$forward@V?$tuple@$$V@std@@@std@@YA$$QEAV?$tuple@$$V@0@AEAV10@@Z 0000000140000000     Framework:SimpleSound.obj
 0003:fffcc000       $unwind$??$forward@V?$tuple@AEBQEBD@std@@@std@@YA$$QEAV?$tuple@AEBQEBD@0@AEAV10@@Z 0000000140000000     Framework:SimpleSound.obj
 0003:fffcc000       $unwind$??$forward@_N@std@@YA$$QEA_NAEA_N@Z 0000000140000000     Framework:SimpleSound.obj
 0003:fffcc000       $unwind$??$forward_as_tuple@$$V@std@@YA?AV?$tuple@$$V@0@XZ 0000000140000000     Framework:SimpleSound.obj
 0003:fffcc000       $unwind$??$forward_as_tuple@AEBQEBD@std@@YA?AV?$tuple@AEBQEBD@0@AEBQEBD@Z 0000000140000000     Framework:SimpleSound.obj
 0003:fffcc000       $unwind$??$get@$0A@AEBQEBD@std@@YAAEBQEBD$$QEAV?$tuple@AEBQEBD@0@@Z 0000000140000000     Framework:SimpleSound.obj
 0003:fffcc000       $unwind$??$move@AEAV?$tuple@AEBQEBD@std@@@std@@YA$$QEAV?$tuple@AEBQEBD@0@AEAV10@@Z 0000000140000000     Framework:SimpleSound.obj
 0003:fffcc000       $unwind$??0?$_Container_proxy_ptr12@V?$allocator@U_Container_proxy@std@@@std@@@std@@QEAA@AEAV?$allocator@U_Container_proxy@std@@@1@AEAU_Container_base12@1@@Z 0000000140000000     Framework:SimpleSound.obj
 0003:fffcc000       $unwind$??0?$tuple@$$V@std@@QEAA@AEBV01@@Z 0000000140000000     Framework:SimpleSound.obj
 0003:fffcc000       $unwind$??0?$tuple@$$V@std@@QEAA@XZ 0000000140000000     Framework:SimpleSound.obj
 0003:fffcc000       $unwind$??0?$tuple@AEBQEBD@std@@QEAA@$$QEAV01@@Z 0000000140000000     Framework:SimpleSound.obj
 0003:fffcc000       $unwind$??0_Container_base12@std@@QEAA@XZ 0000000140000000     Framework:SimpleSound.obj
 0003:fffcc000       $unwind$??0_Container_proxy@std@@QEAA@PEAU_Container_base12@1@@Z 0000000140000000     Framework:SimpleSound.obj
 0003:fffcc000       $unwind$??0bad_alloc@std@@AEAA@QEBD@Z 0000000140000000     Framework:SimpleSound.obj
 0003:fffcc000       $unwind$??0bad_alloc@std@@QEAA@AEBV01@@Z 0000000140000000     Framework:SimpleSound.obj
 0003:fffcc000       $unwind$??0bad_array_new_length@std@@QEAA@AEBV01@@Z 0000000140000000     Framework:SimpleSound.obj
 0003:fffcc000       $unwind$??0bad_array_new_length@std@@QEAA@XZ 0000000140000000     Framework:SimpleSound.obj
 0003:fffcc000       $unwind$??0exception@std@@QEAA@AEBV01@@Z 0000000140000000     Framework:SimpleSound.obj
 0003:fffcc000       $unwind$??0exception@std@@QEAA@QEBDH@Z 0000000140000000     Framework:SimpleSound.obj
 0003:fffcc000       $unwind$??1?$_Container_proxy_ptr12@V?$allocator@U_Container_proxy@std@@@std@@@std@@QEAA@XZ 0000000140000000     Framework:SimpleSound.obj
 0003:fffcc000       $unwind$??1bad_alloc@std@@UEAA@XZ 0000000140000000     Framework:SimpleSound.obj
 0003:fffcc000       $unwind$??1bad_array_new_length@std@@UEAA@XZ 0000000140000000     Framework:SimpleSound.obj
 0003:fffcc000       $unwind$??1exception@std@@UEAA@XZ 0000000140000000     Framework:SimpleSound.obj
 0003:fffcc000       $unwind$??2@YAPEAX_KPEAX@Z 0000000140000000     Framework:SimpleSound.obj
 0003:fffcc000       $unwind$??R?$less@PEBD@std@@QEBA_NAEBQEBD0@Z 0000000140000000     Framework:SimpleSound.obj
 0003:fffcc000       $unwind$??_Gbad_alloc@std@@UEAAPEAXI@Z 0000000140000000     Framework:SimpleSound.obj
 0003:fffcc000       $unwind$??_Gbad_array_new_length@std@@UEAAPEAXI@Z 0000000140000000     Framework:SimpleSound.obj
 0003:fffcc000       $unwind$??_Gexception@std@@UEAAPEAXI@Z 0000000140000000     Framework:SimpleSound.obj
 0003:fffcc000       $unwind$?_Adjust_manually_vector_aligned@std@@YAXAEAPEAXAEA_K@Z 0000000140000000     Framework:SimpleSound.obj
 0003:fffcc000       $unwind$?_Allocate@_Default_allocate_traits@std@@SAPEAX_K@Z 0000000140000000     Framework:SimpleSound.obj
 0003:fffcc000       $unwind$?_Orphan_all@_Container_base12@std@@QEAAXXZ 0000000140000000     Framework:SimpleSound.obj
 0003:fffcc000       $unwind$?_Release@_Basic_container_proxy_ptr12@std@@QEAAXXZ 0000000140000000     Framework:SimpleSound.obj
 0003:fffcc000       $unwind$?_Throw_bad_array_new_length@std@@YAXXZ 0000000140000000     Framework:SimpleSound.obj
 0003:fffcc000       $unwind$?_Throw_tree_length_error@std@@YAXXZ 0000000140000000     Framework:SimpleSound.obj
 0003:fffcc000       $unwind$?allocate@?$allocator@U_Container_proxy@std@@@std@@QEAAPEAU_Container_proxy@2@_K@Z 0000000140000000     Framework:SimpleSound.obj
 0003:fffcc000       $unwind$?deallocate@?$_Default_allocator_traits@V?$allocator@U_Container_proxy@std@@@std@@@std@@SAXAEAV?$allocator@U_Container_proxy@std@@@2@QEAU_Container_proxy@2@_K@Z 0000000140000000     Framework:SimpleSound.obj
 0003:fffcc000       $unwind$?max@?$numeric_limits@_J@std@@SA_JXZ 0000000140000000     Framework:SimpleSound.obj
 0003:fffcc000       $unwind$?what@exception@std@@UEBAPEBDXZ 0000000140000000     Framework:SimpleSound.obj
 0003:fffcc000       ?_Orphan_all@_Container_base12@std@@QEAAXXZ$rtcName$0 0000000140000000     Framework:SimpleSound.obj
 0003:fffcc000       $cppxdata$??$_Construct_in_place@U_Container_proxy@std@@PEAU_Container_base12@2@@std@@YAXAEAU_Container_proxy@0@$$QEAPEAU_Container_base12@0@@Z 0000000140000000     Framework:SimpleSprite.obj
 0003:fffcc000       $cppxdata$??$_Deallocate@$0BA@$0A@@std@@YAXPEAX_K@Z 0000000140000000     Framework:SimpleSprite.obj
 0003:fffcc000       $cppxdata$??$_Deallocate_plain@V?$allocator@U_Container_proxy@std@@@std@@@std@@YAXAEAV?$allocator@U_Container_proxy@std@@@0@QEAU_Container_proxy@0@@Z 0000000140000000     Framework:SimpleSprite.obj
 0003:fffcc000       $cppxdata$??$_Delete_plain_internal@V?$allocator@U_Container_proxy@std@@@std@@@std@@YAXAEAV?$allocator@U_Container_proxy@std@@@0@QEAU_Container_proxy@0@@Z 0000000140000000     Framework:SimpleSprite.obj
 0003:fffcc000       $cppxdata$??$_Min_value@_K@std@@YAAEB_KAEB_K0@Z 0000000140000000     Framework:SimpleSprite.obj
 0003:fffcc000       $cppxdata$??$addressof@U_Container_base12@std@@@std@@YAPEAU_Container_base12@0@AEAU10@@Z 0000000140000000     Framework:SimpleSprite.obj
 0003:fffcc000       $cppxdata$??$addressof@U_Container_proxy@std@@@std@@YAPEAU_Container_proxy@0@AEAU10@@Z 0000000140000000     Framework:SimpleSprite.obj
 0003:fffcc000       $cppxdata$??$forward@PEAU_Container_base12@std@@@std@@YA$$QEAPEAU_Container_base12@0@AEAPEAU10@@Z 0000000140000000     Framework:SimpleSprite.obj
 0003:fffcc000       $cppxdata$??0_Container_proxy@std@@QEAA@PEAU_Container_base12@1@@Z 0000000140000000     Framework:SimpleSprite.obj
 0003:fffcc000       $cppxdata$??0bad_alloc@std@@AEAA@QEBD@Z 0000000140000000     Framework:SimpleSprite.obj
 0003:fffcc000       $cppxdata$??0bad_array_new_length@std@@QEAA@XZ 0000000140000000     Framework:SimpleSprite.obj
 0003:fffcc000       $cppxdata$??0exception@std@@QEAA@AEBV01@@Z 0000000140000000     Framework:SimpleSprite.obj
 0003:fffcc000       $cppxdata$??0exception@std@@QEAA@QEBDH@Z 0000000140000000     Framework:SimpleSprite.obj
 0003:fffcc000       $cppxdata$??1?$_Container_proxy_ptr12@V?$allocator@U_Container_proxy@std@@@std@@@std@@QEAA@XZ 0000000140000000     Framework:SimpleSprite.obj
 0003:fffcc000       $cppxdata$??1exception@std@@UEAA@XZ 0000000140000000     Framework:SimpleSprite.obj
 0003:fffcc000       $cppxdata$??2@YAPEAX_KPEAX@Z 0000000140000000     Framework:SimpleSprite.obj
 0003:fffcc000       $cppxdata$?_Orphan_all@_Container_base12@std@@QEAAXXZ 0000000140000000     Framework:SimpleSprite.obj
 0003:fffcc000       $cppxdata$?_Release@_Basic_container_proxy_ptr12@std@@QEAAXXZ 0000000140000000     Framework:SimpleSprite.obj
 0003:fffcc000       $cppxdata$?max@?$numeric_limits@_J@std@@SA_JXZ 0000000140000000     Framework:SimpleSprite.obj
 0003:fffcc000       $ip2state$??$_Construct_in_place@U_Container_proxy@std@@PEAU_Container_base12@2@@std@@YAXAEAU_Container_proxy@0@$$QEAPEAU_Container_base12@0@@Z 0000000140000000     Framework:SimpleSprite.obj
 0003:fffcc000       $ip2state$??$_Deallocate@$0BA@$0A@@std@@YAXPEAX_K@Z 0000000140000000     Framework:SimpleSprite.obj
 0003:fffcc000       $ip2state$??$_Deallocate_plain@V?$allocator@U_Container_proxy@std@@@std@@@std@@YAXAEAV?$allocator@U_Container_proxy@std@@@0@QEAU_Container_proxy@0@@Z 0000000140000000     Framework:SimpleSprite.obj
 0003:fffcc000       $ip2state$??$_Delete_plain_internal@V?$allocator@U_Container_proxy@std@@@std@@@std@@YAXAEAV?$allocator@U_Container_proxy@std@@@0@QEAU_Container_proxy@0@@Z 0000000140000000     Framework:SimpleSprite.obj
 0003:fffcc000       $ip2state$??$_Min_value@_K@std@@YAAEB_KAEB_K0@Z 0000000140000000     Framework:SimpleSprite.obj
 0003:fffcc000       $ip2state$??$addressof@U_Container_base12@std@@@std@@YAPEAU_Container_base12@0@AEAU10@@Z 0000000140000000     Framework:SimpleSprite.obj
 0003:fffcc000       $ip2state$??$addressof@U_Container_proxy@std@@@std@@YAPEAU_Container_proxy@0@AEAU10@@Z 0000000140000000     Framework:SimpleSprite.obj
 0003:fffcc000       $ip2state$??$forward@PEAU_Container_base12@std@@@std@@YA$$QEAPEAU_Container_base12@0@AEAPEAU10@@Z 0000000140000000     Framework:SimpleSprite.obj
 0003:fffcc000       $ip2state$??0_Container_proxy@std@@QEAA@PEAU_Container_base12@1@@Z 0000000140000000     Framework:SimpleSprite.obj
 0003:fffcc000       $ip2state$??0bad_alloc@std@@AEAA@QEBD@Z 0000000140000000     Framework:SimpleSprite.obj
 0003:fffcc000       $ip2state$??0bad_array_new_length@std@@QEAA@XZ 0000000140000000     Framework:SimpleSprite.obj
 0003:fffcc000       $ip2state$??0exception@std@@QEAA@AEBV01@@Z 0000000140000000     Framework:SimpleSprite.obj
 0003:fffcc000       $ip2state$??0exception@std@@QEAA@QEBDH@Z 0000000140000000     Framework:SimpleSprite.obj
 0003:fffcc000       $ip2state$??1?$_Container_proxy_ptr12@V?$allocator@U_Container_proxy@std@@@std@@@std@@QEAA@XZ 0000000140000000     Framework:SimpleSprite.obj
 0003:fffcc000       $ip2state$??1exception@std@@UEAA@XZ 0000000140000000     Framework:SimpleSprite.obj
 0003:fffcc000       $ip2state$??2@YAPEAX_KPEAX@Z 0000000140000000     Framework:SimpleSprite.obj
 0003:fffcc000       $ip2state$?_Orphan_all@_Container_base12@std@@QEAAXXZ 0000000140000000     Framework:SimpleSprite.obj
 0003:fffcc000       $ip2state$?_Release@_Basic_container_proxy_ptr12@std@@QEAAXXZ 0000000140000000     Framework:SimpleSprite.obj
 0003:fffcc000       $ip2state$?max@?$numeric_limits@_J@std@@SA_JXZ 0000000140000000     Framework:SimpleSprite.obj
 0005:fffbb000       $pdata$??$_Allocate@$0BA@U_Default_allocate_traits@std@@$0A@@std@@YAPEAX_K@Z 0000000140000000     Framework:SimpleSprite.obj
 0005:fffbb000       $pdata$??$_Allocate_manually_vector_aligned@U_Default_allocate_traits@std@@@std@@YAPEAX_K@Z 0000000140000000     Framework:SimpleSprite.obj
 0005:fffbb000       $pdata$??$_Construct_in_place@U_Container_proxy@std@@PEAU_Container_base12@2@@std@@YAXAEAU_Container_proxy@0@$$QEAPEAU_Container_base12@0@@Z 0000000140000000     Framework:SimpleSprite.obj
 0005:fffbb000       $pdata$??$_Deallocate@$0BA@$0A@@std@@YAXPEAX_K@Z 0000000140000000     Framework:SimpleSprite.obj
 0005:fffbb000       $pdata$??$_Deallocate_plain@V?$allocator@U_Container_proxy@std@@@std@@@std@@YAXAEAV?$allocator@U_Container_proxy@std@@@0@QEAU_Container_proxy@0@@Z 0000000140000000     Framework:SimpleSprite.obj
 0005:fffbb000       $pdata$??$_Delete_plain_internal@V?$allocator@U_Container_proxy@std@@@std@@@std@@YAXAEAV?$allocator@U_Container_proxy@std@@@0@QEAU_Container_proxy@0@@Z 0000000140000000     Framework:SimpleSprite.obj
 0005:fffbb000       $pdata$??$_Get_size_of_n@$0BA@@std@@YA_K_K@Z 0000000140000000     Framework:SimpleSprite.obj
 0005:fffbb000       $pdata$??$_Min_value@_K@std@@YAAEB_KAEB_K0@Z 0000000140000000     Framework:SimpleSprite.obj
 0005:fffbb000       $pdata$??$_Unfancy@U_Container_proxy@std@@@std@@YAPEAU_Container_proxy@0@PEAU10@@Z 0000000140000000     Framework:SimpleSprite.obj
 0005:fffbb000       $pdata$??$addressof@U_Container_base12@std@@@std@@YAPEAU_Container_base12@0@AEAU10@@Z 0000000140000000     Framework:SimpleSprite.obj
 0005:fffbb000       $pdata$??$addressof@U_Container_proxy@std@@@std@@YAPEAU_Container_proxy@0@AEAU10@@Z 0000000140000000     Framework:SimpleSprite.obj
 0005:fffbb000       $pdata$??$forward@PEAU_Container_base12@std@@@std@@YA$$QEAPEAU_Container_base12@0@AEAPEAU10@@Z 0000000140000000     Framework:SimpleSprite.obj
 0005:fffbb000       $pdata$??0?$_Container_proxy_ptr12@V?$allocator@U_Container_proxy@std@@@std@@@std@@QEAA@AEAV?$allocator@U_Container_proxy@std@@@1@AEAU_Container_base12@1@@Z 0000000140000000     Framework:SimpleSprite.obj
 0005:fffbb000       $pdata$??0_Container_base12@std@@QEAA@XZ 0000000140000000     Framework:SimpleSprite.obj
 0005:fffbb000       $pdata$??0_Container_proxy@std@@QEAA@PEAU_Container_base12@1@@Z 0000000140000000     Framework:SimpleSprite.obj
 0005:fffbb000       $pdata$??0bad_alloc@std@@AEAA@QEBD@Z 0000000140000000     Framework:SimpleSprite.obj
 0005:fffbb000       $pdata$??0bad_alloc@std@@QEAA@AEBV01@@Z 0000000140000000     Framework:SimpleSprite.obj
 0005:fffbb000       $pdata$??0bad_array_new_length@std@@QEAA@AEBV01@@Z 0000000140000000     Framework:SimpleSprite.obj
 0005:fffbb000       $pdata$??0bad_array_new_length@std@@QEAA@XZ 0000000140000000     Framework:SimpleSprite.obj
 0005:fffbb000       $pdata$??0exception@std@@QEAA@AEBV01@@Z 0000000140000000     Framework:SimpleSprite.obj
 0005:fffbb000       $pdata$??0exception@std@@QEAA@QEBDH@Z 0000000140000000     Framework:SimpleSprite.obj
 0005:fffbb000       $pdata$??1?$_Container_proxy_ptr12@V?$allocator@U_Container_proxy@std@@@std@@@std@@QEAA@XZ 0000000140000000     Framework:SimpleSprite.obj
 0005:fffbb000       $pdata$??1bad_alloc@std@@UEAA@XZ 0000000140000000     Framework:SimpleSprite.obj
 0005:fffbb000       $pdata$??1bad_array_new_length@std@@UEAA@XZ 0000000140000000     Framework:SimpleSprite.obj
 0005:fffbb000       $pdata$??1exception@std@@UEAA@XZ 0000000140000000     Framework:SimpleSprite.obj
 0005:fffbb000       $pdata$??2@YAPEAX_KPEAX@Z  0000000140000000     Framework:SimpleSprite.obj
 0005:fffbb000       $pdata$??_Gbad_alloc@std@@UEAAPEAXI@Z 0000000140000000     Framework:SimpleSprite.obj
 0005:fffbb000       $pdata$??_Gbad_array_new_length@std@@UEAAPEAXI@Z 0000000140000000     Framework:SimpleSprite.obj
 0005:fffbb000       $pdata$??_Gexception@std@@UEAAPEAXI@Z 0000000140000000     Framework:SimpleSprite.obj
 0005:fffbb000       $pdata$?_Adjust_manually_vector_aligned@std@@YAXAEAPEAXAEA_K@Z 0000000140000000     Framework:SimpleSprite.obj
 0005:fffbb000       $pdata$?_Allocate@_Default_allocate_traits@std@@SAPEAX_K@Z 0000000140000000     Framework:SimpleSprite.obj
 0005:fffbb000       $pdata$?_Orphan_all@_Container_base12@std@@QEAAXXZ 0000000140000000     Framework:SimpleSprite.obj
 0005:fffbb000       $pdata$?_Release@_Basic_container_proxy_ptr12@std@@QEAAXXZ 0000000140000000     Framework:SimpleSprite.obj
 0005:fffbb000       $pdata$?_Throw_bad_array_new_length@std@@YAXXZ 0000000140000000     Framework:SimpleSprite.obj
 0005:fffbb000       $pdata$?allocate@?$allocator@U_Container_proxy@std@@@std@@QEAAPEAU_Container_proxy@2@_K@Z 0000000140000000     Framework:SimpleSprite.obj
 0005:fffbb000       $pdata$?deallocate@?$_Default_allocator_traits@V?$allocator@U_Container_proxy@std@@@std@@@std@@SAXAEAV?$allocator@U_Container_proxy@std@@@2@QEAU_Container_proxy@2@_K@Z 0000000140000000     Framework:SimpleSprite.obj
 0005:fffbb000       $pdata$?max@?$numeric_limits@_J@std@@SA_JXZ 0000000140000000     Framework:SimpleSprite.obj
 0005:fffbb000       $pdata$?what@exception@std@@UEBAPEBDXZ 0000000140000000     Framework:SimpleSprite.obj
 0003:fffcc000       $unwind$??$_Allocate@$0BA@U_Default_allocate_traits@std@@$0A@@std@@YAPEAX_K@Z 0000000140000000     Framework:SimpleSprite.obj
 0003:fffcc000       $unwind$??$_Allocate_manually_vector_aligned@U_Default_allocate_traits@std@@@std@@YAPEAX_K@Z 0000000140000000     Framework:SimpleSprite.obj
 0003:fffcc000       $unwind$??$_Construct_in_place@U_Container_proxy@std@@PEAU_Container_base12@2@@std@@YAXAEAU_Container_proxy@0@$$QEAPEAU_Container_base12@0@@Z 0000000140000000     Framework:SimpleSprite.obj
 0003:fffcc000       $unwind$??$_Deallocate@$0BA@$0A@@std@@YAXPEAX_K@Z 0000000140000000     Framework:SimpleSprite.obj
 0003:fffcc000       $unwind$??$_Deallocate_plain@V?$allocator@U_Container_proxy@std@@@std@@@std@@YAXAEAV?$allocator@U_Container_proxy@std@@@0@QEAU_Container_proxy@0@@Z 0000000140000000     Framework:SimpleSprite.obj
 0003:fffcc000       $unwind$??$_Delete_plain_internal@V?$allocator@U_Container_proxy@std@@@std@@@std@@YAXAEAV?$allocator@U_Container_proxy@std@@@0@QEAU_Container_proxy@0@@Z 0000000140000000     Framework:SimpleSprite.obj
 0003:fffcc000       $unwind$??$_Get_size_of_n@$0BA@@std@@YA_K_K@Z 0000000140000000     Framework:SimpleSprite.obj
 0003:fffcc000       $unwind$??$_Min_value@_K@std@@YAAEB_KAEB_K0@Z 0000000140000000     Framework:SimpleSprite.obj
 0003:fffcc000       $unwind$??$_Unfancy@U_Container_proxy@std@@@std@@YAPEAU_Container_proxy@0@PEAU10@@Z 0000000140000000     Framework:SimpleSprite.obj
 0003:fffcc000       $unwind$??$addressof@U_Container_base12@std@@@std@@YAPEAU_Container_base12@0@AEAU10@@Z 0000000140000000     Framework:SimpleSprite.obj
 0003:fffcc000       $unwind$??$addressof@U_Container_proxy@std@@@std@@YAPEAU_Container_proxy@0@AEAU10@@Z 0000000140000000     Framework:SimpleSprite.obj
 0003:fffcc000       $unwind$??$forward@PEAU_Container_base12@std@@@std@@YA$$QEAPEAU_Container_base12@0@AEAPEAU10@@Z 0000000140000000     Framework:SimpleSprite.obj
 0003:fffcc000       $unwind$??0?$_Container_proxy_ptr12@V?$allocator@U_Container_proxy@std@@@std@@@std@@QEAA@AEAV?$allocator@U_Container_proxy@std@@@1@AEAU_Container_base12@1@@Z 0000000140000000     Framework:SimpleSprite.obj
 0003:fffcc000       $unwind$??0_Container_base12@std@@QEAA@XZ 0000000140000000     Framework:SimpleSprite.obj
 0003:fffcc000       $unwind$??0_Container_proxy@std@@QEAA@PEAU_Container_base12@1@@Z 0000000140000000     Framework:SimpleSprite.obj
 0003:fffcc000       $unwind$??0bad_alloc@std@@AEAA@QEBD@Z 0000000140000000     Framework:SimpleSprite.obj
 0003:fffcc000       $unwind$??0bad_alloc@std@@QEAA@AEBV01@@Z 0000000140000000     Framework:SimpleSprite.obj
 0003:fffcc000       $unwind$??0bad_array_new_length@std@@QEAA@AEBV01@@Z 0000000140000000     Framework:SimpleSprite.obj
 0003:fffcc000       $unwind$??0bad_array_new_length@std@@QEAA@XZ 0000000140000000     Framework:SimpleSprite.obj
 0003:fffcc000       $unwind$??0exception@std@@QEAA@AEBV01@@Z 0000000140000000     Framework:SimpleSprite.obj
 0003:fffcc000       $unwind$??0exception@std@@QEAA@QEBDH@Z 0000000140000000     Framework:SimpleSprite.obj
 0003:fffcc000       $unwind$??1?$_Container_proxy_ptr12@V?$allocator@U_Container_proxy@std@@@std@@@std@@QEAA@XZ 0000000140000000     Framework:SimpleSprite.obj
 0003:fffcc000       $unwind$??1bad_alloc@std@@UEAA@XZ 0000000140000000     Framework:SimpleSprite.obj
 0003:fffcc000       $unwind$??1bad_array_new_length@std@@UEAA@XZ 0000000140000000     Framework:SimpleSprite.obj
 0003:fffcc000       $unwind$??1exception@std@@UEAA@XZ 0000000140000000     Framework:SimpleSprite.obj
 0003:fffcc000       $unwind$??2@YAPEAX_KPEAX@Z 0000000140000000     Framework:SimpleSprite.obj
 0003:fffcc000       $unwind$??_Gbad_alloc@std@@UEAAPEAXI@Z 0000000140000000     Framework:SimpleSprite.obj
 0003:fffcc000       $unwind$??_Gbad_array_new_length@std@@UEAAPEAXI@Z 0000000140000000     Framework:SimpleSprite.obj
 0003:fffcc000       $unwind$??_Gexception@std@@UEAAPEAXI@Z 0000000140000000     Framework:SimpleSprite.obj
 0003:fffcc000       $unwind$?_Adjust_manually_vector_aligned@std@@YAXAEAPEAXAEA_K@Z 0000000140000000     Framework:SimpleSprite.obj
 0003:fffcc000       $unwind$?_Allocate@_Default_allocate_traits@std@@SAPEAX_K@Z 0000000140000000     Framework:SimpleSprite.obj
 0003:fffcc000       $unwind$?_Orphan_all@_Container_base12@std@@QEAAXXZ 0000000140000000     Framework:SimpleSprite.obj
 0003:fffcc000       $unwind$?_Release@_Basic_container_proxy_ptr12@std@@QEAAXXZ 0000000140000000     Framework:SimpleSprite.obj
 0003:fffcc000       $unwind$?_Throw_bad_array_new_length@std@@YAXXZ 0000000140000000     Framework:SimpleSprite.obj
 0003:fffcc000       $unwind$?allocate@?$allocator@U_Container_proxy@std@@@std@@QEAAPEAU_Container_proxy@2@_K@Z 0000000140000000     Framework:SimpleSprite.obj
 0003:fffcc000       $unwind$?deallocate@?$_Default_allocator_traits@V?$allocator@U_Container_proxy@std@@@std@@@std@@SAXAEAV?$allocator@U_Container_proxy@std@@@2@QEAU_Container_proxy@2@_K@Z 0000000140000000     Framework:SimpleSprite.obj
 0003:fffcc000       $unwind$?max@?$numeric_limits@_J@std@@SA_JXZ 0000000140000000     Framework:SimpleSprite.obj
 0003:fffcc000       $unwind$?what@exception@std@@UEBAPEBDXZ 0000000140000000     Framework:SimpleSprite.obj
 0003:fffcc000       ?_Orphan_all@_Container_base12@std@@QEAAXXZ$rtcName$0 0000000140000000     Framework:SimpleSprite.obj
 0005:fffbb000       $pdata$__local_stdio_printf_options 0000000140000000     Framework:TextureLoader.obj
 0005:fffbb000       $pdata$_vfprintf_l         0000000140000000     Framework:TextureLoader.obj
 0005:fffbb000       $pdata$printf              0000000140000000     Framework:TextureLoader.obj
 0003:fffcc000       $unwind$__local_stdio_printf_options 0000000140000000     Framework:TextureLoader.obj
 0003:fffcc000       $unwind$_vfprintf_l        0000000140000000     Framework:TextureLoader.obj
 0003:fffcc000       $unwind$printf             0000000140000000     Framework:TextureLoader.obj
 0003:fffcc000       printf$rtcName$0           0000000140000000     Framework:TextureLoader.obj
 0005:fffbb000       $pdata$?SetPosition@CSimpleSprite@@QEAAXMM@Z 0000000140000000     Wall.obj
 0005:fffbb000       $pdata$?SetScale@CSimpleSprite@@QEAAXM@Z 0000000140000000     Wall.obj
 0003:fffcc000       $unwind$?SetPosition@CSimpleSprite@@QEAAXMM@Z 0000000140000000     Wall.obj
 0003:fffcc000       $unwind$?SetScale@CSimpleSprite@@QEAAXM@Z 0000000140000000     Wall.obj
 0005:fffbb000       $pdata$?CheckButton@CController@@QEBA_NH_N@Z 0000000140000000     Framework:main.obj
 0005:fffbb000       $pdata$?__empty_global_delete@@YAXPEAX@Z 0000000140000000     Framework:main.obj
 0005:fffbb000       $pdata$?__empty_global_delete@@YAXPEAX_K@Z 0000000140000000     Framework:main.obj
 0003:fffcc000       $unwind$?CheckButton@CController@@QEBA_NH_N@Z 0000000140000000     Framework:main.obj
 0003:fffcc000       $unwind$?__empty_global_delete@@YAXPEAX@Z 0000000140000000     Framework:main.obj
 0003:fffcc000       $unwind$?__empty_global_delete@@YAXPEAX_K@Z 0000000140000000     Framework:main.obj
 0000:fffb4004       __guard_fids__             0000000140000004     MSVCRTD:exe_wwinmain.obj
 0000:fffb4008       __guard_fids__             0000000140000008     MSVCRTD:exe_wwinmain.obj
 0003:fffcc010       ?_Orphan_all@_Container_base12@std@@QEAAXXZ$rtcVarDesc 0000000140000010     Framework:SimpleSound.obj
 0003:fffcc010       ?_Orphan_all@_Container_base12@std@@QEAAXXZ$rtcVarDesc 0000000140000010     Framework:SimpleSprite.obj
 0003:fffcc010       printf$rtcVarDesc          0000000140000010     Framework:TextureLoader.obj
 0003:fffcc050       ?_Orphan_all@_Container_base12@std@@QEAAXXZ$rtcFrameData 0000000140000050     Framework:SimpleSound.obj
 0003:fffcc050       ?_Orphan_all@_Container_base12@std@@QEAAXXZ$rtcFrameData 0000000140000050     Framework:SimpleSprite.obj
 0003:fffcc050       printf$rtcFrameData        0000000140000050     Framework:TextureLoader.obj
 0002:00001b60       ??__EmapVisu@@YAXXZ        0000000140012b60 f   UbisoftProject.obj
 0002:00001be0       ??__EgUpdateDeltaTime@@YAXXZ 0000000140012be0 f   Framework:main.obj
 0002:00001c30       ??__EgUserRenderProfiler@@YAXXZ 0000000140012c30 f   Framework:main.obj
 0002:00001c80       ??__EgUserUpdateProfiler@@YAXXZ 0000000140012c80 f   Framework:main.obj
 0002:00001cd0       ??__E?m_textures@CSimpleSprite@@0V?$map@PEBDUsTextureDef@CSimpleSprite@@U?$less@PEBD@std@@V?$allocator@U?$pair@QEBDUsTextureDef@CSimpleSprite@@@std@@@4@@std@@A@@YAXXZ 0000000140012cd0 f   Framework:SimpleSprite.obj
 0002:0000d480       glutCreateWindow_ATEXIT_HACK 000000014001e480 f   Framework:main.obj
 0002:0000d4f0       glutInit_ATEXIT_HACK       000000014001e4f0 f   Framework:main.obj
 0002:00018e70       memcpy_s                   0000000140029e70 f   Framework:TextureLoader.obj
 0002:000195a0       $$000000                   000000014002a5a0     MSVCRTD:amdsecgs.obj
 0002:000196e0       ?find_pe_section@@YAPEAU_IMAGE_SECTION_HEADER@@QEAE_K@Z 000000014002a6e0 f   MSVCRTD:utility.obj
 0002:00019800       ?is_potentially_valid_image_base@@YA_NQEAX@Z 000000014002a800 f   MSVCRTD:utility.obj
 0002:00019ff0       ?pre_c_initialization@@YAHXZ 000000014002aff0 f   MSVCRTD:exe_wwinmain.obj
 0002:0001a0d0       ?post_pgo_initialization@@YAHXZ 000000014002b0d0 f   MSVCRTD:exe_wwinmain.obj
 0002:0001a0f0       ?pre_cpp_initialization@@YAXXZ 000000014002b0f0 f   MSVCRTD:exe_wwinmain.obj
 0002:0001a110       ?__scrt_common_main@@YAHXZ 000000014002b110 f   MSVCRTD:exe_wwinmain.obj
 0002:0001a130       ?__scrt_common_main_seh@@YAHXZ 000000014002b130 f   MSVCRTD:exe_wwinmain.obj
 0002:0001a380       ?invoke_main@@YAHXZ        000000014002b380 f   MSVCRTD:exe_wwinmain.obj
 0002:0001a460       ?__scrt_initialize_thread_safe_statics@@YAHXZ 000000014002b460 f   MSVCRTD:thread_safe_statics.obj
 0002:0001a4b0       ?__scrt_initialize_thread_safe_statics_platform_specific@@YAXXZ 000000014002b4b0 f   MSVCRTD:thread_safe_statics.obj
 0002:0001a5d0       ?__scrt_uninitialize_thread_safe_statics@@YAXXZ 000000014002b5d0 f   MSVCRTD:thread_safe_statics.obj
 0002:0001aa40       ?DebuggerProbe@@YA_NK@Z    000000014002ba40 f   MSVCRTD:error.obj
 0002:0001aa90       ?DebuggerRuntime@@YA_NKHPEAXPEB_W@Z 000000014002ba90 f   MSVCRTD:error.obj
 0002:0001ae20       ?_getMemBlockDataString@@YAXPEAD0PEBD_K@Z 000000014002be20 f   MSVCRTD:error.obj
 0002:0001af00       ?_strlen_priv@@YA_KPEBD@Z  000000014002bf00 f   MSVCRTD:error.obj
 0002:0001af20       ?failwithmessage@@YAXPEAXHHPEBD@Z 000000014002bf20 f   MSVCRTD:error.obj
 0002:0001b220       ?notify_debugger@@YAXAEBUtagEXCEPTION_VISUALCPP_DEBUG_INFO@@@Z 000000014002c220 f   MSVCRTD:error.obj
 0002:0001b7b0       capture_current_context    000000014002c7b0 f   MSVCRTD:gs_report.obj
 0002:0001b870       capture_previous_context   000000014002c870 f   MSVCRTD:gs_report.obj
 0002:0001c3e0       __get_entropy              000000014002d3e0 f   MSVCRTD:gs_support.obj
 0002:0001c7b0       ?GetPdbDll@@YAPEAUHINSTANCE__@@XZ 000000014002d7b0 f   MSVCRTD:pdblkup.obj
 0002:0001c950       ?GetPdbDllFromInstallPath@@YAPEAUHINSTANCE__@@XZ 000000014002d950 f   MSVCRTD:pdblkup.obj
 0002:0001ccb0       ?GetPdbDllPathFromFilePath@@YAHPEB_WPEA_W_K@Z 000000014002dcb0 f   MSVCRTD:pdblkup.obj
 0002:0001ec10       $$000000                   000000014002fc10     MSVCRTD:guard_dispatch.obj
 0002:0001fc30       ?dtor$0@?0???0Box@@QEAA@MM@Z@4HA 0000000140030c30 f   Box.obj
 0002:0001fc60       ?catch$0@?0???$_Emplace_reallocate@AEBV?$vector@PEAVObstacle@@V?$allocator@PEAVObstacle@@@std@@@std@@@?$vector@V?$vector@PEAVObstacle@@V?$allocator@PEAVObstacle@@@std@@@std@@V?$allocator@V?$vector@PEAVObstacle@@V?$allocator@PEAVObstacle@@@std@@@std@@@2@@std@@QEAAPEAV?$vector@PEAVObstacle@@V?$allocator@PEAVObstacle@@@std@@@1@QEAV21@AEBV21@@Z@4HA 0000000140030c60 f   UbisoftProject.obj
 0002:0001fc74       __catch$??$_Emplace_reallocate@AEBV?$vector@PEAVObstacle@@V?$allocator@PEAVObstacle@@@std@@@std@@@?$vector@V?$vector@PEAVObstacle@@V?$allocator@PEAVObstacle@@@std@@@std@@V?$allocator@V?$vector@PEAVObstacle@@V?$allocator@PEAVObstacle@@@std@@@std@@@2@@std@@QEAAPEAV?$vector@PEAVObstacle@@V?$allocator@PEAVObstacle@@@std@@@1@QEAV21@AEBV21@@Z$0 0000000140030c74 f   UbisoftProject.obj
 0002:0001fce0       ?catch$0@?0???$_Emplace_reallocate@PEAVObstacle@@@?$vector@PEAVObstacle@@V?$allocator@PEAVObstacle@@@std@@@std@@QEAAPEAPEAVObstacle@@QEAPEAV2@$$QEAPEAV2@@Z@4HA 0000000140030ce0 f   UbisoftProject.obj
 0002:0001fcf4       __catch$??$_Emplace_reallocate@PEAVObstacle@@@?$vector@PEAVObstacle@@V?$allocator@PEAVObstacle@@@std@@@std@@QEAAPEAPEAVObstacle@@QEAPEAV2@$$QEAPEAV2@@Z$0 0000000140030cf4 f   UbisoftProject.obj
 0002:0001fd60       ?dtor$0@?0???$_Uninitialized_move@PEAV?$vector@PEAVObstacle@@V?$allocator@PEAVObstacle@@@std@@@std@@V?$allocator@V?$vector@PEAVObstacle@@V?$allocator@PEAVObstacle@@@std@@@std@@@2@@std@@YAPEAV?$vector@PEAVObstacle@@V?$allocator@PEAVObstacle@@@std@@@0@QEAV10@0PEAV10@AEAV?$allocator@V?$vector@PEAVObstacle@@V?$allocator@PEAVObstacle@@@std@@@std@@@0@@Z@4HA 0000000140030d60 f   UbisoftProject.obj
 0002:0001fd90       ?dtor$0@?0???0?$vector@PEAVObstacle@@V?$allocator@PEAVObstacle@@@std@@@std@@QEAA@AEBV01@@Z@4HA 0000000140030d90 f   UbisoftProject.obj
 0002:0001fdc0       ?dtor$1@?0???0?$vector@PEAVObstacle@@V?$allocator@PEAVObstacle@@@std@@@std@@QEAA@AEBV01@@Z@4HA 0000000140030dc0 f   UbisoftProject.obj
 0002:0001fdf0       ?dtor$0@?0??Init@@YAXXZ@4HA 0000000140030df0 f   UbisoftProject.obj
 0002:0001fe30       ?dtor$1@?0??Init@@YAXXZ@4HA 0000000140030e30 f   UbisoftProject.obj
 0002:0001fe70       ?dtor$2@?0??Init@@YAXXZ@4HA 0000000140030e70 f   UbisoftProject.obj
 0002:0001fea0       ?dtor$3@?0??Init@@YAXXZ@4HA 0000000140030ea0 f   UbisoftProject.obj
 0002:0001fee0       ?dtor$4@?0??Init@@YAXXZ@4HA 0000000140030ee0 f   UbisoftProject.obj
 0002:0001ff20       ?dtor$0@?0???0Wall@@QEAA@MM@Z@4HA 0000000140030f20 f   Wall.obj
 0002:0001ff50       ?dtor$0@?0??Idle@@YAXXZ@4HA 0000000140030f50 f   Framework:main.obj
 0002:0001ff80       ?dtor$0@?0??CreateSprite@App@@YAPEAVCSimpleSprite@@PEBD@Z@4HA 0000000140030f80 f   Framework:app.obj
 0002:0001ffc0       ?dtor$0@?0???$?0AEBUpiecewise_construct_t@std@@V?$tuple@AEBQEBD@1@V?$tuple@$$V@1@@?$_Tree_temp_node@V?$allocator@U?$_Tree_node@U?$pair@QEBDUsTextureDef@CSimpleSprite@@@std@@PEAX@std@@@std@@@std@@QEAA@AEAV?$allocator@U?$_Tree_node@U?$pair@QEBDUsTextureDef@CSimpleSprite@@@std@@PEAX@std@@@1@PEAU?$_Tree_node@U?$pair@QEBDUsTextureDef@CSimpleSprite@@@std@@PEAX@1@AEBUpiecewise_construct_t@1@$$QEAV?$tuple@AEBQEBD@1@$$QEAV?$tuple@$$V@1@@Z@4HA 0000000140030fc0 f   Framework:SimpleSprite.obj
 0002:0001fff0       ?dtor$0@?0???0?$_Tree_temp_node_alloc@V?$allocator@U?$_Tree_node@U?$pair@QEBDUsTextureDef@CSimpleSprite@@@std@@PEAX@std@@@std@@@std@@QEAA@AEAV?$allocator@U?$_Tree_node@U?$pair@QEBDUsTextureDef@CSimpleSprite@@@std@@PEAX@std@@@1@@Z@4HA 0000000140030ff0 f   Framework:SimpleSprite.obj
 0002:00020020       ?dtor$0@?0??LoadTexture@CSimpleSprite@@AEAA_NPEBD@Z@4HA 0000000140031020 f   Framework:SimpleSprite.obj
 0002:00020050       ?dtor$1@?0??LoadTexture@CSimpleSprite@@AEAA_NPEBD@Z@4HA 0000000140031050 f   Framework:SimpleSprite.obj
 0002:00020080       ?dtor$0@?0??_Alloc_sentinel_and_proxy@?$_Tree@V?$_Tmap_traits@PEBDUsTextureDef@CSimpleSprite@@U?$less@PEBD@std@@V?$allocator@U?$pair@QEBDUsTextureDef@CSimpleSprite@@@std@@@4@$0A@@std@@@std@@IEAAXXZ@4HA 0000000140031080 f   Framework:SimpleSprite.obj
 0002:000200b0       ?dtor$0@?0??GetInstance@CSimpleControllers@@SAAEAV1@XZ@4HA 00000001400310b0 f   Framework:SimpleController.obj
 0002:000200e0       ?dtor$0@?0???$?0AEBUpiecewise_construct_t@std@@V?$tuple@AEBQEBD@1@V?$tuple@$$V@1@@?$_Tree_temp_node@V?$allocator@U?$_Tree_node@U?$pair@QEBDPEAUIDirectSoundBuffer8@@@std@@PEAX@std@@@std@@@std@@QEAA@AEAV?$allocator@U?$_Tree_node@U?$pair@QEBDPEAUIDirectSoundBuffer8@@@std@@PEAX@std@@@1@PEAU?$_Tree_node@U?$pair@QEBDPEAUIDirectSoundBuffer8@@@std@@PEAX@1@AEBUpiecewise_construct_t@1@$$QEAV?$tuple@AEBQEBD@1@$$QEAV?$tuple@$$V@1@@Z@4HA 00000001400310e0 f   Framework:SimpleSound.obj
 0002:00020110       ?dtor$0@?0???0?$_Tree_temp_node_alloc@V?$allocator@U?$_Tree_node@U?$pair@QEBDPEAUIDirectSoundBuffer8@@@std@@PEAX@std@@@std@@@std@@QEAA@AEAV?$allocator@U?$_Tree_node@U?$pair@QEBDPEAUIDirectSoundBuffer8@@@std@@PEAX@std@@@1@@Z@4HA 0000000140031110 f   Framework:SimpleSound.obj
 0002:00020140       ?dtor$0@?0??GetInstance@CSimpleSound@@SAAEAV1@XZ@4HA 0000000140031140 f   Framework:SimpleSound.obj
 0002:00020170       ?dtor$0@?0??_Alloc_sentinel_and_proxy@?$_Tree@V?$_Tmap_traits@PEBDPEAUIDirectSoundBuffer8@@U?$less@PEBD@std@@V?$allocator@U?$pair@QEBDPEAUIDirectSoundBuffer8@@@std@@@3@$0A@@std@@@std@@IEAAXXZ@4HA 0000000140031170 f   Framework:SimpleSound.obj
 0002:000201a0       __scrt_is_nonwritable_in_current_image$filt$0 00000001400311a0 f   MSVCRTD:utility.obj
 0002:000201f0       ?filt$0@?0??__scrt_common_main_seh@@YAHXZ@4HA 00000001400311f0 f   MSVCRTD:exe_wwinmain.obj
 0002:00020230       ?filt$0@?0??notify_debugger@@YAXAEBUtagEXCEPTION_VISUALCPP_DEBUG_INFO@@@Z@4HA 0000000140031230 f   MSVCRTD:error.obj
 0002:00021280       ??__FmapVisu@@YAXXZ        0000000140032280 f   UbisoftProject.obj
 0002:000212d0       ??__F?m_textures@CSimpleSprite@@0V?$map@PEBDUsTextureDef@CSimpleSprite@@U?$less@PEBD@std@@V?$allocator@U?$pair@QEBDUsTextureDef@CSimpleSprite@@@std@@@4@@std@@A@@YAXXZ 00000001400322d0 f   Framework:SimpleSprite.obj
 0002:00021320       ??__FtheSoundClass@?1??GetInstance@CSimpleSound@@SAAEAV1@XZ@YAXXZ 0000000140032320 f   Framework:SimpleSound.obj
 0003:00000110       ?pre_cpp_initializer@@3P6AXXZEA 0000000140034110     MSVCRTD:exe_wwinmain.obj
 0003:00000220       ?mapVisu$initializer$@@3P6AXXZEA 0000000140034220     UbisoftProject.obj
 0003:00000230       ?gUserRenderProfiler$initializer$@@3P6AXXZEA 0000000140034230     Framework:main.obj
 0003:00000238       ?gUserUpdateProfiler$initializer$@@3P6AXXZEA 0000000140034238     Framework:main.obj
 0003:00000240       ?gUpdateDeltaTime$initializer$@@3P6AXXZEA 0000000140034240     Framework:main.obj
 0003:00000250       ??m_textures$initializer$@CSimpleSprite@@0P6AXXZEA@@3P6AXXZEA 0000000140034250     Framework:SimpleSprite.obj
 0003:00000580       ?pre_c_initializer@@3P6AHXZEA 0000000140034580     MSVCRTD:exe_wwinmain.obj
 0003:00000690       ?post_pgo_initializer@@3P6AHXZEA 0000000140034690     MSVCRTD:exe_wwinmain.obj
 0003:000007a0       ?__scrt_initialize_tss_var@@3P6AHXZEA 00000001400347a0     MSVCRTD:thread_safe_statics.obj
 0003:00000e10       ?deplacementBox@Box@@UEAAXH@Z$rtcName$0 0000000140034e10     Box.obj
 0003:00000e14       ?deplacementBox@Box@@UEAAXH@Z$rtcName$1 0000000140034e14     Box.obj
 0003:00000e20       ?deplacementBox@Box@@UEAAXH@Z$rtcVarDesc 0000000140034e20     Box.obj
 0003:00000ea0       ?deplacementBox@Box@@UEAAXH@Z$rtcFrameData 0000000140034ea0     Box.obj
 0003:00000f20       ?Update@Character@@QEAAXM@Z$rtcName$0 0000000140034f20     Character.obj
 0003:00000f24       ?Update@Character@@QEAAXM@Z$rtcName$1 0000000140034f24     Character.obj
 0003:00000f28       ?Update@Character@@QEAAXM@Z$rtcName$2 0000000140034f28     Character.obj
 0003:00000f2c       ?Update@Character@@QEAAXM@Z$rtcName$3 0000000140034f2c     Character.obj
 0003:00000f30       ?Update@Character@@QEAAXM@Z$rtcName$4 0000000140034f30     Character.obj
 0003:00000f34       ?Update@Character@@QEAAXM@Z$rtcName$5 0000000140034f34     Character.obj
 0003:00000f38       ?Update@Character@@QEAAXM@Z$rtcName$6 0000000140034f38     Character.obj
 0003:00000f3c       ?Update@Character@@QEAAXM@Z$rtcName$7 0000000140034f3c     Character.obj
 0003:00000f40       ?Update@Character@@QEAAXM@Z$rtcVarDesc 0000000140034f40     Character.obj
 0003:00001140       ?Update@Character@@QEAAXM@Z$rtcFrameData 0000000140035140     Character.obj
 0003:000011c0       ?UpdateAABB@Character@@AEAAXXZ$rtcName$0 00000001400351c0     Character.obj
 0003:000011c4       ?UpdateAABB@Character@@AEAAXXZ$rtcName$1 00000001400351c4     Character.obj
 0003:000011d0       ?UpdateAABB@Character@@AEAAXXZ$rtcVarDesc 00000001400351d0     Character.obj
 0003:00001250       ?UpdateAABB@Character@@AEAAXXZ$rtcFrameData 0000000140035250     Character.obj
 0003:000012d0       ?UpdateAABB@Obstacle@@IEAAXXZ$rtcName$0 00000001400352d0     Obstacle.obj
 0003:000012d4       ?UpdateAABB@Obstacle@@IEAAXXZ$rtcName$1 00000001400352d4     Obstacle.obj
 0003:000012e0       ?UpdateAABB@Obstacle@@IEAAXXZ$rtcVarDesc 00000001400352e0     Obstacle.obj
 0003:00001360       ?UpdateAABB@Obstacle@@IEAAXXZ$rtcFrameData 0000000140035360     Obstacle.obj
 0003:000013c0       ?_Orphan_all@_Container_base12@std@@QEAAXXZ$rtcName$0 00000001400353c0     UbisoftProject.obj
 0003:000013d0       ?_Orphan_all@_Container_base12@std@@QEAAXXZ$rtcVarDesc 00000001400353d0     UbisoftProject.obj
 0003:00001410       ?_Orphan_all@_Container_base12@std@@QEAAXXZ$rtcFrameData 0000000140035410     UbisoftProject.obj
 0003:00001440       ?_Swap_proxy_and_iterators@_Container_base12@std@@QEAAXAEAU12@@Z$rtcName$0 0000000140035440     UbisoftProject.obj
 0003:00001450       ?_Swap_proxy_and_iterators@_Container_base12@std@@QEAAXAEAU12@@Z$rtcVarDesc 0000000140035450     UbisoftProject.obj
 0003:00001490       ?_Swap_proxy_and_iterators@_Container_base12@std@@QEAAXAEAU12@@Z$rtcFrameData 0000000140035490     UbisoftProject.obj
 0003:000014c0       ??1?$vector@V?$vector@PEAVObstacle@@V?$allocator@PEAVObstacle@@@std@@@std@@V?$allocator@V?$vector@PEAVObstacle@@V?$allocator@PEAVObstacle@@@std@@@std@@@2@@std@@QEAA@XZ$rtcName$0 00000001400354c0     UbisoftProject.obj
 0003:000014d0       ??1?$vector@V?$vector@PEAVObstacle@@V?$allocator@PEAVObstacle@@@std@@@std@@V?$allocator@V?$vector@PEAVObstacle@@V?$allocator@PEAVObstacle@@@std@@@std@@@2@@std@@QEAA@XZ$rtcVarDesc 00000001400354d0     UbisoftProject.obj
 0003:00001510       ??1?$vector@V?$vector@PEAVObstacle@@V?$allocator@PEAVObstacle@@@std@@@std@@V?$allocator@V?$vector@PEAVObstacle@@V?$allocator@PEAVObstacle@@@std@@@std@@@2@@std@@QEAA@XZ$rtcFrameData 0000000140035510     UbisoftProject.obj
 0003:00001540       ?_Orphan_range@?$vector@V?$vector@PEAVObstacle@@V?$allocator@PEAVObstacle@@@std@@@std@@V?$allocator@V?$vector@PEAVObstacle@@V?$allocator@PEAVObstacle@@@std@@@std@@@2@@std@@AEBAXPEAV?$vector@PEAVObstacle@@V?$allocator@PEAVObstacle@@@std@@@2@0@Z$rtcName$0 0000000140035540     UbisoftProject.obj
 0003:00001550       ?_Orphan_range@?$vector@V?$vector@PEAVObstacle@@V?$allocator@PEAVObstacle@@@std@@@std@@V?$allocator@V?$vector@PEAVObstacle@@V?$allocator@PEAVObstacle@@@std@@@std@@@2@@std@@AEBAXPEAV?$vector@PEAVObstacle@@V?$allocator@PEAVObstacle@@@std@@@2@0@Z$rtcVarDesc 0000000140035550     UbisoftProject.obj
 0003:00001590       ?_Orphan_range@?$vector@V?$vector@PEAVObstacle@@V?$allocator@PEAVObstacle@@@std@@@std@@V?$allocator@V?$vector@PEAVObstacle@@V?$allocator@PEAVObstacle@@@std@@@std@@@2@@std@@AEBAXPEAV?$vector@PEAVObstacle@@V?$allocator@PEAVObstacle@@@std@@@2@0@Z$rtcFrameData 0000000140035590     UbisoftProject.obj
 0003:000015c0       ?Init@@YAXXZ$rtcName$0     00000001400355c0     UbisoftProject.obj
 0003:000015d0       ?Init@@YAXXZ$rtcVarDesc    00000001400355d0     UbisoftProject.obj
 0003:00001610       ?Init@@YAXXZ$rtcFrameData  0000000140035610     UbisoftProject.obj
 0003:00001640       ??0?$vector@PEAVObstacle@@V?$allocator@PEAVObstacle@@@std@@@std@@QEAA@AEBV01@@Z$rtcName$0 0000000140035640     UbisoftProject.obj
 0003:00001648       ??0?$vector@PEAVObstacle@@V?$allocator@PEAVObstacle@@@std@@@std@@QEAA@AEBV01@@Z$rtcName$1 0000000140035648     UbisoftProject.obj
 0003:00001650       ??0?$vector@PEAVObstacle@@V?$allocator@PEAVObstacle@@@std@@@std@@QEAA@AEBV01@@Z$rtcName$2 0000000140035650     UbisoftProject.obj
 0003:00001658       ??0?$vector@PEAVObstacle@@V?$allocator@PEAVObstacle@@@std@@@std@@QEAA@AEBV01@@Z$rtcFrameData 0000000140035658     UbisoftProject.obj
 0003:00001670       ??0?$vector@PEAVObstacle@@V?$allocator@PEAVObstacle@@@std@@@std@@QEAA@AEBV01@@Z$rtcVarDesc 0000000140035670     UbisoftProject.obj
 0003:00001760       ??1?$vector@PEAVObstacle@@V?$allocator@PEAVObstacle@@@std@@@std@@QEAA@XZ$rtcName$0 0000000140035760     UbisoftProject.obj
 0003:00001770       ??1?$vector@PEAVObstacle@@V?$allocator@PEAVObstacle@@@std@@@std@@QEAA@XZ$rtcVarDesc 0000000140035770     UbisoftProject.obj
 0003:000017b0       ??1?$vector@PEAVObstacle@@V?$allocator@PEAVObstacle@@@std@@@std@@QEAA@XZ$rtcFrameData 00000001400357b0     UbisoftProject.obj
 0003:000017e0       ?_Orphan_range@?$vector@PEAVObstacle@@V?$allocator@PEAVObstacle@@@std@@@std@@AEBAXPEAPEAVObstacle@@0@Z$rtcName$0 00000001400357e0     UbisoftProject.obj
 0003:000017f0       ?_Orphan_range@?$vector@PEAVObstacle@@V?$allocator@PEAVObstacle@@@std@@@std@@AEBAXPEAPEAVObstacle@@0@Z$rtcVarDesc 00000001400357f0     UbisoftProject.obj
 0003:00001830       ?_Orphan_range@?$vector@PEAVObstacle@@V?$allocator@PEAVObstacle@@@std@@@std@@AEBAXPEAPEAVObstacle@@0@Z$rtcFrameData 0000000140035830     UbisoftProject.obj
 0003:00001860       ??$_Uninitialized_move@PEAV?$vector@PEAVObstacle@@V?$allocator@PEAVObstacle@@@std@@@std@@V?$allocator@V?$vector@PEAVObstacle@@V?$allocator@PEAVObstacle@@@std@@@std@@@2@@std@@YAPEAV?$vector@PEAVObstacle@@V?$allocator@PEAVObstacle@@@std@@@0@QEAV10@0PEAV10@AEAV?$allocator@V?$vector@PEAVObstacle@@V?$allocator@PEAVObstacle@@@std@@@std@@@0@@Z$rtcName$0 0000000140035860     UbisoftProject.obj
 0003:00001870       ??$_Uninitialized_move@PEAV?$vector@PEAVObstacle@@V?$allocator@PEAVObstacle@@@std@@@std@@V?$allocator@V?$vector@PEAVObstacle@@V?$allocator@PEAVObstacle@@@std@@@std@@@2@@std@@YAPEAV?$vector@PEAVObstacle@@V?$allocator@PEAVObstacle@@@std@@@0@QEAV10@0PEAV10@AEAV?$allocator@V?$vector@PEAVObstacle@@V?$allocator@PEAVObstacle@@@std@@@std@@@0@@Z$rtcVarDesc 0000000140035870     UbisoftProject.obj
 0003:000018b0       ??$_Uninitialized_move@PEAV?$vector@PEAVObstacle@@V?$allocator@PEAVObstacle@@@std@@@std@@V?$allocator@V?$vector@PEAVObstacle@@V?$allocator@PEAVObstacle@@@std@@@std@@@2@@std@@YAPEAV?$vector@PEAVObstacle@@V?$allocator@PEAVObstacle@@@std@@@0@QEAV10@0PEAV10@AEAV?$allocator@V?$vector@PEAVObstacle@@V?$allocator@PEAVObstacle@@@std@@@std@@@0@@Z$rtcFrameData 00000001400358b0     UbisoftProject.obj
 0003:000021a0       printf$rtcName$0           00000001400361a0     Framework:main.obj
 0003:000021b0       printf$rtcVarDesc          00000001400361b0     Framework:main.obj
 0003:000021f0       printf$rtcFrameData        00000001400361f0     Framework:main.obj
 0003:00002220       sprintf$rtcName$0          0000000140036220     Framework:main.obj
 0003:00002230       sprintf$rtcVarDesc         0000000140036230     Framework:main.obj
 0003:00002270       sprintf$rtcFrameData       0000000140036270     Framework:main.obj
 0003:000022a0       wWinMain$rtcName$0         00000001400362a0     Framework:main.obj
 0003:000022a8       wWinMain$rtcName$1         00000001400362a8     Framework:main.obj
 0003:000022b0       wWinMain$rtcVarDesc        00000001400362b0     Framework:main.obj
 0003:00002330       wWinMain$rtcFrameData      0000000140036330     Framework:main.obj
 0003:00002360       ?StartCounter@@YAXXZ$rtcName$0 0000000140036360     Framework:main.obj
 0003:00002370       ?StartCounter@@YAXXZ$rtcVarDesc 0000000140036370     Framework:main.obj
 0003:000023b0       ?StartCounter@@YAXXZ$rtcFrameData 00000001400363b0     Framework:main.obj
 0003:000023e0       ?GetCounter@@YANXZ$rtcName$0 00000001400363e0     Framework:main.obj
 0003:000023f0       ?GetCounter@@YANXZ$rtcVarDesc 00000001400363f0     Framework:main.obj
 0003:00002430       ?GetCounter@@YANXZ$rtcFrameData 0000000140036430     Framework:main.obj
 0003:00002460       ?Print@CProfiler@@QEAAXMMPEBD@Z$rtcName$0 0000000140036460     Framework:main.obj
 0003:00002470       ?Print@CProfiler@@QEAAXMMPEBD@Z$rtcVarDesc 0000000140036470     Framework:main.obj
 0003:000024b0       ?Print@CProfiler@@QEAAXMMPEBD@Z$rtcFrameData 00000001400364b0     Framework:main.obj
 0003:000024e0       ?Idle@@YAXXZ$rtcName$0     00000001400364e0     Framework:main.obj
 0003:000024f0       ?Idle@@YAXXZ$rtcVarDesc    00000001400364f0     Framework:main.obj
 0003:00002530       ?Idle@@YAXXZ$rtcFrameData  0000000140036530     Framework:main.obj
 0003:000025f0       ?GetMousePos@App@@YAXAEAM0@Z$rtcName$0 00000001400365f0     Framework:app.obj
 0003:00002600       ?GetMousePos@App@@YAXAEAM0@Z$rtcVarDesc 0000000140036600     Framework:app.obj
 0003:00002640       ?GetMousePos@App@@YAXAEAM0@Z$rtcFrameData 0000000140036640     Framework:app.obj
 0003:00002683       ?piecewise_construct@std@@3Upiecewise_construct_t@1@B 0000000140036683     Framework:SimpleSprite.obj
 0003:00002690       ??1_Iterator_base12@std@@QEAA@XZ$rtcName$0 0000000140036690     Framework:SimpleSprite.obj
 0003:000026a0       ??1_Iterator_base12@std@@QEAA@XZ$rtcVarDesc 00000001400366a0     Framework:SimpleSprite.obj
 0003:000026e0       ??1_Iterator_base12@std@@QEAA@XZ$rtcFrameData 00000001400366e0     Framework:SimpleSprite.obj
 0003:00002710       ?_Adopt@_Iterator_base12@std@@QEAAXPEBU_Container_base12@2@@Z$rtcName$0 0000000140036710     Framework:SimpleSprite.obj
 0003:00002718       ?_Adopt@_Iterator_base12@std@@QEAAXPEBU_Container_base12@2@@Z$rtcName$1 0000000140036718     Framework:SimpleSprite.obj
 0003:00002720       ?_Adopt@_Iterator_base12@std@@QEAAXPEBU_Container_base12@2@@Z$rtcVarDesc 0000000140036720     Framework:SimpleSprite.obj
 0003:000027a0       ?_Adopt@_Iterator_base12@std@@QEAAXPEBU_Container_base12@2@@Z$rtcFrameData 00000001400367a0     Framework:SimpleSprite.obj
 0003:000027d0       ?LoadTexture@CSimpleSprite@@AEAA_NPEBD@Z$rtcName$0 00000001400367d0     Framework:SimpleSprite.obj
 0003:000027d8       ?LoadTexture@CSimpleSprite@@AEAA_NPEBD@Z$rtcName$1 00000001400367d8     Framework:SimpleSprite.obj
 0003:000027f0       ?LoadTexture@CSimpleSprite@@AEAA_NPEBD@Z$rtcVarDesc 00000001400367f0     Framework:SimpleSprite.obj
 0003:00002870       ?LoadTexture@CSimpleSprite@@AEAA_NPEBD@Z$rtcFrameData 0000000140036870     Framework:SimpleSprite.obj
 0003:000028b0       ??1?$_Tree@V?$_Tmap_traits@PEBDUsTextureDef@CSimpleSprite@@U?$less@PEBD@std@@V?$allocator@U?$pair@QEBDUsTextureDef@CSimpleSprite@@@std@@@4@$0A@@std@@@std@@QEAA@XZ$rtcName$0 00000001400368b0     Framework:SimpleSprite.obj
 0003:000028c0       ??1?$_Tree@V?$_Tmap_traits@PEBDUsTextureDef@CSimpleSprite@@U?$less@PEBD@std@@V?$allocator@U?$pair@QEBDUsTextureDef@CSimpleSprite@@@std@@@4@$0A@@std@@@std@@QEAA@XZ$rtcVarDesc 00000001400368c0     Framework:SimpleSprite.obj
 0003:00002900       ??1?$_Tree@V?$_Tmap_traits@PEBDUsTextureDef@CSimpleSprite@@U?$less@PEBD@std@@V?$allocator@U?$pair@QEBDUsTextureDef@CSimpleSprite@@@std@@@4@$0A@@std@@@std@@QEAA@XZ$rtcFrameData 0000000140036900     Framework:SimpleSprite.obj
 0003:00002930       ?_Alloc_sentinel_and_proxy@?$_Tree@V?$_Tmap_traits@PEBDUsTextureDef@CSimpleSprite@@U?$less@PEBD@std@@V?$allocator@U?$pair@QEBDUsTextureDef@CSimpleSprite@@@std@@@4@$0A@@std@@@std@@IEAAXXZ$rtcName$0 0000000140036930     Framework:SimpleSprite.obj
 0003:00002934       ?_Alloc_sentinel_and_proxy@?$_Tree@V?$_Tmap_traits@PEBDUsTextureDef@CSimpleSprite@@U?$less@PEBD@std@@V?$allocator@U?$pair@QEBDUsTextureDef@CSimpleSprite@@@std@@@4@$0A@@std@@@std@@IEAAXXZ$rtcName$1 0000000140036934     Framework:SimpleSprite.obj
 0003:00002940       ?_Alloc_sentinel_and_proxy@?$_Tree@V?$_Tmap_traits@PEBDUsTextureDef@CSimpleSprite@@U?$less@PEBD@std@@V?$allocator@U?$pair@QEBDUsTextureDef@CSimpleSprite@@@std@@@4@$0A@@std@@@std@@IEAAXXZ$rtcVarDesc 0000000140036940     Framework:SimpleSprite.obj
 0003:000029c0       ?_Alloc_sentinel_and_proxy@?$_Tree@V?$_Tmap_traits@PEBDUsTextureDef@CSimpleSprite@@U?$less@PEBD@std@@V?$allocator@U?$pair@QEBDUsTextureDef@CSimpleSprite@@@std@@@4@$0A@@std@@@std@@IEAAXXZ$rtcFrameData 00000001400369c0     Framework:SimpleSprite.obj
 0003:000029f0       ??$_Try_emplace@AEBQEBD$$V@?$map@PEBDUsTextureDef@CSimpleSprite@@U?$less@PEBD@std@@V?$allocator@U?$pair@QEBDUsTextureDef@CSimpleSprite@@@std@@@4@@std@@AEAA?AU?$pair@PEAU?$_Tree_node@U?$pair@QEBDUsTextureDef@CSimpleSprite@@@std@@PEAX@std@@_N@1@AEBQEBD@Z$rtcName$0 00000001400369f0     Framework:SimpleSprite.obj
 0003:00002a00       ??$_Try_emplace@AEBQEBD$$V@?$map@PEBDUsTextureDef@CSimpleSprite@@U?$less@PEBD@std@@V?$allocator@U?$pair@QEBDUsTextureDef@CSimpleSprite@@@std@@@4@@std@@AEAA?AU?$pair@PEAU?$_Tree_node@U?$pair@QEBDUsTextureDef@CSimpleSprite@@@std@@PEAX@std@@_N@1@AEBQEBD@Z$rtcVarDesc 0000000140036a00     Framework:SimpleSprite.obj
 0003:00002a40       ??$_Try_emplace@AEBQEBD$$V@?$map@PEBDUsTextureDef@CSimpleSprite@@U?$less@PEBD@std@@V?$allocator@U?$pair@QEBDUsTextureDef@CSimpleSprite@@@std@@@4@@std@@AEAA?AU?$pair@PEAU?$_Tree_node@U?$pair@QEBDUsTextureDef@CSimpleSprite@@@std@@PEAX@std@@_N@1@AEBQEBD@Z$rtcFrameData 0000000140036a40     Framework:SimpleSprite.obj
 0003:00002a70       ??$_Find@PEBD@?$_Tree@V?$_Tmap_traits@PEBDUsTextureDef@CSimpleSprite@@U?$less@PEBD@std@@V?$allocator@U?$pair@QEBDUsTextureDef@CSimpleSprite@@@std@@@4@$0A@@std@@@std@@AEBAPEAU?$_Tree_node@U?$pair@QEBDUsTextureDef@CSimpleSprite@@@std@@PEAX@1@AEBQEBD@Z$rtcName$0 0000000140036a70     Framework:SimpleSprite.obj
 0003:00002a80       ??$_Find@PEBD@?$_Tree@V?$_Tmap_traits@PEBDUsTextureDef@CSimpleSprite@@U?$less@PEBD@std@@V?$allocator@U?$pair@QEBDUsTextureDef@CSimpleSprite@@@std@@@4@$0A@@std@@@std@@AEBAPEAU?$_Tree_node@U?$pair@QEBDUsTextureDef@CSimpleSprite@@@std@@PEAX@1@AEBQEBD@Z$rtcVarDesc 0000000140036a80     Framework:SimpleSprite.obj
 0003:00002ac0       ??$_Find@PEBD@?$_Tree@V?$_Tmap_traits@PEBDUsTextureDef@CSimpleSprite@@U?$less@PEBD@std@@V?$allocator@U?$pair@QEBDUsTextureDef@CSimpleSprite@@@std@@@4@$0A@@std@@@std@@AEBAPEAU?$_Tree_node@U?$pair@QEBDUsTextureDef@CSimpleSprite@@@std@@PEAX@1@AEBQEBD@Z$rtcFrameData 0000000140036ac0     Framework:SimpleSprite.obj
 0003:00002af0       ??$_Buyheadnode@V?$allocator@U?$_Tree_node@U?$pair@QEBDUsTextureDef@CSimpleSprite@@@std@@PEAX@std@@@std@@@?$_Tree_node@U?$pair@QEBDUsTextureDef@CSimpleSprite@@@std@@PEAX@std@@SAPEAU01@AEAV?$allocator@U?$_Tree_node@U?$pair@QEBDUsTextureDef@CSimpleSprite@@@std@@PEAX@std@@@1@@Z$rtcName$0 0000000140036af0     Framework:SimpleSprite.obj
 0003:00002b00       ??$_Buyheadnode@V?$allocator@U?$_Tree_node@U?$pair@QEBDUsTextureDef@CSimpleSprite@@@std@@PEAX@std@@@std@@@?$_Tree_node@U?$pair@QEBDUsTextureDef@CSimpleSprite@@@std@@PEAX@std@@SAPEAU01@AEAV?$allocator@U?$_Tree_node@U?$pair@QEBDUsTextureDef@CSimpleSprite@@@std@@PEAX@std@@@1@@Z$rtcVarDesc 0000000140036b00     Framework:SimpleSprite.obj
 0003:00002b40       ??$_Buyheadnode@V?$allocator@U?$_Tree_node@U?$pair@QEBDUsTextureDef@CSimpleSprite@@@std@@PEAX@std@@@std@@@?$_Tree_node@U?$pair@QEBDUsTextureDef@CSimpleSprite@@@std@@PEAX@std@@SAPEAU01@AEAV?$allocator@U?$_Tree_node@U?$pair@QEBDUsTextureDef@CSimpleSprite@@@std@@PEAX@std@@@1@@Z$rtcFrameData 0000000140036b40     Framework:SimpleSprite.obj
 0003:00002b70       ??$_Find_lower_bound@PEBD@?$_Tree@V?$_Tmap_traits@PEBDUsTextureDef@CSimpleSprite@@U?$less@PEBD@std@@V?$allocator@U?$pair@QEBDUsTextureDef@CSimpleSprite@@@std@@@4@$0A@@std@@@std@@IEBA?AU?$_Tree_find_result@PEAU?$_Tree_node@U?$pair@QEBDUsTextureDef@CSimpleSprite@@@std@@PEAX@std@@@1@AEBQEBD@Z$rtcName$0 0000000140036b70     Framework:SimpleSprite.obj
 0003:00002b80       ??$_Find_lower_bound@PEBD@?$_Tree@V?$_Tmap_traits@PEBDUsTextureDef@CSimpleSprite@@U?$less@PEBD@std@@V?$allocator@U?$pair@QEBDUsTextureDef@CSimpleSprite@@@std@@@4@$0A@@std@@@std@@IEBA?AU?$_Tree_find_result@PEAU?$_Tree_node@U?$pair@QEBDUsTextureDef@CSimpleSprite@@@std@@PEAX@std@@@1@AEBQEBD@Z$rtcVarDesc 0000000140036b80     Framework:SimpleSprite.obj
 0003:00002bc0       ??$_Find_lower_bound@PEBD@?$_Tree@V?$_Tmap_traits@PEBDUsTextureDef@CSimpleSprite@@U?$less@PEBD@std@@V?$allocator@U?$pair@QEBDUsTextureDef@CSimpleSprite@@@std@@@4@$0A@@std@@@std@@IEBA?AU?$_Tree_find_result@PEAU?$_Tree_node@U?$pair@QEBDUsTextureDef@CSimpleSprite@@@std@@PEAX@std@@@1@AEBQEBD@Z$rtcFrameData 0000000140036bc0     Framework:SimpleSprite.obj
 0003:00003288       ?piecewise_construct@std@@3Upiecewise_construct_t@1@B 0000000140037288     Framework:SimpleSound.obj
 0003:00003290       ?Shutdown@CSimpleSound@@QEAAXXZ$rtcName$0 0000000140037290     Framework:SimpleSound.obj
 0003:000032a0       ?Shutdown@CSimpleSound@@QEAAXXZ$rtcName$1 00000001400372a0     Framework:SimpleSound.obj
 0003:000032ac       ?Shutdown@CSimpleSound@@QEAAXXZ$rtcName$2 00000001400372ac     Framework:SimpleSound.obj
 0003:000032b8       ?Shutdown@CSimpleSound@@QEAAXXZ$rtcFrameData 00000001400372b8     Framework:SimpleSound.obj
 0003:000032d0       ?Shutdown@CSimpleSound@@QEAAXXZ$rtcVarDesc 00000001400372d0     Framework:SimpleSound.obj
 0003:000033d0       ?IsPlaying@CSimpleSound@@QEAA_NPEBD@Z$rtcName$0 00000001400373d0     Framework:SimpleSound.obj
 0003:000033e0       ?IsPlaying@CSimpleSound@@QEAA_NPEBD@Z$rtcVarDesc 00000001400373e0     Framework:SimpleSound.obj
 0003:00003420       ?IsPlaying@CSimpleSound@@QEAA_NPEBD@Z$rtcFrameData 0000000140037420     Framework:SimpleSound.obj
 0003:00003450       ?InitializeDirectSound@CSimpleSound@@AEAA_NPEAUHWND__@@@Z$rtcName$0 0000000140037450     Framework:SimpleSound.obj
 0003:00003460       ?InitializeDirectSound@CSimpleSound@@AEAA_NPEAUHWND__@@@Z$rtcName$1 0000000140037460     Framework:SimpleSound.obj
 0003:00003470       ?InitializeDirectSound@CSimpleSound@@AEAA_NPEAUHWND__@@@Z$rtcVarDesc 0000000140037470     Framework:SimpleSound.obj
 0003:000034f0       ?InitializeDirectSound@CSimpleSound@@AEAA_NPEAUHWND__@@@Z$rtcFrameData 00000001400374f0     Framework:SimpleSound.obj
 0003:00003530       ?LoadWaveFile@CSimpleSound@@AEAA_NPEBD@Z$rtcName$0 0000000140037530     Framework:SimpleSound.obj
 0003:00003538       ?LoadWaveFile@CSimpleSound@@AEAA_NPEBD@Z$rtcName$1 0000000140037538     Framework:SimpleSound.obj
 0003:00003548       ?LoadWaveFile@CSimpleSound@@AEAA_NPEBD@Z$rtcName$2 0000000140037548     Framework:SimpleSound.obj
 0003:00003558       ?LoadWaveFile@CSimpleSound@@AEAA_NPEBD@Z$rtcName$3 0000000140037558     Framework:SimpleSound.obj
 0003:00003568       ?LoadWaveFile@CSimpleSound@@AEAA_NPEBD@Z$rtcName$4 0000000140037568     Framework:SimpleSound.obj
 0003:00003578       ?LoadWaveFile@CSimpleSound@@AEAA_NPEBD@Z$rtcName$5 0000000140037578     Framework:SimpleSound.obj
 0003:00003588       ?LoadWaveFile@CSimpleSound@@AEAA_NPEBD@Z$rtcName$6 0000000140037588     Framework:SimpleSound.obj
 0003:000035a0       ?LoadWaveFile@CSimpleSound@@AEAA_NPEBD@Z$rtcVarDesc 00000001400375a0     Framework:SimpleSound.obj
 0003:00003760       ?LoadWaveFile@CSimpleSound@@AEAA_NPEBD@Z$rtcFrameData 0000000140037760     Framework:SimpleSound.obj
 0003:000037f0       ??1?$_Tree@V?$_Tmap_traits@PEBDPEAUIDirectSoundBuffer8@@U?$less@PEBD@std@@V?$allocator@U?$pair@QEBDPEAUIDirectSoundBuffer8@@@std@@@3@$0A@@std@@@std@@QEAA@XZ$rtcName$0 00000001400377f0     Framework:SimpleSound.obj
 0003:00003800       ??1?$_Tree@V?$_Tmap_traits@PEBDPEAUIDirectSoundBuffer8@@U?$less@PEBD@std@@V?$allocator@U?$pair@QEBDPEAUIDirectSoundBuffer8@@@std@@@3@$0A@@std@@@std@@QEAA@XZ$rtcVarDesc 0000000140037800     Framework:SimpleSound.obj
 0003:00003840       ??1?$_Tree@V?$_Tmap_traits@PEBDPEAUIDirectSoundBuffer8@@U?$less@PEBD@std@@V?$allocator@U?$pair@QEBDPEAUIDirectSoundBuffer8@@@std@@@3@$0A@@std@@@std@@QEAA@XZ$rtcFrameData 0000000140037840     Framework:SimpleSound.obj
 0003:00003870       ?_Alloc_sentinel_and_proxy@?$_Tree@V?$_Tmap_traits@PEBDPEAUIDirectSoundBuffer8@@U?$less@PEBD@std@@V?$allocator@U?$pair@QEBDPEAUIDirectSoundBuffer8@@@std@@@3@$0A@@std@@@std@@IEAAXXZ$rtcName$0 0000000140037870     Framework:SimpleSound.obj
 0003:00003874       ?_Alloc_sentinel_and_proxy@?$_Tree@V?$_Tmap_traits@PEBDPEAUIDirectSoundBuffer8@@U?$less@PEBD@std@@V?$allocator@U?$pair@QEBDPEAUIDirectSoundBuffer8@@@std@@@3@$0A@@std@@@std@@IEAAXXZ$rtcName$1 0000000140037874     Framework:SimpleSound.obj
 0003:00003880       ?_Alloc_sentinel_and_proxy@?$_Tree@V?$_Tmap_traits@PEBDPEAUIDirectSoundBuffer8@@U?$less@PEBD@std@@V?$allocator@U?$pair@QEBDPEAUIDirectSoundBuffer8@@@std@@@3@$0A@@std@@@std@@IEAAXXZ$rtcVarDesc 0000000140037880     Framework:SimpleSound.obj
 0003:00003900       ?_Alloc_sentinel_and_proxy@?$_Tree@V?$_Tmap_traits@PEBDPEAUIDirectSoundBuffer8@@U?$less@PEBD@std@@V?$allocator@U?$pair@QEBDPEAUIDirectSoundBuffer8@@@std@@@3@$0A@@std@@@std@@IEAAXXZ$rtcFrameData 0000000140037900     Framework:SimpleSound.obj
 0003:00003930       ?_Orphan_ptr@?$_Tree_val@U?$_Tree_simple_types@U?$pair@QEBDPEAUIDirectSoundBuffer8@@@std@@@std@@@std@@QEAAXQEAU?$_Tree_node@U?$pair@QEBDPEAUIDirectSoundBuffer8@@@std@@PEAX@2@@Z$rtcName$0 0000000140037930     Framework:SimpleSound.obj
 0003:00003940       ?_Orphan_ptr@?$_Tree_val@U?$_Tree_simple_types@U?$pair@QEBDPEAUIDirectSoundBuffer8@@@std@@@std@@@std@@QEAAXQEAU?$_Tree_node@U?$pair@QEBDPEAUIDirectSoundBuffer8@@@std@@PEAX@2@@Z$rtcVarDesc 0000000140037940     Framework:SimpleSound.obj
 0003:00003980       ?_Orphan_ptr@?$_Tree_val@U?$_Tree_simple_types@U?$pair@QEBDPEAUIDirectSoundBuffer8@@@std@@@std@@@std@@QEAAXQEAU?$_Tree_node@U?$pair@QEBDPEAUIDirectSoundBuffer8@@@std@@PEAX@2@@Z$rtcFrameData 0000000140037980     Framework:SimpleSound.obj
 0003:000039b0       ??$_Try_emplace@AEBQEBD$$V@?$map@PEBDPEAUIDirectSoundBuffer8@@U?$less@PEBD@std@@V?$allocator@U?$pair@QEBDPEAUIDirectSoundBuffer8@@@std@@@3@@std@@AEAA?AU?$pair@PEAU?$_Tree_node@U?$pair@QEBDPEAUIDirectSoundBuffer8@@@std@@PEAX@std@@_N@1@AEBQEBD@Z$rtcName$0 00000001400379b0     Framework:SimpleSound.obj
 0003:000039c0       ??$_Try_emplace@AEBQEBD$$V@?$map@PEBDPEAUIDirectSoundBuffer8@@U?$less@PEBD@std@@V?$allocator@U?$pair@QEBDPEAUIDirectSoundBuffer8@@@std@@@3@@std@@AEAA?AU?$pair@PEAU?$_Tree_node@U?$pair@QEBDPEAUIDirectSoundBuffer8@@@std@@PEAX@std@@_N@1@AEBQEBD@Z$rtcVarDesc 00000001400379c0     Framework:SimpleSound.obj
 0003:00003a00       ??$_Try_emplace@AEBQEBD$$V@?$map@PEBDPEAUIDirectSoundBuffer8@@U?$less@PEBD@std@@V?$allocator@U?$pair@QEBDPEAUIDirectSoundBuffer8@@@std@@@3@@std@@AEAA?AU?$pair@PEAU?$_Tree_node@U?$pair@QEBDPEAUIDirectSoundBuffer8@@@std@@PEAX@std@@_N@1@AEBQEBD@Z$rtcFrameData 0000000140037a00     Framework:SimpleSound.obj
 0003:00003a30       ??$_Buyheadnode@V?$allocator@U?$_Tree_node@U?$pair@QEBDPEAUIDirectSoundBuffer8@@@std@@PEAX@std@@@std@@@?$_Tree_node@U?$pair@QEBDPEAUIDirectSoundBuffer8@@@std@@PEAX@std@@SAPEAU01@AEAV?$allocator@U?$_Tree_node@U?$pair@QEBDPEAUIDirectSoundBuffer8@@@std@@PEAX@std@@@1@@Z$rtcName$0 0000000140037a30     Framework:SimpleSound.obj
 0003:00003a40       ??$_Buyheadnode@V?$allocator@U?$_Tree_node@U?$pair@QEBDPEAUIDirectSoundBuffer8@@@std@@PEAX@std@@@std@@@?$_Tree_node@U?$pair@QEBDPEAUIDirectSoundBuffer8@@@std@@PEAX@std@@SAPEAU01@AEAV?$allocator@U?$_Tree_node@U?$pair@QEBDPEAUIDirectSoundBuffer8@@@std@@PEAX@std@@@1@@Z$rtcVarDesc 0000000140037a40     Framework:SimpleSound.obj
 0003:00003a80       ??$_Buyheadnode@V?$allocator@U?$_Tree_node@U?$pair@QEBDPEAUIDirectSoundBuffer8@@@std@@PEAX@std@@@std@@@?$_Tree_node@U?$pair@QEBDPEAUIDirectSoundBuffer8@@@std@@PEAX@std@@SAPEAU01@AEAV?$allocator@U?$_Tree_node@U?$pair@QEBDPEAUIDirectSoundBuffer8@@@std@@PEAX@std@@@1@@Z$rtcFrameData 0000000140037a80     Framework:SimpleSound.obj
 0003:00003ab0       ??$_Find_lower_bound@PEBD@?$_Tree@V?$_Tmap_traits@PEBDPEAUIDirectSoundBuffer8@@U?$less@PEBD@std@@V?$allocator@U?$pair@QEBDPEAUIDirectSoundBuffer8@@@std@@@3@$0A@@std@@@std@@IEBA?AU?$_Tree_find_result@PEAU?$_Tree_node@U?$pair@QEBDPEAUIDirectSoundBuffer8@@@std@@PEAX@std@@@1@AEBQEBD@Z$rtcName$0 0000000140037ab0     Framework:SimpleSound.obj
 0003:00003ac0       ??$_Find_lower_bound@PEBD@?$_Tree@V?$_Tmap_traits@PEBDPEAUIDirectSoundBuffer8@@U?$less@PEBD@std@@V?$allocator@U?$pair@QEBDPEAUIDirectSoundBuffer8@@@std@@@3@$0A@@std@@@std@@IEBA?AU?$_Tree_find_result@PEAU?$_Tree_node@U?$pair@QEBDPEAUIDirectSoundBuffer8@@@std@@PEAX@std@@@1@AEBQEBD@Z$rtcVarDesc 0000000140037ac0     Framework:SimpleSound.obj
 0003:00003b00       ??$_Find_lower_bound@PEBD@?$_Tree@V?$_Tmap_traits@PEBDPEAUIDirectSoundBuffer8@@U?$less@PEBD@std@@V?$allocator@U?$pair@QEBDPEAUIDirectSoundBuffer8@@@std@@@3@$0A@@std@@@std@@IEBA?AU?$_Tree_find_result@PEAU?$_Tree_node@U?$pair@QEBDPEAUIDirectSoundBuffer8@@@std@@PEAX@std@@@1@AEBQEBD@Z$rtcFrameData 0000000140037b00     Framework:SimpleSound.obj
 0003:00003b30       ?loadBMPRaw@@YAPEAEPEBDAEAI1_N@Z$rtcName$0 0000000140037b30     Framework:TextureLoader.obj
 0003:00003b40       ?loadBMPRaw@@YAPEAEPEBDAEAI1_N@Z$rtcVarDesc 0000000140037b40     Framework:TextureLoader.obj
 0003:00003b80       ?loadBMPRaw@@YAPEAEPEBDAEAI1_N@Z$rtcFrameData 0000000140037b80     Framework:TextureLoader.obj
 0003:000089e0       ?_RTC_errlist@@3QBQEBDB    000000014003c9e0     MSVCRTD:userapi.obj
 0003:00008ae8       ?_RTC_ErrorMessages@@3QBQEBDB 000000014003cae8     MSVCRTD:error.obj
 0003:00008b18       ?_RTC_NoFalsePositives@@3QBHB 000000014003cb18     MSVCRTD:error.obj
 0003:00008b30       ?stack_premsg@@3QBDB       000000014003cb30     MSVCRTD:error.obj
 0003:00008b50       ?stack_postmsg@@3QBDB      000000014003cb50     MSVCRTD:error.obj
 0003:00008b68       ?uninit_premsg@@3QBDB      000000014003cb68     MSVCRTD:error.obj
 0003:00008b78       ?uninit_postmsg@@3QBDB     000000014003cb78     MSVCRTD:error.obj
 0003:000091f8       GS_ExceptionPointers       000000014003d1f8     MSVCRTD:gs_report.obj
 0003:00009228       ?mspdbName@@3QB_WB         000000014003d228     MSVCRTD:pdblkup.obj
 0003:00009258       ?debugCrtFileName@@3QB_WB  000000014003d258     MSVCRTD:pdblkup.obj
 0003:000093f0       ?dllExt@?1??GetPdbDllPathFromFilePath@@YAHPEB_WPEA_W_K@Z@4QB_WB 000000014003d3f0     MSVCRTD:pdblkup.obj
 0003:00009400       ?mspdbFilename@?1??GetPdbDllPathFromFilePath@@YAHPEB_WPEA_W_K@Z@4QB_WB 000000014003d400     MSVCRTD:pdblkup.obj
 0003:0000a470       _RTC_InitBase.rtc$IMZ      000000014003e470     AABB.obj
 0003:0000a480       _RTC_InitBase.rtc$IMZ      000000014003e480     Box.obj
 0003:0000a490       _RTC_InitBase.rtc$IMZ      000000014003e490     Character.obj
 0003:0000a4a0       _RTC_InitBase.rtc$IMZ      000000014003e4a0     Door.obj
 0003:0000a4b0       _RTC_InitBase.rtc$IMZ      000000014003e4b0     Obstacle.obj
 0003:0000a4c0       _RTC_InitBase.rtc$IMZ      000000014003e4c0     UbisoftProject.obj
 0003:0000a4d0       _RTC_InitBase.rtc$IMZ      000000014003e4d0     Wall.obj
 0003:0000a4e0       _RTC_InitBase.rtc$IMZ      000000014003e4e0     Framework:main.obj
 0003:0000a4f0       _RTC_InitBase.rtc$IMZ      000000014003e4f0     Framework:app.obj
 0003:0000a500       _RTC_InitBase.rtc$IMZ      000000014003e500     Framework:SimpleSprite.obj
 0003:0000a510       _RTC_InitBase.rtc$IMZ      000000014003e510     Framework:SimpleController.obj
 0003:0000a520       _RTC_InitBase.rtc$IMZ      000000014003e520     Framework:SimpleSound.obj
 0003:0000a530       _RTC_InitBase.rtc$IMZ      000000014003e530     Framework:TextureLoader.obj
 0003:0000a878       _RTC_Shutdown.rtc$TMZ      000000014003e878     AABB.obj
 0003:0000a888       _RTC_Shutdown.rtc$TMZ      000000014003e888     Box.obj
 0003:0000a898       _RTC_Shutdown.rtc$TMZ      000000014003e898     Character.obj
 0003:0000a8a8       _RTC_Shutdown.rtc$TMZ      000000014003e8a8     Door.obj
 0003:0000a8b8       _RTC_Shutdown.rtc$TMZ      000000014003e8b8     Obstacle.obj
 0003:0000a8c8       _RTC_Shutdown.rtc$TMZ      000000014003e8c8     UbisoftProject.obj
 0003:0000a8d8       _RTC_Shutdown.rtc$TMZ      000000014003e8d8     Wall.obj
 0003:0000a8e8       _RTC_Shutdown.rtc$TMZ      000000014003e8e8     Framework:main.obj
 0003:0000a8f8       _RTC_Shutdown.rtc$TMZ      000000014003e8f8     Framework:app.obj
 0003:0000a908       _RTC_Shutdown.rtc$TMZ      000000014003e908     Framework:SimpleSprite.obj
 0003:0000a918       _RTC_Shutdown.rtc$TMZ      000000014003e918     Framework:SimpleController.obj
 0003:0000a928       _RTC_Shutdown.rtc$TMZ      000000014003e928     Framework:SimpleSound.obj
 0003:0000a938       _RTC_Shutdown.rtc$TMZ      000000014003e938     Framework:TextureLoader.obj
 0003:0000ab70       $unwind$?areColliding@@YA_NAEBUAABB@@0@Z 000000014003eb70     AABB.obj
 0003:0000ab84       $unwind$??0Box@@QEAA@MM@Z  000000014003eb84     Box.obj
 0003:0000ab9e       $cppxdata$??0Box@@QEAA@MM@Z 000000014003eb9e     Box.obj
 0003:0000aba7       $stateUnwindMap$??0Box@@QEAA@MM@Z 000000014003eba7     Box.obj
 0003:0000abad       $ip2state$??0Box@@QEAA@MM@Z 000000014003ebad     Box.obj
 0003:0000abb4       $unwind$?dtor$0@?0???0Box@@QEAA@MM@Z@4HA 000000014003ebb4     Box.obj
 0003:0000abc4       $unwind$??1Box@@UEAA@XZ    000000014003ebc4     Box.obj
 0003:0000abde       $cppxdata$??1Box@@UEAA@XZ  000000014003ebde     Box.obj
 0003:0000abe3       $ip2state$??1Box@@UEAA@XZ  000000014003ebe3     Box.obj
 0003:0000abe8       $unwind$?deplacementBox@Box@@UEAAXH@Z 000000014003ebe8     Box.obj
 0003:0000ac04       $unwind$?areColliding@Box@@UEAAHAEBUAABB@@0@Z 000000014003ec04     Box.obj
 0003:0000ac18       $unwind$??_GBox@@UEAAPEAXI@Z 000000014003ec18     Box.obj
 0003:0000ac2c       $unwind$?SetPosition@CSimpleSprite@@QEAAXMM@Z 000000014003ec2c     Box.obj
 0003:0000ac40       $unwind$?SetScale@CSimpleSprite@@QEAAXM@Z 000000014003ec40     Box.obj
 0003:0000ac54       $unwind$?GetPosition@CSimpleSprite@@QEAAXAEAM0@Z 000000014003ec54     Box.obj
 0003:0000ac68       $unwind$??0Character@@QEAA@XZ 000000014003ec68     Character.obj
 0003:0000ac7c       $unwind$??1Character@@QEAA@XZ 000000014003ec7c     Character.obj
 0003:0000ac96       $cppxdata$??1Character@@QEAA@XZ 000000014003ec96     Character.obj
 0003:0000ac9b       $ip2state$??1Character@@QEAA@XZ 000000014003ec9b     Character.obj
 0003:0000aca0       $unwind$?Update@Character@@QEAAXM@Z 000000014003eca0     Character.obj
 0003:0000acbc       $unwind$?Render@Character@@QEAAXXZ 000000014003ecbc     Character.obj
 0003:0000acd0       $unwind$?SetOldPosition@Character@@QEAAXXZ 000000014003ecd0     Character.obj
 0003:0000ace4       $unwind$?UpdateAABB@Character@@AEAAXXZ 000000014003ece4     Character.obj
 0003:0000ad00       $unwind$?GetLeftThumbStickX@CController@@QEBAMXZ 000000014003ed00     Character.obj
 0003:0000ad14       $unwind$?GetLeftThumbStickY@CController@@QEBAMH@Z 000000014003ed14     Character.obj
 0003:0000ad28       $unwind$?GetWidth@CSimpleSprite@@QEBAMXZ 000000014003ed28     Character.obj
 0003:0000ad3c       $unwind$?GetHeight@CSimpleSprite@@QEBAMXZ 000000014003ed3c     Character.obj
 0003:0000ad50       $unwind$??0Door@@QEAA@MMMM@Z 000000014003ed50     Door.obj
 0003:0000ad64       $unwind$??1Door@@QEAA@XZ   000000014003ed64     Door.obj
 0003:0000ad7e       $cppxdata$??1Door@@QEAA@XZ 000000014003ed7e     Door.obj
 0003:0000ad83       $ip2state$??1Door@@QEAA@XZ 000000014003ed83     Door.obj
 0003:0000ad88       $unwind$?Update@Door@@QEAAXM@Z 000000014003ed88     Door.obj
 0003:0000ad9c       $unwind$?Render@Door@@QEAAXXZ 000000014003ed9c     Door.obj
 0003:0000adb0       $unwind$??0Obstacle@@QEAA@XZ 000000014003edb0     Obstacle.obj
 0003:0000adc4       $unwind$??1Obstacle@@UEAA@XZ 000000014003edc4     Obstacle.obj
 0003:0000adde       $cppxdata$??1Obstacle@@UEAA@XZ 000000014003edde     Obstacle.obj
 0003:0000ade3       $ip2state$??1Obstacle@@UEAA@XZ 000000014003ede3     Obstacle.obj
 0003:0000ade8       $unwind$?Render@Obstacle@@QEAAXXZ 000000014003ede8     Obstacle.obj
 0003:0000adfc       $unwind$?Update@Obstacle@@QEAAXXZ 000000014003edfc     Obstacle.obj
 0003:0000ae10       $unwind$?UpdateAABB@Obstacle@@IEAAXXZ 000000014003ee10     Obstacle.obj
 0003:0000ae2c       $unwind$??_GObstacle@@UEAAPEAXI@Z 000000014003ee2c     Obstacle.obj
 0003:0000ae40       $unwind$?__empty_global_delete@@YAXPEAX@Z 000000014003ee40     UbisoftProject.obj
 0003:0000ae54       $unwind$?__empty_global_delete@@YAXPEAX_K@Z 000000014003ee54     UbisoftProject.obj
 0003:0000ae68       $unwind$??2@YAPEAX_KPEAX@Z 000000014003ee68     UbisoftProject.obj
 0003:0000ae82       $cppxdata$??2@YAPEAX_KPEAX@Z 000000014003ee82     UbisoftProject.obj
 0003:0000ae87       $ip2state$??2@YAPEAX_KPEAX@Z 000000014003ee87     UbisoftProject.obj
 0003:0000ae8c       $unwind$??0exception@std@@QEAA@QEBDH@Z 000000014003ee8c     UbisoftProject.obj
 0003:0000aea6       $cppxdata$??0exception@std@@QEAA@QEBDH@Z 000000014003eea6     UbisoftProject.obj
 0003:0000aeab       $ip2state$??0exception@std@@QEAA@QEBDH@Z 000000014003eeab     UbisoftProject.obj
 0003:0000aeb0       $unwind$??0exception@std@@QEAA@AEBV01@@Z 000000014003eeb0     UbisoftProject.obj
 0003:0000aeca       $cppxdata$??0exception@std@@QEAA@AEBV01@@Z 000000014003eeca     UbisoftProject.obj
 0003:0000aecf       $ip2state$??0exception@std@@QEAA@AEBV01@@Z 000000014003eecf     UbisoftProject.obj
 0003:0000aed4       $unwind$??1exception@std@@UEAA@XZ 000000014003eed4     UbisoftProject.obj
 0003:0000aeee       $cppxdata$??1exception@std@@UEAA@XZ 000000014003eeee     UbisoftProject.obj
 0003:0000aef3       $ip2state$??1exception@std@@UEAA@XZ 000000014003eef3     UbisoftProject.obj
 0003:0000aef8       $unwind$?what@exception@std@@UEBAPEBDXZ 000000014003eef8     UbisoftProject.obj
 0003:0000af0c       $unwind$??_Gexception@std@@UEAAPEAXI@Z 000000014003ef0c     UbisoftProject.obj
 0003:0000af20       $unwind$??0bad_alloc@std@@AEAA@QEBD@Z 000000014003ef20     UbisoftProject.obj
 0003:0000af3a       $cppxdata$??0bad_alloc@std@@AEAA@QEBD@Z 000000014003ef3a     UbisoftProject.obj
 0003:0000af3f       $ip2state$??0bad_alloc@std@@AEAA@QEBD@Z 000000014003ef3f     UbisoftProject.obj
 0003:0000af44       $unwind$??1bad_alloc@std@@UEAA@XZ 000000014003ef44     UbisoftProject.obj
 0003:0000af58       $unwind$??0bad_alloc@std@@QEAA@AEBV01@@Z 000000014003ef58     UbisoftProject.obj
 0003:0000af6c       $unwind$??_Gbad_alloc@std@@UEAAPEAXI@Z 000000014003ef6c     UbisoftProject.obj
 0003:0000af80       $unwind$??0bad_array_new_length@std@@QEAA@XZ 000000014003ef80     UbisoftProject.obj
 0003:0000af9a       $cppxdata$??0bad_array_new_length@std@@QEAA@XZ 000000014003ef9a     UbisoftProject.obj
 0003:0000af9f       $ip2state$??0bad_array_new_length@std@@QEAA@XZ 000000014003ef9f     UbisoftProject.obj
 0003:0000afa4       $unwind$??1bad_array_new_length@std@@UEAA@XZ 000000014003efa4     UbisoftProject.obj
 0003:0000afb8       $unwind$??0bad_array_new_length@std@@QEAA@AEBV01@@Z 000000014003efb8     UbisoftProject.obj
 0003:0000afcc       $unwind$??_Gbad_array_new_length@std@@UEAAPEAXI@Z 000000014003efcc     UbisoftProject.obj
 0003:0000afe0       $unwind$?_Throw_bad_array_new_length@std@@YAXXZ 000000014003efe0     UbisoftProject.obj
 0003:0000aff4       $unwind$?max@?$numeric_limits@_J@std@@SA_JXZ 000000014003eff4     UbisoftProject.obj
 0003:0000b00e       $cppxdata$?max@?$numeric_limits@_J@std@@SA_JXZ 000000014003f00e     UbisoftProject.obj
 0003:0000b013       $ip2state$?max@?$numeric_limits@_J@std@@SA_JXZ 000000014003f013     UbisoftProject.obj
 0003:0000b018       $unwind$?_Allocate@_Default_allocate_traits@std@@SAPEAX_K@Z 000000014003f018     UbisoftProject.obj
 0003:0000b02c       $unwind$?_Adjust_manually_vector_aligned@std@@YAXAEAPEAXAEA_K@Z 000000014003f02c     UbisoftProject.obj
 0003:0000b040       $unwind$??0_Container_proxy@std@@QEAA@PEAU_Container_base12@1@@Z 000000014003f040     UbisoftProject.obj
 0003:0000b05a       $cppxdata$??0_Container_proxy@std@@QEAA@PEAU_Container_base12@1@@Z 000000014003f05a     UbisoftProject.obj
 0003:0000b05f       $ip2state$??0_Container_proxy@std@@QEAA@PEAU_Container_base12@1@@Z 000000014003f05f     UbisoftProject.obj
 0003:0000b064       $unwind$??0_Container_base12@std@@QEAA@XZ 000000014003f064     UbisoftProject.obj
 0003:0000b078       $unwind$?_Orphan_all@_Container_base12@std@@QEAAXXZ 000000014003f078     UbisoftProject.obj
 0003:0000b096       $cppxdata$?_Orphan_all@_Container_base12@std@@QEAAXXZ 000000014003f096     UbisoftProject.obj
 0003:0000b09b       $ip2state$?_Orphan_all@_Container_base12@std@@QEAAXXZ 000000014003f09b     UbisoftProject.obj
 0003:0000b0a0       $unwind$?_Swap_proxy_and_iterators@_Container_base12@std@@QEAAXAEAU12@@Z 000000014003f0a0     UbisoftProject.obj
 0003:0000b0be       $cppxdata$?_Swap_proxy_and_iterators@_Container_base12@std@@QEAAXAEAU12@@Z 000000014003f0be     UbisoftProject.obj
 0003:0000b0c3       $ip2state$?_Swap_proxy_and_iterators@_Container_base12@std@@QEAAXAEAU12@@Z 000000014003f0c3     UbisoftProject.obj
 0003:0000b0c8       $unwind$??$_Construct_in_place@U_Container_proxy@std@@PEAU_Container_base12@2@@std@@YAXAEAU_Container_proxy@0@$$QEAPEAU_Container_base12@0@@Z 000000014003f0c8     UbisoftProject.obj
 0003:0000b0e2       $cppxdata$??$_Construct_in_place@U_Container_proxy@std@@PEAU_Container_base12@2@@std@@YAXAEAU_Container_proxy@0@$$QEAPEAU_Container_base12@0@@Z 000000014003f0e2     UbisoftProject.obj
 0003:0000b0e7       $ip2state$??$_Construct_in_place@U_Container_proxy@std@@PEAU_Container_base12@2@@std@@YAXAEAU_Container_proxy@0@$$QEAPEAU_Container_base12@0@@Z 000000014003f0e7     UbisoftProject.obj
 0003:0000b0ec       $unwind$?_Release@_Basic_container_proxy_ptr12@std@@QEAAXXZ 000000014003f0ec     UbisoftProject.obj
 0003:0000b106       $cppxdata$?_Release@_Basic_container_proxy_ptr12@std@@QEAAXXZ 000000014003f106     UbisoftProject.obj
 0003:0000b10b       $ip2state$?_Release@_Basic_container_proxy_ptr12@std@@QEAAXXZ 000000014003f10b     UbisoftProject.obj
 0003:0000b110       $unwind$??$addressof@U_Container_base12@std@@@std@@YAPEAU_Container_base12@0@AEAU10@@Z 000000014003f110     UbisoftProject.obj
 0003:0000b12a       $cppxdata$??$addressof@U_Container_base12@std@@@std@@YAPEAU_Container_base12@0@AEAU10@@Z 000000014003f12a     UbisoftProject.obj
 0003:0000b12f       $ip2state$??$addressof@U_Container_base12@std@@@std@@YAPEAU_Container_base12@0@AEAU10@@Z 000000014003f12f     UbisoftProject.obj
 0003:0000b134       $unwind$??$_Min_value@_K@std@@YAAEB_KAEB_K0@Z 000000014003f134     UbisoftProject.obj
 0003:0000b14e       $cppxdata$??$_Min_value@_K@std@@YAAEB_KAEB_K0@Z 000000014003f14e     UbisoftProject.obj
 0003:0000b153       $ip2state$??$_Min_value@_K@std@@YAAEB_KAEB_K0@Z 000000014003f153     UbisoftProject.obj
 0003:0000b158       $unwind$?CheckButton@CController@@QEBA_NH_N@Z 000000014003f158     UbisoftProject.obj
 0003:0000b16c       $unwind$?GetAABB@Character@@QEBAAEBUAABB@@XZ 000000014003f16c     UbisoftProject.obj
 0003:0000b180       $unwind$?__autoclassinit2@Character@@QEAAX_K@Z 000000014003f180     UbisoftProject.obj
 0003:0000b194       $unwind$??_GCharacter@@QEAAPEAXI@Z 000000014003f194     UbisoftProject.obj
 0003:0000b1a8       $unwind$?GetAABB@Obstacle@@QEBAAEBUAABB@@XZ 000000014003f1a8     UbisoftProject.obj
 0003:0000b1bc       $unwind$?__autoclassinit2@Box@@QEAAX_K@Z 000000014003f1bc     UbisoftProject.obj
 0003:0000b1d0       $unwind$?__autoclassinit2@Wall@@QEAAX_K@Z 000000014003f1d0     UbisoftProject.obj
 0003:0000b1e4       $unwind$?GetAABB@Door@@QEBAAEBUAABB@@XZ 000000014003f1e4     UbisoftProject.obj
 0003:0000b1f8       $unwind$??0?$allocator@V?$vector@PEAVObstacle@@V?$allocator@PEAVObstacle@@@std@@@std@@@std@@QEAA@XZ 000000014003f1f8     UbisoftProject.obj
 0003:0000b212       $cppxdata$??0?$allocator@V?$vector@PEAVObstacle@@V?$allocator@PEAVObstacle@@@std@@@std@@@std@@QEAA@XZ 000000014003f212     UbisoftProject.obj
 0003:0000b217       $ip2state$??0?$allocator@V?$vector@PEAVObstacle@@V?$allocator@PEAVObstacle@@@std@@@std@@@std@@QEAA@XZ 000000014003f217     UbisoftProject.obj
 0003:0000b21c       $unwind$?deallocate@?$allocator@V?$vector@PEAVObstacle@@V?$allocator@PEAVObstacle@@@std@@@std@@@std@@QEAAXQEAV?$vector@PEAVObstacle@@V?$allocator@PEAVObstacle@@@std@@@2@_K@Z 000000014003f21c     UbisoftProject.obj
 0003:0000b230       $unwind$?allocate@?$allocator@V?$vector@PEAVObstacle@@V?$allocator@PEAVObstacle@@@std@@@std@@@std@@QEAAPEAV?$vector@PEAVObstacle@@V?$allocator@PEAVObstacle@@@std@@@2@_K@Z 000000014003f230     UbisoftProject.obj
 0003:0000b244       $unwind$?max_size@?$_Default_allocator_traits@V?$allocator@V?$vector@PEAVObstacle@@V?$allocator@PEAVObstacle@@@std@@@std@@@std@@@std@@SA_KAEBV?$allocator@V?$vector@PEAVObstacle@@V?$allocator@PEAVObstacle@@@std@@@std@@@2@@Z 000000014003f244     UbisoftProject.obj
 0003:0000b25e       $cppxdata$?max_size@?$_Default_allocator_traits@V?$allocator@V?$vector@PEAVObstacle@@V?$allocator@PEAVObstacle@@@std@@@std@@@std@@@std@@SA_KAEBV?$allocator@V?$vector@PEAVObstacle@@V?$allocator@PEAVObstacle@@@std@@@std@@@2@@Z 000000014003f25e     UbisoftProject.obj
 0003:0000b263       $ip2state$?max_size@?$_Default_allocator_traits@V?$allocator@V?$vector@PEAVObstacle@@V?$allocator@PEAVObstacle@@@std@@@std@@@std@@@std@@SA_KAEBV?$allocator@V?$vector@PEAVObstacle@@V?$allocator@PEAVObstacle@@@std@@@std@@@2@@Z 000000014003f263     UbisoftProject.obj
 0003:0000b268       $unwind$??0?$vector@V?$vector@PEAVObstacle@@V?$allocator@PEAVObstacle@@@std@@@std@@V?$allocator@V?$vector@PEAVObstacle@@V?$allocator@PEAVObstacle@@@std@@@std@@@2@@std@@QEAA@XZ 000000014003f268     UbisoftProject.obj
 0003:0000b282       $cppxdata$??0?$vector@V?$vector@PEAVObstacle@@V?$allocator@PEAVObstacle@@@std@@@std@@V?$allocator@V?$vector@PEAVObstacle@@V?$allocator@PEAVObstacle@@@std@@@std@@@2@@std@@QEAA@XZ 000000014003f282     UbisoftProject.obj
 0003:0000b287       $ip2state$??0?$vector@V?$vector@PEAVObstacle@@V?$allocator@PEAVObstacle@@@std@@@std@@V?$allocator@V?$vector@PEAVObstacle@@V?$allocator@PEAVObstacle@@@std@@@std@@@2@@std@@QEAA@XZ 000000014003f287     UbisoftProject.obj
 0003:0000b28c       $unwind$??1?$vector@V?$vector@PEAVObstacle@@V?$allocator@PEAVObstacle@@@std@@@std@@V?$allocator@V?$vector@PEAVObstacle@@V?$allocator@PEAVObstacle@@@std@@@std@@@2@@std@@QEAA@XZ 000000014003f28c     UbisoftProject.obj
 0003:0000b2aa       $cppxdata$??1?$vector@V?$vector@PEAVObstacle@@V?$allocator@PEAVObstacle@@@std@@@std@@V?$allocator@V?$vector@PEAVObstacle@@V?$allocator@PEAVObstacle@@@std@@@std@@@2@@std@@QEAA@XZ 000000014003f2aa     UbisoftProject.obj
 0003:0000b2af       $ip2state$??1?$vector@V?$vector@PEAVObstacle@@V?$allocator@PEAVObstacle@@@std@@@std@@V?$allocator@V?$vector@PEAVObstacle@@V?$allocator@PEAVObstacle@@@std@@@std@@@2@@std@@QEAA@XZ 000000014003f2af     UbisoftProject.obj
 0003:0000b2b4       $unwind$?push_back@?$vector@V?$vector@PEAVObstacle@@V?$allocator@PEAVObstacle@@@std@@@std@@V?$allocator@V?$vector@PEAVObstacle@@V?$allocator@PEAVObstacle@@@std@@@std@@@2@@std@@QEAAXAEBV?$vector@PEAVObstacle@@V?$allocator@PEAVObstacle@@@std@@@2@@Z 000000014003f2b4     UbisoftProject.obj
 0003:0000b2c8       $unwind$?max_size@?$vector@V?$vector@PEAVObstacle@@V?$allocator@PEAVObstacle@@@std@@@std@@V?$allocator@V?$vector@PEAVObstacle@@V?$allocator@PEAVObstacle@@@std@@@std@@@2@@std@@QEBA_KXZ 000000014003f2c8     UbisoftProject.obj
 0003:0000b2e2       $cppxdata$?max_size@?$vector@V?$vector@PEAVObstacle@@V?$allocator@PEAVObstacle@@@std@@@std@@V?$allocator@V?$vector@PEAVObstacle@@V?$allocator@PEAVObstacle@@@std@@@std@@@2@@std@@QEBA_KXZ 000000014003f2e2     UbisoftProject.obj
 0003:0000b2e7       $ip2state$?max_size@?$vector@V?$vector@PEAVObstacle@@V?$allocator@PEAVObstacle@@@std@@@std@@V?$allocator@V?$vector@PEAVObstacle@@V?$allocator@PEAVObstacle@@@std@@@std@@@2@@std@@QEBA_KXZ 000000014003f2e7     UbisoftProject.obj
 0003:0000b2ec       $unwind$?capacity@?$vector@V?$vector@PEAVObstacle@@V?$allocator@PEAVObstacle@@@std@@@std@@V?$allocator@V?$vector@PEAVObstacle@@V?$allocator@PEAVObstacle@@@std@@@std@@@2@@std@@QEBA_KXZ 000000014003f2ec     UbisoftProject.obj
 0003:0000b306       $cppxdata$?capacity@?$vector@V?$vector@PEAVObstacle@@V?$allocator@PEAVObstacle@@@std@@@std@@V?$allocator@V?$vector@PEAVObstacle@@V?$allocator@PEAVObstacle@@@std@@@std@@@2@@std@@QEBA_KXZ 000000014003f306     UbisoftProject.obj
 0003:0000b30b       $ip2state$?capacity@?$vector@V?$vector@PEAVObstacle@@V?$allocator@PEAVObstacle@@@std@@@std@@V?$allocator@V?$vector@PEAVObstacle@@V?$allocator@PEAVObstacle@@@std@@@std@@@2@@std@@QEBA_KXZ 000000014003f30b     UbisoftProject.obj
 0003:0000b310       $unwind$??A?$vector@V?$vector@PEAVObstacle@@V?$allocator@PEAVObstacle@@@std@@@std@@V?$allocator@V?$vector@PEAVObstacle@@V?$allocator@PEAVObstacle@@@std@@@std@@@2@@std@@QEAAAEAV?$vector@PEAVObstacle@@V?$allocator@PEAVObstacle@@@std@@@1@_K@Z 000000014003f310     UbisoftProject.obj
 0003:0000b32a       $cppxdata$??A?$vector@V?$vector@PEAVObstacle@@V?$allocator@PEAVObstacle@@@std@@@std@@V?$allocator@V?$vector@PEAVObstacle@@V?$allocator@PEAVObstacle@@@std@@@std@@@2@@std@@QEAAAEAV?$vector@PEAVObstacle@@V?$allocator@PEAVObstacle@@@std@@@1@_K@Z 000000014003f32a     UbisoftProject.obj
 0003:0000b32f       $ip2state$??A?$vector@V?$vector@PEAVObstacle@@V?$allocator@PEAVObstacle@@@std@@@std@@V?$allocator@V?$vector@PEAVObstacle@@V?$allocator@PEAVObstacle@@@std@@@std@@@2@@std@@QEAAAEAV?$vector@PEAVObstacle@@V?$allocator@PEAVObstacle@@@std@@@1@_K@Z 000000014003f32f     UbisoftProject.obj
 0003:0000b334       $unwind$?_Umove@?$vector@V?$vector@PEAVObstacle@@V?$allocator@PEAVObstacle@@@std@@@std@@V?$allocator@V?$vector@PEAVObstacle@@V?$allocator@PEAVObstacle@@@std@@@std@@@2@@std@@AEAAPEAV?$vector@PEAVObstacle@@V?$allocator@PEAVObstacle@@@std@@@2@PEAV32@00@Z 000000014003f334     UbisoftProject.obj
 0003:0000b348       $unwind$?_Umove_if_noexcept1@?$vector@V?$vector@PEAVObstacle@@V?$allocator@PEAVObstacle@@@std@@@std@@V?$allocator@V?$vector@PEAVObstacle@@V?$allocator@PEAVObstacle@@@std@@@std@@@2@@std@@AEAAXPEAV?$vector@PEAVObstacle@@V?$allocator@PEAVObstacle@@@std@@@2@00U?$integral_constant@_N$00@2@@Z 000000014003f348     UbisoftProject.obj
 0003:0000b35c       $unwind$?_Umove_if_noexcept@?$vector@V?$vector@PEAVObstacle@@V?$allocator@PEAVObstacle@@@std@@@std@@V?$allocator@V?$vector@PEAVObstacle@@V?$allocator@PEAVObstacle@@@std@@@std@@@2@@std@@AEAAXPEAV?$vector@PEAVObstacle@@V?$allocator@PEAVObstacle@@@std@@@2@00@Z 000000014003f35c     UbisoftProject.obj
 0003:0000b370       $unwind$?_Destroy@?$vector@V?$vector@PEAVObstacle@@V?$allocator@PEAVObstacle@@@std@@@std@@V?$allocator@V?$vector@PEAVObstacle@@V?$allocator@PEAVObstacle@@@std@@@std@@@2@@std@@AEAAXPEAV?$vector@PEAVObstacle@@V?$allocator@PEAVObstacle@@@std@@@2@0@Z 000000014003f370     UbisoftProject.obj
 0003:0000b384       $unwind$?_Calculate_growth@?$vector@V?$vector@PEAVObstacle@@V?$allocator@PEAVObstacle@@@std@@@std@@V?$allocator@V?$vector@PEAVObstacle@@V?$allocator@PEAVObstacle@@@std@@@std@@@2@@std@@AEBA_K_K@Z 000000014003f384     UbisoftProject.obj
 0003:0000b398       $unwind$?_Change_array@?$vector@V?$vector@PEAVObstacle@@V?$allocator@PEAVObstacle@@@std@@@std@@V?$allocator@V?$vector@PEAVObstacle@@V?$allocator@PEAVObstacle@@@std@@@std@@@2@@std@@AEAAXQEAV?$vector@PEAVObstacle@@V?$allocator@PEAVObstacle@@@std@@@2@_K1@Z 000000014003f398     UbisoftProject.obj
 0003:0000b3ac       $unwind$?_Tidy@?$vector@V?$vector@PEAVObstacle@@V?$allocator@PEAVObstacle@@@std@@@std@@V?$allocator@V?$vector@PEAVObstacle@@V?$allocator@PEAVObstacle@@@std@@@std@@@2@@std@@AEAAXXZ 000000014003f3ac     UbisoftProject.obj
 0003:0000b3c6       $cppxdata$?_Tidy@?$vector@V?$vector@PEAVObstacle@@V?$allocator@PEAVObstacle@@@std@@@std@@V?$allocator@V?$vector@PEAVObstacle@@V?$allocator@PEAVObstacle@@@std@@@std@@@2@@std@@AEAAXXZ 000000014003f3c6     UbisoftProject.obj
 0003:0000b3cb       $ip2state$?_Tidy@?$vector@V?$vector@PEAVObstacle@@V?$allocator@PEAVObstacle@@@std@@@std@@V?$allocator@V?$vector@PEAVObstacle@@V?$allocator@PEAVObstacle@@@std@@@std@@@2@@std@@AEAAXXZ 000000014003f3cb     UbisoftProject.obj
 0003:0000b3d0       $unwind$?_Xlength@?$vector@V?$vector@PEAVObstacle@@V?$allocator@PEAVObstacle@@@std@@@std@@V?$allocator@V?$vector@PEAVObstacle@@V?$allocator@PEAVObstacle@@@std@@@std@@@2@@std@@CAXXZ 000000014003f3d0     UbisoftProject.obj
 0003:0000b3e4       $unwind$?_Orphan_range@?$vector@V?$vector@PEAVObstacle@@V?$allocator@PEAVObstacle@@@std@@@std@@V?$allocator@V?$vector@PEAVObstacle@@V?$allocator@PEAVObstacle@@@std@@@std@@@2@@std@@AEBAXPEAV?$vector@PEAVObstacle@@V?$allocator@PEAVObstacle@@@std@@@2@0@Z 000000014003f3e4     UbisoftProject.obj
 0003:0000b400       $unwind$?_Getal@?$vector@V?$vector@PEAVObstacle@@V?$allocator@PEAVObstacle@@@std@@@std@@V?$allocator@V?$vector@PEAVObstacle@@V?$allocator@PEAVObstacle@@@std@@@std@@@2@@std@@AEAAAEAV?$allocator@V?$vector@PEAVObstacle@@V?$allocator@PEAVObstacle@@@std@@@std@@@2@XZ 000000014003f400     UbisoftProject.obj
 0003:0000b41a       $cppxdata$?_Getal@?$vector@V?$vector@PEAVObstacle@@V?$allocator@PEAVObstacle@@@std@@@std@@V?$allocator@V?$vector@PEAVObstacle@@V?$allocator@PEAVObstacle@@@std@@@std@@@2@@std@@AEAAAEAV?$allocator@V?$vector@PEAVObstacle@@V?$allocator@PEAVObstacle@@@std@@@std@@@2@XZ 000000014003f41a     UbisoftProject.obj
 0003:0000b41f       $ip2state$?_Getal@?$vector@V?$vector@PEAVObstacle@@V?$allocator@PEAVObstacle@@@std@@@std@@V?$allocator@V?$vector@PEAVObstacle@@V?$allocator@PEAVObstacle@@@std@@@std@@@2@@std@@AEAAAEAV?$allocator@V?$vector@PEAVObstacle@@V?$allocator@PEAVObstacle@@@std@@@std@@@2@XZ 000000014003f41f     UbisoftProject.obj
 0003:0000b424       $unwind$?_Getal@?$vector@V?$vector@PEAVObstacle@@V?$allocator@PEAVObstacle@@@std@@@std@@V?$allocator@V?$vector@PEAVObstacle@@V?$allocator@PEAVObstacle@@@std@@@std@@@2@@std@@AEBAAEBV?$allocator@V?$vector@PEAVObstacle@@V?$allocator@PEAVObstacle@@@std@@@std@@@2@XZ 000000014003f424     UbisoftProject.obj
 0003:0000b43e       $cppxdata$?_Getal@?$vector@V?$vector@PEAVObstacle@@V?$allocator@PEAVObstacle@@@std@@@std@@V?$allocator@V?$vector@PEAVObstacle@@V?$allocator@PEAVObstacle@@@std@@@std@@@2@@std@@AEBAAEBV?$allocator@V?$vector@PEAVObstacle@@V?$allocator@PEAVObstacle@@@std@@@std@@@2@XZ 000000014003f43e     UbisoftProject.obj
 0003:0000b443       $ip2state$?_Getal@?$vector@V?$vector@PEAVObstacle@@V?$allocator@PEAVObstacle@@@std@@@std@@V?$allocator@V?$vector@PEAVObstacle@@V?$allocator@PEAVObstacle@@@std@@@std@@@2@@std@@AEBAAEBV?$allocator@V?$vector@PEAVObstacle@@V?$allocator@PEAVObstacle@@@std@@@std@@@2@XZ 000000014003f443     UbisoftProject.obj
 0003:0000b448       $unwind$??0?$_Vector_val@U?$_Simple_types@V?$vector@PEAVObstacle@@V?$allocator@PEAVObstacle@@@std@@@std@@@std@@@std@@QEAA@XZ 000000014003f448     UbisoftProject.obj
 0003:0000b45c       $unwind$?_Get_first@?$_Compressed_pair@V?$allocator@V?$vector@PEAVObstacle@@V?$allocator@PEAVObstacle@@@std@@@std@@@std@@V?$_Vector_val@U?$_Simple_types@V?$vector@PEAVObstacle@@V?$allocator@PEAVObstacle@@@std@@@std@@@std@@@2@$00@std@@QEAAAEAV?$allocator@V?$vector@PEAVObstacle@@V?$allocator@PEAVObstacle@@@std@@@std@@@2@XZ 000000014003f45c     UbisoftProject.obj
 0003:0000b476       $cppxdata$?_Get_first@?$_Compressed_pair@V?$allocator@V?$vector@PEAVObstacle@@V?$allocator@PEAVObstacle@@@std@@@std@@@std@@V?$_Vector_val@U?$_Simple_types@V?$vector@PEAVObstacle@@V?$allocator@PEAVObstacle@@@std@@@std@@@std@@@2@$00@std@@QEAAAEAV?$allocator@V?$vector@PEAVObstacle@@V?$allocator@PEAVObstacle@@@std@@@std@@@2@XZ 000000014003f476     UbisoftProject.obj
 0003:0000b47b       $ip2state$?_Get_first@?$_Compressed_pair@V?$allocator@V?$vector@PEAVObstacle@@V?$allocator@PEAVObstacle@@@std@@@std@@@std@@V?$_Vector_val@U?$_Simple_types@V?$vector@PEAVObstacle@@V?$allocator@PEAVObstacle@@@std@@@std@@@std@@@2@$00@std@@QEAAAEAV?$allocator@V?$vector@PEAVObstacle@@V?$allocator@PEAVObstacle@@@std@@@std@@@2@XZ 000000014003f47b     UbisoftProject.obj
 0003:0000b480       $unwind$?_Get_first@?$_Compressed_pair@V?$allocator@V?$vector@PEAVObstacle@@V?$allocator@PEAVObstacle@@@std@@@std@@@std@@V?$_Vector_val@U?$_Simple_types@V?$vector@PEAVObstacle@@V?$allocator@PEAVObstacle@@@std@@@std@@@std@@@2@$00@std@@QEBAAEBV?$allocator@V?$vector@PEAVObstacle@@V?$allocator@PEAVObstacle@@@std@@@std@@@2@XZ 000000014003f480     UbisoftProject.obj
 0003:0000b49a       $cppxdata$?_Get_first@?$_Compressed_pair@V?$allocator@V?$vector@PEAVObstacle@@V?$allocator@PEAVObstacle@@@std@@@std@@@std@@V?$_Vector_val@U?$_Simple_types@V?$vector@PEAVObstacle@@V?$allocator@PEAVObstacle@@@std@@@std@@@std@@@2@$00@std@@QEBAAEBV?$allocator@V?$vector@PEAVObstacle@@V?$allocator@PEAVObstacle@@@std@@@std@@@2@XZ 000000014003f49a     UbisoftProject.obj
 0003:0000b49f       $ip2state$?_Get_first@?$_Compressed_pair@V?$allocator@V?$vector@PEAVObstacle@@V?$allocator@PEAVObstacle@@@std@@@std@@@std@@V?$_Vector_val@U?$_Simple_types@V?$vector@PEAVObstacle@@V?$allocator@PEAVObstacle@@@std@@@std@@@std@@@2@$00@std@@QEBAAEBV?$allocator@V?$vector@PEAVObstacle@@V?$allocator@PEAVObstacle@@@std@@@std@@@2@XZ 000000014003f49f     UbisoftProject.obj
 0003:0000b4a4       $unwind$?__autoclassinit2@?$vector@V?$vector@PEAVObstacle@@V?$allocator@PEAVObstacle@@@std@@@std@@V?$allocator@V?$vector@PEAVObstacle@@V?$allocator@PEAVObstacle@@@std@@@std@@@2@@std@@QEAAX_K@Z 000000014003f4a4     UbisoftProject.obj
 0003:0000b4b8       $unwind$??__EmapVisu@@YAXXZ 000000014003f4b8     UbisoftProject.obj
 0003:0000b4cc       $unwind$??__FmapVisu@@YAXXZ 000000014003f4cc     UbisoftProject.obj
 0003:0000b4e0       $unwind$?Init@@YAXXZ       000000014003f4e0     UbisoftProject.obj
 0003:0000b4fe       $cppxdata$?Init@@YAXXZ     000000014003f4fe     UbisoftProject.obj
 0003:0000b507       $stateUnwindMap$?Init@@YAXXZ 000000014003f507     UbisoftProject.obj
 0003:0000b523       $ip2state$?Init@@YAXXZ     000000014003f523     UbisoftProject.obj
 0003:0000b540       $unwind$?dtor$0@?0??Init@@YAXXZ@4HA 000000014003f540     UbisoftProject.obj
 0003:0000b550       $unwind$?dtor$1@?0??Init@@YAXXZ@4HA 000000014003f550     UbisoftProject.obj
 0003:0000b560       $unwind$?dtor$2@?0??Init@@YAXXZ@4HA 000000014003f560     UbisoftProject.obj
 0003:0000b570       $unwind$?dtor$3@?0??Init@@YAXXZ@4HA 000000014003f570     UbisoftProject.obj
 0003:0000b580       $unwind$?dtor$4@?0??Init@@YAXXZ@4HA 000000014003f580     UbisoftProject.obj
 0003:0000b590       $unwind$??0?$allocator@PEAVObstacle@@@std@@QEAA@XZ 000000014003f590     UbisoftProject.obj
 0003:0000b5aa       $cppxdata$??0?$allocator@PEAVObstacle@@@std@@QEAA@XZ 000000014003f5aa     UbisoftProject.obj
 0003:0000b5af       $ip2state$??0?$allocator@PEAVObstacle@@@std@@QEAA@XZ 000000014003f5af     UbisoftProject.obj
 0003:0000b5b4       $unwind$?deallocate@?$allocator@PEAVObstacle@@@std@@QEAAXQEAPEAVObstacle@@_K@Z 000000014003f5b4     UbisoftProject.obj
 0003:0000b5c8       $unwind$?allocate@?$allocator@PEAVObstacle@@@std@@QEAAPEAPEAVObstacle@@_K@Z 000000014003f5c8     UbisoftProject.obj
 0003:0000b5dc       $unwind$?max_size@?$_Default_allocator_traits@V?$allocator@PEAVObstacle@@@std@@@std@@SA_KAEBV?$allocator@PEAVObstacle@@@2@@Z 000000014003f5dc     UbisoftProject.obj
 0003:0000b5f6       $cppxdata$?max_size@?$_Default_allocator_traits@V?$allocator@PEAVObstacle@@@std@@@std@@SA_KAEBV?$allocator@PEAVObstacle@@@2@@Z 000000014003f5f6     UbisoftProject.obj
 0003:0000b5fb       $ip2state$?max_size@?$_Default_allocator_traits@V?$allocator@PEAVObstacle@@@std@@@std@@SA_KAEBV?$allocator@PEAVObstacle@@@2@@Z 000000014003f5fb     UbisoftProject.obj
 0003:0000b600       $unwind$?select_on_container_copy_construction@?$_Default_allocator_traits@V?$allocator@PEAVObstacle@@@std@@@std@@SA?AV?$allocator@PEAVObstacle@@@2@AEBV32@@Z 000000014003f600     UbisoftProject.obj
 0003:0000b614       $unwind$??0?$vector@PEAVObstacle@@V?$allocator@PEAVObstacle@@@std@@@std@@QEAA@XZ 000000014003f614     UbisoftProject.obj
 0003:0000b62e       $cppxdata$??0?$vector@PEAVObstacle@@V?$allocator@PEAVObstacle@@@std@@@std@@QEAA@XZ 000000014003f62e     UbisoftProject.obj
 0003:0000b633       $ip2state$??0?$vector@PEAVObstacle@@V?$allocator@PEAVObstacle@@@std@@@std@@QEAA@XZ 000000014003f633     UbisoftProject.obj
 0003:0000b638       $unwind$??0?$vector@PEAVObstacle@@V?$allocator@PEAVObstacle@@@std@@@std@@QEAA@AEBV01@@Z 000000014003f638     UbisoftProject.obj
 0003:0000b656       $cppxdata$??0?$vector@PEAVObstacle@@V?$allocator@PEAVObstacle@@@std@@@std@@QEAA@AEBV01@@Z 000000014003f656     UbisoftProject.obj
 0003:0000b65f       $stateUnwindMap$??0?$vector@PEAVObstacle@@V?$allocator@PEAVObstacle@@@std@@@std@@QEAA@AEBV01@@Z 000000014003f65f     UbisoftProject.obj
 0003:0000b66b       $ip2state$??0?$vector@PEAVObstacle@@V?$allocator@PEAVObstacle@@@std@@@std@@QEAA@AEBV01@@Z 000000014003f66b     UbisoftProject.obj
 0003:0000b678       $unwind$?dtor$0@?0???0?$vector@PEAVObstacle@@V?$allocator@PEAVObstacle@@@std@@@std@@QEAA@AEBV01@@Z@4HA 000000014003f678     UbisoftProject.obj
 0003:0000b688       $unwind$?dtor$1@?0???0?$vector@PEAVObstacle@@V?$allocator@PEAVObstacle@@@std@@@std@@QEAA@AEBV01@@Z@4HA 000000014003f688     UbisoftProject.obj
 0003:0000b698       $unwind$?_Move_construct@?$vector@PEAVObstacle@@V?$allocator@PEAVObstacle@@@std@@@std@@AEAAXAEAV12@U?$integral_constant@_N$00@2@@Z 000000014003f698     UbisoftProject.obj
 0003:0000b6b2       $cppxdata$?_Move_construct@?$vector@PEAVObstacle@@V?$allocator@PEAVObstacle@@@std@@@std@@AEAAXAEAV12@U?$integral_constant@_N$00@2@@Z 000000014003f6b2     UbisoftProject.obj
 0003:0000b6b7       $ip2state$?_Move_construct@?$vector@PEAVObstacle@@V?$allocator@PEAVObstacle@@@std@@@std@@AEAAXAEAV12@U?$integral_constant@_N$00@2@@Z 000000014003f6b7     UbisoftProject.obj
 0003:0000b6bc       $unwind$??0?$vector@PEAVObstacle@@V?$allocator@PEAVObstacle@@@std@@@std@@QEAA@$$QEAV01@@Z 000000014003f6bc     UbisoftProject.obj
 0003:0000b6d6       $cppxdata$??0?$vector@PEAVObstacle@@V?$allocator@PEAVObstacle@@@std@@@std@@QEAA@$$QEAV01@@Z 000000014003f6d6     UbisoftProject.obj
 0003:0000b6db       $ip2state$??0?$vector@PEAVObstacle@@V?$allocator@PEAVObstacle@@@std@@@std@@QEAA@$$QEAV01@@Z 000000014003f6db     UbisoftProject.obj
 0003:0000b6e0       $unwind$??1?$vector@PEAVObstacle@@V?$allocator@PEAVObstacle@@@std@@@std@@QEAA@XZ 000000014003f6e0     UbisoftProject.obj
 0003:0000b6fe       $cppxdata$??1?$vector@PEAVObstacle@@V?$allocator@PEAVObstacle@@@std@@@std@@QEAA@XZ 000000014003f6fe     UbisoftProject.obj
 0003:0000b703       $ip2state$??1?$vector@PEAVObstacle@@V?$allocator@PEAVObstacle@@@std@@@std@@QEAA@XZ 000000014003f703     UbisoftProject.obj
 0003:0000b708       $unwind$?push_back@?$vector@PEAVObstacle@@V?$allocator@PEAVObstacle@@@std@@@std@@QEAAX$$QEAPEAVObstacle@@@Z 000000014003f708     UbisoftProject.obj
 0003:0000b71c       $unwind$?max_size@?$vector@PEAVObstacle@@V?$allocator@PEAVObstacle@@@std@@@std@@QEBA_KXZ 000000014003f71c     UbisoftProject.obj
 0003:0000b736       $cppxdata$?max_size@?$vector@PEAVObstacle@@V?$allocator@PEAVObstacle@@@std@@@std@@QEBA_KXZ 000000014003f736     UbisoftProject.obj
 0003:0000b73b       $ip2state$?max_size@?$vector@PEAVObstacle@@V?$allocator@PEAVObstacle@@@std@@@std@@QEBA_KXZ 000000014003f73b     UbisoftProject.obj
 0003:0000b740       $unwind$?capacity@?$vector@PEAVObstacle@@V?$allocator@PEAVObstacle@@@std@@@std@@QEBA_KXZ 000000014003f740     UbisoftProject.obj
 0003:0000b75a       $cppxdata$?capacity@?$vector@PEAVObstacle@@V?$allocator@PEAVObstacle@@@std@@@std@@QEBA_KXZ 000000014003f75a     UbisoftProject.obj
 0003:0000b75f       $ip2state$?capacity@?$vector@PEAVObstacle@@V?$allocator@PEAVObstacle@@@std@@@std@@QEBA_KXZ 000000014003f75f     UbisoftProject.obj
 0003:0000b764       $unwind$??A?$vector@PEAVObstacle@@V?$allocator@PEAVObstacle@@@std@@@std@@QEAAAEAPEAVObstacle@@_K@Z 000000014003f764     UbisoftProject.obj
 0003:0000b77e       $cppxdata$??A?$vector@PEAVObstacle@@V?$allocator@PEAVObstacle@@@std@@@std@@QEAAAEAPEAVObstacle@@_K@Z 000000014003f77e     UbisoftProject.obj
 0003:0000b783       $ip2state$??A?$vector@PEAVObstacle@@V?$allocator@PEAVObstacle@@@std@@@std@@QEAAAEAPEAVObstacle@@_K@Z 000000014003f783     UbisoftProject.obj
 0003:0000b788       $unwind$?_Umove@?$vector@PEAVObstacle@@V?$allocator@PEAVObstacle@@@std@@@std@@AEAAPEAPEAVObstacle@@PEAPEAV3@00@Z 000000014003f788     UbisoftProject.obj
 0003:0000b79c       $unwind$?_Umove_if_noexcept1@?$vector@PEAVObstacle@@V?$allocator@PEAVObstacle@@@std@@@std@@AEAAXPEAPEAVObstacle@@00U?$integral_constant@_N$00@2@@Z 000000014003f79c     UbisoftProject.obj
 0003:0000b7b0       $unwind$?_Umove_if_noexcept@?$vector@PEAVObstacle@@V?$allocator@PEAVObstacle@@@std@@@std@@AEAAXPEAPEAVObstacle@@00@Z 000000014003f7b0     UbisoftProject.obj
 0003:0000b7c4       $unwind$?_Destroy@?$vector@PEAVObstacle@@V?$allocator@PEAVObstacle@@@std@@@std@@AEAAXPEAPEAVObstacle@@0@Z 000000014003f7c4     UbisoftProject.obj
 0003:0000b7d8       $unwind$?_Calculate_growth@?$vector@PEAVObstacle@@V?$allocator@PEAVObstacle@@@std@@@std@@AEBA_K_K@Z 000000014003f7d8     UbisoftProject.obj
 0003:0000b7ec       $unwind$?_Buy_raw@?$vector@PEAVObstacle@@V?$allocator@PEAVObstacle@@@std@@@std@@AEAAX_K@Z 000000014003f7ec     UbisoftProject.obj
 0003:0000b800       $unwind$?_Change_array@?$vector@PEAVObstacle@@V?$allocator@PEAVObstacle@@@std@@@std@@AEAAXQEAPEAVObstacle@@_K1@Z 000000014003f800     UbisoftProject.obj
 0003:0000b814       $unwind$?_Tidy@?$vector@PEAVObstacle@@V?$allocator@PEAVObstacle@@@std@@@std@@AEAAXXZ 000000014003f814     UbisoftProject.obj
 0003:0000b82e       $cppxdata$?_Tidy@?$vector@PEAVObstacle@@V?$allocator@PEAVObstacle@@@std@@@std@@AEAAXXZ 000000014003f82e     UbisoftProject.obj
 0003:0000b833       $ip2state$?_Tidy@?$vector@PEAVObstacle@@V?$allocator@PEAVObstacle@@@std@@@std@@AEAAXXZ 000000014003f833     UbisoftProject.obj
 0003:0000b838       $unwind$?_Xlength@?$vector@PEAVObstacle@@V?$allocator@PEAVObstacle@@@std@@@std@@CAXXZ 000000014003f838     UbisoftProject.obj
 0003:0000b84c       $unwind$?_Orphan_range@?$vector@PEAVObstacle@@V?$allocator@PEAVObstacle@@@std@@@std@@AEBAXPEAPEAVObstacle@@0@Z 000000014003f84c     UbisoftProject.obj
 0003:0000b868       $unwind$?_Getal@?$vector@PEAVObstacle@@V?$allocator@PEAVObstacle@@@std@@@std@@AEAAAEAV?$allocator@PEAVObstacle@@@2@XZ 000000014003f868     UbisoftProject.obj
 0003:0000b882       $cppxdata$?_Getal@?$vector@PEAVObstacle@@V?$allocator@PEAVObstacle@@@std@@@std@@AEAAAEAV?$allocator@PEAVObstacle@@@2@XZ 000000014003f882     UbisoftProject.obj
 0003:0000b887       $ip2state$?_Getal@?$vector@PEAVObstacle@@V?$allocator@PEAVObstacle@@@std@@@std@@AEAAAEAV?$allocator@PEAVObstacle@@@2@XZ 000000014003f887     UbisoftProject.obj
 0003:0000b88c       $unwind$?_Getal@?$vector@PEAVObstacle@@V?$allocator@PEAVObstacle@@@std@@@std@@AEBAAEBV?$allocator@PEAVObstacle@@@2@XZ 000000014003f88c     UbisoftProject.obj
 0003:0000b8a6       $cppxdata$?_Getal@?$vector@PEAVObstacle@@V?$allocator@PEAVObstacle@@@std@@@std@@AEBAAEBV?$allocator@PEAVObstacle@@@2@XZ 000000014003f8a6     UbisoftProject.obj
 0003:0000b8ab       $ip2state$?_Getal@?$vector@PEAVObstacle@@V?$allocator@PEAVObstacle@@@std@@@std@@AEBAAEBV?$allocator@PEAVObstacle@@@2@XZ 000000014003f8ab     UbisoftProject.obj
 0003:0000b8b0       $unwind$??0?$_Vector_val@U?$_Simple_types@PEAVObstacle@@@std@@@std@@QEAA@XZ 000000014003f8b0     UbisoftProject.obj
 0003:0000b8c4       $unwind$?_Take_contents@?$_Vector_val@U?$_Simple_types@PEAVObstacle@@@std@@@std@@QEAAXAEAV12@@Z 000000014003f8c4     UbisoftProject.obj
 0003:0000b8de       $cppxdata$?_Take_contents@?$_Vector_val@U?$_Simple_types@PEAVObstacle@@@std@@@std@@QEAAXAEAV12@@Z 000000014003f8de     UbisoftProject.obj
 0003:0000b8e3       $ip2state$?_Take_contents@?$_Vector_val@U?$_Simple_types@PEAVObstacle@@@std@@@std@@QEAAXAEAV12@@Z 000000014003f8e3     UbisoftProject.obj
 0003:0000b8e8       $unwind$?_Get_first@?$_Compressed_pair@V?$allocator@PEAVObstacle@@@std@@V?$_Vector_val@U?$_Simple_types@PEAVObstacle@@@std@@@2@$00@std@@QEAAAEAV?$allocator@PEAVObstacle@@@2@XZ 000000014003f8e8     UbisoftProject.obj
 0003:0000b902       $cppxdata$?_Get_first@?$_Compressed_pair@V?$allocator@PEAVObstacle@@@std@@V?$_Vector_val@U?$_Simple_types@PEAVObstacle@@@std@@@2@$00@std@@QEAAAEAV?$allocator@PEAVObstacle@@@2@XZ 000000014003f902     UbisoftProject.obj
 0003:0000b907       $ip2state$?_Get_first@?$_Compressed_pair@V?$allocator@PEAVObstacle@@@std@@V?$_Vector_val@U?$_Simple_types@PEAVObstacle@@@std@@@2@$00@std@@QEAAAEAV?$allocator@PEAVObstacle@@@2@XZ 000000014003f907     UbisoftProject.obj
 0003:0000b90c       $unwind$?_Get_first@?$_Compressed_pair@V?$allocator@PEAVObstacle@@@std@@V?$_Vector_val@U?$_Simple_types@PEAVObstacle@@@std@@@2@$00@std@@QEBAAEBV?$allocator@PEAVObstacle@@@2@XZ 000000014003f90c     UbisoftProject.obj
 0003:0000b926       $cppxdata$?_Get_first@?$_Compressed_pair@V?$allocator@PEAVObstacle@@@std@@V?$_Vector_val@U?$_Simple_types@PEAVObstacle@@@std@@@2@$00@std@@QEBAAEBV?$allocator@PEAVObstacle@@@2@XZ 000000014003f926     UbisoftProject.obj
 0003:0000b92b       $ip2state$?_Get_first@?$_Compressed_pair@V?$allocator@PEAVObstacle@@@std@@V?$_Vector_val@U?$_Simple_types@PEAVObstacle@@@std@@@2@$00@std@@QEBAAEBV?$allocator@PEAVObstacle@@@2@XZ 000000014003f92b     UbisoftProject.obj
 0003:0000b930       $unwind$?__autoclassinit2@?$vector@PEAVObstacle@@V?$allocator@PEAVObstacle@@@std@@@std@@QEAAX_K@Z 000000014003f930     UbisoftProject.obj
 0003:0000b944       $unwind$??_G?$vector@PEAVObstacle@@V?$allocator@PEAVObstacle@@@std@@@std@@QEAAPEAXI@Z 000000014003f944     UbisoftProject.obj
 0003:0000b958       $unwind$?Update@@YAXM@Z    000000014003f958     UbisoftProject.obj
 0003:0000b96c       $unwind$?Render@@YAXXZ     000000014003f96c     UbisoftProject.obj
 0003:0000b980       $unwind$?Shutdown@@YAXXZ   000000014003f980     UbisoftProject.obj
 0003:0000b994       $unwind$??$move@AEAPEAVObstacle@@@std@@YA$$QEAPEAVObstacle@@AEAPEAV1@@Z 000000014003f994     UbisoftProject.obj
 0003:0000b9ae       $cppxdata$??$move@AEAPEAVObstacle@@@std@@YA$$QEAPEAVObstacle@@AEAPEAV1@@Z 000000014003f9ae     UbisoftProject.obj
 0003:0000b9b3       $ip2state$??$move@AEAPEAVObstacle@@@std@@YA$$QEAPEAVObstacle@@AEAPEAV1@@Z 000000014003f9b3     UbisoftProject.obj
 0003:0000b9b8       $unwind$??$emplace_back@PEAVObstacle@@@?$vector@PEAVObstacle@@V?$allocator@PEAVObstacle@@@std@@@std@@QEAA@$$QEAPEAVObstacle@@@Z 000000014003f9b8     UbisoftProject.obj
 0003:0000b9cc       $unwind$??$forward@PEAVObstacle@@@std@@YA$$QEAPEAVObstacle@@AEAPEAV1@@Z 000000014003f9cc     UbisoftProject.obj
 0003:0000b9e6       $cppxdata$??$forward@PEAVObstacle@@@std@@YA$$QEAPEAVObstacle@@AEAPEAV1@@Z 000000014003f9e6     UbisoftProject.obj
 0003:0000b9eb       $ip2state$??$forward@PEAVObstacle@@@std@@YA$$QEAPEAVObstacle@@AEAPEAV1@@Z 000000014003f9eb     UbisoftProject.obj
 0003:0000b9f0       $unwind$??$_Emplace_back_with_unused_capacity@PEAVObstacle@@@?$vector@PEAVObstacle@@V?$allocator@PEAVObstacle@@@std@@@std@@AEAA@$$QEAPEAVObstacle@@@Z 000000014003f9f0     UbisoftProject.obj
 0003:0000ba04       $unwind$??$_Unfancy@PEAVObstacle@@@std@@YAPEAPEAVObstacle@@PEAPEAV1@@Z 000000014003fa04     UbisoftProject.obj
 0003:0000ba18       $unwind$??$construct@PEAVObstacle@@PEAV1@@?$_Default_allocator_traits@V?$allocator@PEAVObstacle@@@std@@@std@@SAXAEAV?$allocator@PEAVObstacle@@@1@QEAPEAVObstacle@@$$QEAPEAV3@@Z 000000014003fa18     UbisoftProject.obj
 0003:0000ba2c       $unwind$??$_Emplace_reallocate@PEAVObstacle@@@?$vector@PEAVObstacle@@V?$allocator@PEAVObstacle@@@std@@@std@@QEAAPEAPEAVObstacle@@QEAPEAV2@$$QEAPEAV2@@Z 000000014003fa2c     UbisoftProject.obj
 0003:0000ba46       $cppxdata$??$_Emplace_reallocate@PEAVObstacle@@@?$vector@PEAVObstacle@@V?$allocator@PEAVObstacle@@@std@@@std@@QEAAPEAPEAVObstacle@@QEAPEAV2@$$QEAPEAV2@@Z 000000014003fa46     UbisoftProject.obj
 0003:0000ba54       $stateUnwindMap$??$_Emplace_reallocate@PEAVObstacle@@@?$vector@PEAVObstacle@@V?$allocator@PEAVObstacle@@@std@@@std@@QEAAPEAPEAVObstacle@@QEAPEAV2@$$QEAPEAV2@@Z 000000014003fa54     UbisoftProject.obj
 0003:0000ba57       $tryMap$??$_Emplace_reallocate@PEAVObstacle@@@?$vector@PEAVObstacle@@V?$allocator@PEAVObstacle@@@std@@@std@@QEAAPEAPEAVObstacle@@QEAPEAV2@$$QEAPEAV2@@Z 000000014003fa57     UbisoftProject.obj
 0003:0000ba5f       $handlerMap$??$_Emplace_reallocate@PEAVObstacle@@@?$vector@PEAVObstacle@@V?$allocator@PEAVObstacle@@@std@@@std@@QEAAPEAPEAVObstacle@@QEAPEAV2@$$QEAPEAV2@@Z 000000014003fa5f     UbisoftProject.obj
 0003:0000ba66       $ip2state$??$_Emplace_reallocate@PEAVObstacle@@@?$vector@PEAVObstacle@@V?$allocator@PEAVObstacle@@@std@@@std@@QEAAPEAPEAVObstacle@@QEAPEAV2@$$QEAPEAV2@@Z 000000014003fa66     UbisoftProject.obj
 0003:0000ba70       $unwind$?catch$0@?0???$_Emplace_reallocate@PEAVObstacle@@@?$vector@PEAVObstacle@@V?$allocator@PEAVObstacle@@@std@@@std@@QEAAPEAPEAVObstacle@@QEAPEAV2@$$QEAPEAV2@@Z@4HA 000000014003fa70     UbisoftProject.obj
 0003:0000ba80       $unwind$?allocate@?$allocator@U_Container_proxy@std@@@std@@QEAAPEAU_Container_proxy@2@_K@Z 000000014003fa80     UbisoftProject.obj
 0003:0000ba94       $unwind$??$?0PEAVObstacle@@@?$allocator@U_Container_proxy@std@@@std@@QEAA@AEBV?$allocator@PEAVObstacle@@@1@@Z 000000014003fa94     UbisoftProject.obj
 0003:0000baae       $cppxdata$??$?0PEAVObstacle@@@?$allocator@U_Container_proxy@std@@@std@@QEAA@AEBV?$allocator@PEAVObstacle@@@1@@Z 000000014003faae     UbisoftProject.obj
 0003:0000bab3       $ip2state$??$?0PEAVObstacle@@@?$allocator@U_Container_proxy@std@@@std@@QEAA@AEBV?$allocator@PEAVObstacle@@@1@@Z 000000014003fab3     UbisoftProject.obj
 0003:0000bab8       $unwind$??$exchange@PEAU_Container_proxy@std@@$$T@std@@YAPEAU_Container_proxy@0@AEAPEAU10@$$QEA$$T@Z 000000014003fab8     UbisoftProject.obj
 0003:0000bacc       $unwind$??$_Delete_plain_internal@V?$allocator@U_Container_proxy@std@@@std@@@std@@YAXAEAV?$allocator@U_Container_proxy@std@@@0@QEAU_Container_proxy@0@@Z 000000014003facc     UbisoftProject.obj
 0003:0000bae6       $cppxdata$??$_Delete_plain_internal@V?$allocator@U_Container_proxy@std@@@std@@@std@@YAXAEAV?$allocator@U_Container_proxy@std@@@0@QEAU_Container_proxy@0@@Z 000000014003fae6     UbisoftProject.obj
 0003:0000baeb       $ip2state$??$_Delete_plain_internal@V?$allocator@U_Container_proxy@std@@@std@@@std@@YAXAEAV?$allocator@U_Container_proxy@std@@@0@QEAU_Container_proxy@0@@Z 000000014003faeb     UbisoftProject.obj
 0003:0000baf0       $unwind$??$?0$$V@?$_Compressed_pair@V?$allocator@PEAVObstacle@@@std@@V?$_Vector_val@U?$_Simple_types@PEAVObstacle@@@std@@@2@$00@std@@QEAA@U_Zero_then_variadic_args_t@1@@Z 000000014003faf0     UbisoftProject.obj
 0003:0000bb04       $unwind$??$_Alloc_proxy@V?$allocator@U_Container_proxy@std@@@std@@@_Container_base12@std@@QEAAX$$QEAV?$allocator@U_Container_proxy@std@@@1@@Z 000000014003fb04     UbisoftProject.obj
 0003:0000bb18       $unwind$??$emplace_back@AEBV?$vector@PEAVObstacle@@V?$allocator@PEAVObstacle@@@std@@@std@@@?$vector@V?$vector@PEAVObstacle@@V?$allocator@PEAVObstacle@@@std@@@std@@V?$allocator@V?$vector@PEAVObstacle@@V?$allocator@PEAVObstacle@@@std@@@std@@@2@@std@@QEAA@AEBV?$vector@PEAVObstacle@@V?$allocator@PEAVObstacle@@@std@@@1@@Z 000000014003fb18     UbisoftProject.obj
 0003:0000bb2c       $unwind$??$forward@AEBV?$vector@PEAVObstacle@@V?$allocator@PEAVObstacle@@@std@@@std@@@std@@YAAEBV?$vector@PEAVObstacle@@V?$allocator@PEAVObstacle@@@std@@@0@AEBV10@@Z 000000014003fb2c     UbisoftProject.obj
 0003:0000bb46       $cppxdata$??$forward@AEBV?$vector@PEAVObstacle@@V?$allocator@PEAVObstacle@@@std@@@std@@@std@@YAAEBV?$vector@PEAVObstacle@@V?$allocator@PEAVObstacle@@@std@@@0@AEBV10@@Z 000000014003fb46     UbisoftProject.obj
 0003:0000bb4b       $ip2state$??$forward@AEBV?$vector@PEAVObstacle@@V?$allocator@PEAVObstacle@@@std@@@std@@@std@@YAAEBV?$vector@PEAVObstacle@@V?$allocator@PEAVObstacle@@@std@@@0@AEBV10@@Z 000000014003fb4b     UbisoftProject.obj
 0003:0000bb50       $unwind$??$_Emplace_back_with_unused_capacity@AEBV?$vector@PEAVObstacle@@V?$allocator@PEAVObstacle@@@std@@@std@@@?$vector@V?$vector@PEAVObstacle@@V?$allocator@PEAVObstacle@@@std@@@std@@V?$allocator@V?$vector@PEAVObstacle@@V?$allocator@PEAVObstacle@@@std@@@std@@@2@@std@@AEAA@AEBV?$vector@PEAVObstacle@@V?$allocator@PEAVObstacle@@@std@@@1@@Z 000000014003fb50     UbisoftProject.obj
 0003:0000bb64       $unwind$??$_Unfancy@V?$vector@PEAVObstacle@@V?$allocator@PEAVObstacle@@@std@@@std@@@std@@YAPEAV?$vector@PEAVObstacle@@V?$allocator@PEAVObstacle@@@std@@@0@PEAV10@@Z 000000014003fb64     UbisoftProject.obj
 0003:0000bb78       $unwind$??$construct@V?$vector@PEAVObstacle@@V?$allocator@PEAVObstacle@@@std@@@std@@AEBV12@@?$_Default_allocator_traits@V?$allocator@V?$vector@PEAVObstacle@@V?$allocator@PEAVObstacle@@@std@@@std@@@std@@@std@@SAXAEAV?$allocator@V?$vector@PEAVObstacle@@V?$allocator@PEAVObstacle@@@std@@@std@@@1@QEAV?$vector@PEAVObstacle@@V?$allocator@PEAVObstacle@@@std@@@1@AEBV31@@Z 000000014003fb78     UbisoftProject.obj
 0003:0000bb8c       $unwind$??$_Emplace_reallocate@AEBV?$vector@PEAVObstacle@@V?$allocator@PEAVObstacle@@@std@@@std@@@?$vector@V?$vector@PEAVObstacle@@V?$allocator@PEAVObstacle@@@std@@@std@@V?$allocator@V?$vector@PEAVObstacle@@V?$allocator@PEAVObstacle@@@std@@@std@@@2@@std@@QEAAPEAV?$vector@PEAVObstacle@@V?$allocator@PEAVObstacle@@@std@@@1@QEAV21@AEBV21@@Z 000000014003fb8c     UbisoftProject.obj
 0003:0000bba6       $cppxdata$??$_Emplace_reallocate@AEBV?$vector@PEAVObstacle@@V?$allocator@PEAVObstacle@@@std@@@std@@@?$vector@V?$vector@PEAVObstacle@@V?$allocator@PEAVObstacle@@@std@@@std@@V?$allocator@V?$vector@PEAVObstacle@@V?$allocator@PEAVObstacle@@@std@@@std@@@2@@std@@QEAAPEAV?$vector@PEAVObstacle@@V?$allocator@PEAVObstacle@@@std@@@1@QEAV21@AEBV21@@Z 000000014003fba6     UbisoftProject.obj
 0003:0000bbb4       $stateUnwindMap$??$_Emplace_reallocate@AEBV?$vector@PEAVObstacle@@V?$allocator@PEAVObstacle@@@std@@@std@@@?$vector@V?$vector@PEAVObstacle@@V?$allocator@PEAVObstacle@@@std@@@std@@V?$allocator@V?$vector@PEAVObstacle@@V?$allocator@PEAVObstacle@@@std@@@std@@@2@@std@@QEAAPEAV?$vector@PEAVObstacle@@V?$allocator@PEAVObstacle@@@std@@@1@QEAV21@AEBV21@@Z 000000014003fbb4     UbisoftProject.obj
 0003:0000bbb7       $tryMap$??$_Emplace_reallocate@AEBV?$vector@PEAVObstacle@@V?$allocator@PEAVObstacle@@@std@@@std@@@?$vector@V?$vector@PEAVObstacle@@V?$allocator@PEAVObstacle@@@std@@@std@@V?$allocator@V?$vector@PEAVObstacle@@V?$allocator@PEAVObstacle@@@std@@@std@@@2@@std@@QEAAPEAV?$vector@PEAVObstacle@@V?$allocator@PEAVObstacle@@@std@@@1@QEAV21@AEBV21@@Z 000000014003fbb7     UbisoftProject.obj
 0003:0000bbbf       $handlerMap$??$_Emplace_reallocate@AEBV?$vector@PEAVObstacle@@V?$allocator@PEAVObstacle@@@std@@@std@@@?$vector@V?$vector@PEAVObstacle@@V?$allocator@PEAVObstacle@@@std@@@std@@V?$allocator@V?$vector@PEAVObstacle@@V?$allocator@PEAVObstacle@@@std@@@std@@@2@@std@@QEAAPEAV?$vector@PEAVObstacle@@V?$allocator@PEAVObstacle@@@std@@@1@QEAV21@AEBV21@@Z 000000014003fbbf     UbisoftProject.obj
 0003:0000bbc6       $ip2state$??$_Emplace_reallocate@AEBV?$vector@PEAVObstacle@@V?$allocator@PEAVObstacle@@@std@@@std@@@?$vector@V?$vector@PEAVObstacle@@V?$allocator@PEAVObstacle@@@std@@@std@@V?$allocator@V?$vector@PEAVObstacle@@V?$allocator@PEAVObstacle@@@std@@@std@@@2@@std@@QEAAPEAV?$vector@PEAVObstacle@@V?$allocator@PEAVObstacle@@@std@@@1@QEAV21@AEBV21@@Z 000000014003fbc6     UbisoftProject.obj
 0003:0000bbd0       $unwind$?catch$0@?0???$_Emplace_reallocate@AEBV?$vector@PEAVObstacle@@V?$allocator@PEAVObstacle@@@std@@@std@@@?$vector@V?$vector@PEAVObstacle@@V?$allocator@PEAVObstacle@@@std@@@std@@V?$allocator@V?$vector@PEAVObstacle@@V?$allocator@PEAVObstacle@@@std@@@std@@@2@@std@@QEAAPEAV?$vector@PEAVObstacle@@V?$allocator@PEAVObstacle@@@std@@@1@QEAV21@AEBV21@@Z@4HA 000000014003fbd0     UbisoftProject.obj
 0003:0000bbe0       $unwind$??$?0V?$vector@PEAVObstacle@@V?$allocator@PEAVObstacle@@@std@@@std@@@?$allocator@U_Container_proxy@std@@@std@@QEAA@AEBV?$allocator@V?$vector@PEAVObstacle@@V?$allocator@PEAVObstacle@@@std@@@std@@@1@@Z 000000014003fbe0     UbisoftProject.obj
 0003:0000bbfa       $cppxdata$??$?0V?$vector@PEAVObstacle@@V?$allocator@PEAVObstacle@@@std@@@std@@@?$allocator@U_Container_proxy@std@@@std@@QEAA@AEBV?$allocator@V?$vector@PEAVObstacle@@V?$allocator@PEAVObstacle@@@std@@@std@@@1@@Z 000000014003fbfa     UbisoftProject.obj
 0003:0000bbff       $ip2state$??$?0V?$vector@PEAVObstacle@@V?$allocator@PEAVObstacle@@@std@@@std@@@?$allocator@U_Container_proxy@std@@@std@@QEAA@AEBV?$allocator@V?$vector@PEAVObstacle@@V?$allocator@PEAVObstacle@@@std@@@std@@@1@@Z 000000014003fbff     UbisoftProject.obj
 0003:0000bc04       $unwind$??$?0$$V@?$_Compressed_pair@V?$allocator@V?$vector@PEAVObstacle@@V?$allocator@PEAVObstacle@@@std@@@std@@@std@@V?$_Vector_val@U?$_Simple_types@V?$vector@PEAVObstacle@@V?$allocator@PEAVObstacle@@@std@@@std@@@std@@@2@$00@std@@QEAA@U_Zero_then_variadic_args_t@1@@Z 000000014003fc04     UbisoftProject.obj
 0003:0000bc18       $unwind$??0?$_Container_proxy_ptr12@V?$allocator@U_Container_proxy@std@@@std@@@std@@QEAA@AEAV?$allocator@U_Container_proxy@std@@@1@AEAU_Container_base12@1@@Z 000000014003fc18     UbisoftProject.obj
 0003:0000bc2c       $unwind$??1?$_Container_proxy_ptr12@V?$allocator@U_Container_proxy@std@@@std@@@std@@QEAA@XZ 000000014003fc2c     UbisoftProject.obj
 0003:0000bc46       $cppxdata$??1?$_Container_proxy_ptr12@V?$allocator@U_Container_proxy@std@@@std@@@std@@QEAA@XZ 000000014003fc46     UbisoftProject.obj
 0003:0000bc4b       $ip2state$??1?$_Container_proxy_ptr12@V?$allocator@U_Container_proxy@std@@@std@@@std@@QEAA@XZ 000000014003fc4b     UbisoftProject.obj
 0003:0000bc50       $unwind$??$_Unfancy@U_Container_proxy@std@@@std@@YAPEAU_Container_proxy@0@PEAU10@@Z 000000014003fc50     UbisoftProject.obj
 0003:0000bc64       $unwind$??$_Allocate@$0BA@U_Default_allocate_traits@std@@$0A@@std@@YAPEAX_K@Z 000000014003fc64     UbisoftProject.obj
 0003:0000bc78       $unwind$??$_Deallocate@$0BA@$0A@@std@@YAXPEAX_K@Z 000000014003fc78     UbisoftProject.obj
 0003:0000bc92       $cppxdata$??$_Deallocate@$0BA@$0A@@std@@YAXPEAX_K@Z 000000014003fc92     UbisoftProject.obj
 0003:0000bc97       $ip2state$??$_Deallocate@$0BA@$0A@@std@@YAXPEAX_K@Z 000000014003fc97     UbisoftProject.obj
 0003:0000bc9c       $unwind$??$_Get_size_of_n@$0BA@@std@@YA_K_K@Z 000000014003fc9c     UbisoftProject.obj
 0003:0000bcb0       $unwind$??$_Destroy_range@V?$allocator@PEAVObstacle@@@std@@@std@@YAXPEAPEAVObstacle@@QEAPEAV1@AEAV?$allocator@PEAVObstacle@@@0@@Z 000000014003fcb0     UbisoftProject.obj
 0003:0000bcca       $cppxdata$??$_Destroy_range@V?$allocator@PEAVObstacle@@@std@@@std@@YAXPEAPEAVObstacle@@QEAPEAV1@AEAV?$allocator@PEAVObstacle@@@0@@Z 000000014003fcca     UbisoftProject.obj
 0003:0000bccf       $ip2state$??$_Destroy_range@V?$allocator@PEAVObstacle@@@std@@@std@@YAXPEAPEAVObstacle@@QEAPEAV1@AEAV?$allocator@PEAVObstacle@@@0@@Z 000000014003fccf     UbisoftProject.obj
 0003:0000bcd4       $unwind$??$_Destroy_range@V?$allocator@V?$vector@PEAVObstacle@@V?$allocator@PEAVObstacle@@@std@@@std@@@std@@@std@@YAXPEAV?$vector@PEAVObstacle@@V?$allocator@PEAVObstacle@@@std@@@0@QEAV10@AEAV?$allocator@V?$vector@PEAVObstacle@@V?$allocator@PEAVObstacle@@@std@@@std@@@0@@Z 000000014003fcd4     UbisoftProject.obj
 0003:0000bcee       $cppxdata$??$_Destroy_range@V?$allocator@V?$vector@PEAVObstacle@@V?$allocator@PEAVObstacle@@@std@@@std@@@std@@@std@@YAXPEAV?$vector@PEAVObstacle@@V?$allocator@PEAVObstacle@@@std@@@0@QEAV10@AEAV?$allocator@V?$vector@PEAVObstacle@@V?$allocator@PEAVObstacle@@@std@@@std@@@0@@Z 000000014003fcee     UbisoftProject.obj
 0003:0000bcf3       $ip2state$??$_Destroy_range@V?$allocator@V?$vector@PEAVObstacle@@V?$allocator@PEAVObstacle@@@std@@@std@@@std@@@std@@YAXPEAV?$vector@PEAVObstacle@@V?$allocator@PEAVObstacle@@@std@@@0@QEAV10@AEAV?$allocator@V?$vector@PEAVObstacle@@V?$allocator@PEAVObstacle@@@std@@@std@@@0@@Z 000000014003fcf3     UbisoftProject.obj
 0003:0000bcf8       $unwind$??$addressof@U_Container_proxy@std@@@std@@YAPEAU_Container_proxy@0@AEAU10@@Z 000000014003fcf8     UbisoftProject.obj
 0003:0000bd12       $cppxdata$??$addressof@U_Container_proxy@std@@@std@@YAPEAU_Container_proxy@0@AEAU10@@Z 000000014003fd12     UbisoftProject.obj
 0003:0000bd17       $ip2state$??$addressof@U_Container_proxy@std@@@std@@YAPEAU_Container_proxy@0@AEAU10@@Z 000000014003fd17     UbisoftProject.obj
 0003:0000bd1c       $unwind$??$forward@PEAU_Container_base12@std@@@std@@YA$$QEAPEAU_Container_base12@0@AEAPEAU10@@Z 000000014003fd1c     UbisoftProject.obj
 0003:0000bd36       $cppxdata$??$forward@PEAU_Container_base12@std@@@std@@YA$$QEAPEAU_Container_base12@0@AEAPEAU10@@Z 000000014003fd36     UbisoftProject.obj
 0003:0000bd3b       $ip2state$??$forward@PEAU_Container_base12@std@@@std@@YA$$QEAPEAU_Container_base12@0@AEAPEAU10@@Z 000000014003fd3b     UbisoftProject.obj
 0003:0000bd40       $unwind$??$_Deallocate_plain@V?$allocator@U_Container_proxy@std@@@std@@@std@@YAXAEAV?$allocator@U_Container_proxy@std@@@0@QEAU_Container_proxy@0@@Z 000000014003fd40     UbisoftProject.obj
 0003:0000bd5a       $cppxdata$??$_Deallocate_plain@V?$allocator@U_Container_proxy@std@@@std@@@std@@YAXAEAV?$allocator@U_Container_proxy@std@@@0@QEAU_Container_proxy@0@@Z 000000014003fd5a     UbisoftProject.obj
 0003:0000bd5f       $ip2state$??$_Deallocate_plain@V?$allocator@U_Container_proxy@std@@@std@@@std@@YAXAEAV?$allocator@U_Container_proxy@std@@@0@QEAU_Container_proxy@0@@Z 000000014003fd5f     UbisoftProject.obj
 0003:0000bd64       $unwind$??$_Allocate_manually_vector_aligned@U_Default_allocate_traits@std@@@std@@YAPEAX_K@Z 000000014003fd64     UbisoftProject.obj
 0003:0000bd78       $unwind$??$destroy@V?$vector@PEAVObstacle@@V?$allocator@PEAVObstacle@@@std@@@std@@@?$_Default_allocator_traits@V?$allocator@V?$vector@PEAVObstacle@@V?$allocator@PEAVObstacle@@@std@@@std@@@std@@@std@@SAXAEAV?$allocator@V?$vector@PEAVObstacle@@V?$allocator@PEAVObstacle@@@std@@@std@@@1@QEAV?$vector@PEAVObstacle@@V?$allocator@PEAVObstacle@@@std@@@1@@Z 000000014003fd78     UbisoftProject.obj
 0003:0000bd8c       $unwind$??$_Uninitialized_move@PEAPEAVObstacle@@V?$allocator@PEAVObstacle@@@std@@@std@@YAPEAPEAVObstacle@@QEAPEAV1@0PEAPEAV1@AEAV?$allocator@PEAVObstacle@@@0@@Z 000000014003fd8c     UbisoftProject.obj
 0003:0000bda0       $unwind$??$?0V?$allocator@PEAVObstacle@@@std@@$$V@?$_Compressed_pair@V?$allocator@PEAVObstacle@@@std@@V?$_Vector_val@U?$_Simple_types@PEAVObstacle@@@std@@@2@$00@std@@QEAA@U_One_then_variadic_args_t@1@$$QEAV?$allocator@PEAVObstacle@@@1@@Z 000000014003fda0     UbisoftProject.obj
 0003:0000bdb4       $unwind$??1?$_Tidy_guard@V?$vector@PEAVObstacle@@V?$allocator@PEAVObstacle@@@std@@@std@@@std@@QEAA@XZ 000000014003fdb4     UbisoftProject.obj
 0003:0000bdce       $cppxdata$??1?$_Tidy_guard@V?$vector@PEAVObstacle@@V?$allocator@PEAVObstacle@@@std@@@std@@@std@@QEAA@XZ 000000014003fdce     UbisoftProject.obj
 0003:0000bdd3       $ip2state$??1?$_Tidy_guard@V?$vector@PEAVObstacle@@V?$allocator@PEAVObstacle@@@std@@@std@@@std@@QEAA@XZ 000000014003fdd3     UbisoftProject.obj
 0003:0000bdd8       $unwind$??$_Ucopy@PEAPEAVObstacle@@@?$vector@PEAVObstacle@@V?$allocator@PEAVObstacle@@@std@@@std@@AEAAPEAPEAVObstacle@@PEAPEAV2@00@Z 000000014003fdd8     UbisoftProject.obj
 0003:0000bdec       $unwind$??$_Get_size_of_n@$07@std@@YA_K_K@Z 000000014003fdec     UbisoftProject.obj
 0003:0000be00       $unwind$??$_Uninitialized_move@PEAV?$vector@PEAVObstacle@@V?$allocator@PEAVObstacle@@@std@@@std@@V?$allocator@V?$vector@PEAVObstacle@@V?$allocator@PEAVObstacle@@@std@@@std@@@2@@std@@YAPEAV?$vector@PEAVObstacle@@V?$allocator@PEAVObstacle@@@std@@@0@QEAV10@0PEAV10@AEAV?$allocator@V?$vector@PEAVObstacle@@V?$allocator@PEAVObstacle@@@std@@@std@@@0@@Z 000000014003fe00     UbisoftProject.obj
 0003:0000be1e       $cppxdata$??$_Uninitialized_move@PEAV?$vector@PEAVObstacle@@V?$allocator@PEAVObstacle@@@std@@@std@@V?$allocator@V?$vector@PEAVObstacle@@V?$allocator@PEAVObstacle@@@std@@@std@@@2@@std@@YAPEAV?$vector@PEAVObstacle@@V?$allocator@PEAVObstacle@@@std@@@0@QEAV10@0PEAV10@AEAV?$allocator@V?$vector@PEAVObstacle@@V?$allocator@PEAVObstacle@@@std@@@std@@@0@@Z 000000014003fe1e     UbisoftProject.obj
 0003:0000be27       $stateUnwindMap$??$_Uninitialized_move@PEAV?$vector@PEAVObstacle@@V?$allocator@PEAVObstacle@@@std@@@std@@V?$allocator@V?$vector@PEAVObstacle@@V?$allocator@PEAVObstacle@@@std@@@std@@@2@@std@@YAPEAV?$vector@PEAVObstacle@@V?$allocator@PEAVObstacle@@@std@@@0@QEAV10@0PEAV10@AEAV?$allocator@V?$vector@PEAVObstacle@@V?$allocator@PEAVObstacle@@@std@@@std@@@0@@Z 000000014003fe27     UbisoftProject.obj
 0003:0000be2d       $ip2state$??$_Uninitialized_move@PEAV?$vector@PEAVObstacle@@V?$allocator@PEAVObstacle@@@std@@@std@@V?$allocator@V?$vector@PEAVObstacle@@V?$allocator@PEAVObstacle@@@std@@@std@@@2@@std@@YAPEAV?$vector@PEAVObstacle@@V?$allocator@PEAVObstacle@@@std@@@0@QEAV10@0PEAV10@AEAV?$allocator@V?$vector@PEAVObstacle@@V?$allocator@PEAVObstacle@@@std@@@std@@@0@@Z 000000014003fe2d     UbisoftProject.obj
 0003:0000be38       $unwind$?dtor$0@?0???$_Uninitialized_move@PEAV?$vector@PEAVObstacle@@V?$allocator@PEAVObstacle@@@std@@@std@@V?$allocator@V?$vector@PEAVObstacle@@V?$allocator@PEAVObstacle@@@std@@@std@@@2@@std@@YAPEAV?$vector@PEAVObstacle@@V?$allocator@PEAVObstacle@@@std@@@0@QEAV10@0PEAV10@AEAV?$allocator@V?$vector@PEAVObstacle@@V?$allocator@PEAVObstacle@@@std@@@std@@@0@@Z@4HA 000000014003fe38     UbisoftProject.obj
 0003:0000be48       $unwind$??$_Get_size_of_n@$0CA@@std@@YA_K_K@Z 000000014003fe48     UbisoftProject.obj
 0003:0000be5c       $unwind$?deallocate@?$_Default_allocator_traits@V?$allocator@U_Container_proxy@std@@@std@@@std@@SAXAEAV?$allocator@U_Container_proxy@std@@@2@QEAU_Container_proxy@2@_K@Z 000000014003fe5c     UbisoftProject.obj
 0003:0000be70       $unwind$??$_Get_unwrapped@PEAVObstacle@@@std@@YAPEAPEAVObstacle@@QEAPEAV1@@Z 000000014003fe70     UbisoftProject.obj
 0003:0000be84       $unwind$??$_Copy_memmove@PEAPEAVObstacle@@PEAPEAV1@@std@@YAPEAPEAVObstacle@@PEAPEAV1@00@Z 000000014003fe84     UbisoftProject.obj
 0003:0000be98       $unwind$??$forward@V?$allocator@PEAVObstacle@@@std@@@std@@YA$$QEAV?$allocator@PEAVObstacle@@@0@AEAV10@@Z 000000014003fe98     UbisoftProject.obj
 0003:0000beb2       $cppxdata$??$forward@V?$allocator@PEAVObstacle@@@std@@@std@@YA$$QEAV?$allocator@PEAVObstacle@@@0@AEAV10@@Z 000000014003feb2     UbisoftProject.obj
 0003:0000beb7       $ip2state$??$forward@V?$allocator@PEAVObstacle@@@std@@@std@@YA$$QEAV?$allocator@PEAVObstacle@@@0@AEAV10@@Z 000000014003feb7     UbisoftProject.obj
 0003:0000bebc       $unwind$??$_Uninitialized_copy@PEAPEAVObstacle@@V?$allocator@PEAVObstacle@@@std@@@std@@YAPEAPEAVObstacle@@QEAPEAV1@0PEAPEAV1@AEAV?$allocator@PEAVObstacle@@@0@@Z 000000014003febc     UbisoftProject.obj
 0003:0000bed0       $unwind$??$_Get_unwrapped@V?$vector@PEAVObstacle@@V?$allocator@PEAVObstacle@@@std@@@std@@@std@@YAPEAV?$vector@PEAVObstacle@@V?$allocator@PEAVObstacle@@@std@@@0@QEAV10@@Z 000000014003fed0     UbisoftProject.obj
 0003:0000bee4       $unwind$??$move@AEAV?$vector@PEAVObstacle@@V?$allocator@PEAVObstacle@@@std@@@std@@@std@@YA$$QEAV?$vector@PEAVObstacle@@V?$allocator@PEAVObstacle@@@std@@@0@AEAV10@@Z 000000014003fee4     UbisoftProject.obj
 0003:0000befe       $cppxdata$??$move@AEAV?$vector@PEAVObstacle@@V?$allocator@PEAVObstacle@@@std@@@std@@@std@@YA$$QEAV?$vector@PEAVObstacle@@V?$allocator@PEAVObstacle@@@std@@@0@AEAV10@@Z 000000014003fefe     UbisoftProject.obj
 0003:0000bf03       $ip2state$??$move@AEAV?$vector@PEAVObstacle@@V?$allocator@PEAVObstacle@@@std@@@std@@@std@@YA$$QEAV?$vector@PEAVObstacle@@V?$allocator@PEAVObstacle@@@std@@@0@AEAV10@@Z 000000014003ff03     UbisoftProject.obj
 0003:0000bf08       $unwind$??0?$_Uninitialized_backout_al@V?$allocator@V?$vector@PEAVObstacle@@V?$allocator@PEAVObstacle@@@std@@@std@@@std@@@std@@QEAA@PEAV?$vector@PEAVObstacle@@V?$allocator@PEAVObstacle@@@std@@@1@AEAV?$allocator@V?$vector@PEAVObstacle@@V?$allocator@PEAVObstacle@@@std@@@std@@@1@@Z 000000014003ff08     UbisoftProject.obj
 0003:0000bf1c       $unwind$??1?$_Uninitialized_backout_al@V?$allocator@V?$vector@PEAVObstacle@@V?$allocator@PEAVObstacle@@@std@@@std@@@std@@@std@@QEAA@XZ 000000014003ff1c     UbisoftProject.obj
 0003:0000bf36       $cppxdata$??1?$_Uninitialized_backout_al@V?$allocator@V?$vector@PEAVObstacle@@V?$allocator@PEAVObstacle@@@std@@@std@@@std@@@std@@QEAA@XZ 000000014003ff36     UbisoftProject.obj
 0003:0000bf3b       $ip2state$??1?$_Uninitialized_backout_al@V?$allocator@V?$vector@PEAVObstacle@@V?$allocator@PEAVObstacle@@@std@@@std@@@std@@@std@@QEAA@XZ 000000014003ff3b     UbisoftProject.obj
 0003:0000bf40       $unwind$?_Release@?$_Uninitialized_backout_al@V?$allocator@V?$vector@PEAVObstacle@@V?$allocator@PEAVObstacle@@@std@@@std@@@std@@@std@@QEAAPEAV?$vector@PEAVObstacle@@V?$allocator@PEAVObstacle@@@std@@@2@XZ 000000014003ff40     UbisoftProject.obj
 0003:0000bf54       $unwind$?__autoclassinit2@?$_Uninitialized_backout_al@V?$allocator@V?$vector@PEAVObstacle@@V?$allocator@PEAVObstacle@@@std@@@std@@@std@@@std@@QEAAX_K@Z 000000014003ff54     UbisoftProject.obj
 0003:0000bf68       $unwind$??$_Emplace_back@V?$vector@PEAVObstacle@@V?$allocator@PEAVObstacle@@@std@@@std@@@?$_Uninitialized_backout_al@V?$allocator@V?$vector@PEAVObstacle@@V?$allocator@PEAVObstacle@@@std@@@std@@@std@@@std@@QEAAX$$QEAV?$vector@PEAVObstacle@@V?$allocator@PEAVObstacle@@@std@@@1@@Z 000000014003ff68     UbisoftProject.obj
 0003:0000bf7c       $unwind$??$forward@V?$vector@PEAVObstacle@@V?$allocator@PEAVObstacle@@@std@@@std@@@std@@YA$$QEAV?$vector@PEAVObstacle@@V?$allocator@PEAVObstacle@@@std@@@0@AEAV10@@Z 000000014003ff7c     UbisoftProject.obj
 0003:0000bf96       $cppxdata$??$forward@V?$vector@PEAVObstacle@@V?$allocator@PEAVObstacle@@@std@@@std@@@std@@YA$$QEAV?$vector@PEAVObstacle@@V?$allocator@PEAVObstacle@@@std@@@0@AEAV10@@Z 000000014003ff96     UbisoftProject.obj
 0003:0000bf9b       $ip2state$??$forward@V?$vector@PEAVObstacle@@V?$allocator@PEAVObstacle@@@std@@@std@@@std@@YA$$QEAV?$vector@PEAVObstacle@@V?$allocator@PEAVObstacle@@@std@@@0@AEAV10@@Z 000000014003ff9b     UbisoftProject.obj
 0003:0000bfa0       $unwind$??$construct@V?$vector@PEAVObstacle@@V?$allocator@PEAVObstacle@@@std@@@std@@V12@@?$_Default_allocator_traits@V?$allocator@V?$vector@PEAVObstacle@@V?$allocator@PEAVObstacle@@@std@@@std@@@std@@@std@@SAXAEAV?$allocator@V?$vector@PEAVObstacle@@V?$allocator@PEAVObstacle@@@std@@@std@@@1@QEAV?$vector@PEAVObstacle@@V?$allocator@PEAVObstacle@@@std@@@1@$$QEAV31@@Z 000000014003ffa0     UbisoftProject.obj
 0003:0000bfb4       $unwind$??$move@AEAV?$allocator@PEAVObstacle@@@std@@@std@@YA$$QEAV?$allocator@PEAVObstacle@@@0@AEAV10@@Z 000000014003ffb4     UbisoftProject.obj
 0003:0000bfce       $cppxdata$??$move@AEAV?$allocator@PEAVObstacle@@@std@@@std@@YA$$QEAV?$allocator@PEAVObstacle@@@0@AEAV10@@Z 000000014003ffce     UbisoftProject.obj
 0003:0000bfd3       $ip2state$??$move@AEAV?$allocator@PEAVObstacle@@@std@@@std@@YA$$QEAV?$allocator@PEAVObstacle@@@0@AEAV10@@Z 000000014003ffd3     UbisoftProject.obj
 0003:0000bfd8       $unwind$??0Wall@@QEAA@MM@Z 000000014003ffd8     Wall.obj
 0003:0000bff2       $cppxdata$??0Wall@@QEAA@MM@Z 000000014003fff2     Wall.obj
 0003:0000bffb       $stateUnwindMap$??0Wall@@QEAA@MM@Z 000000014003fffb     Wall.obj
 0003:0000c001       $ip2state$??0Wall@@QEAA@MM@Z 0000000140040001     Wall.obj
 0003:0000c008       $unwind$?dtor$0@?0???0Wall@@QEAA@MM@Z@4HA 0000000140040008     Wall.obj
 0003:0000c018       $unwind$??1Wall@@UEAA@XZ   0000000140040018     Wall.obj
 0003:0000c032       $cppxdata$??1Wall@@UEAA@XZ 0000000140040032     Wall.obj
 0003:0000c037       $ip2state$??1Wall@@UEAA@XZ 0000000140040037     Wall.obj
 0003:0000c03c       $unwind$?deplacementBox@Wall@@UEAAXH@Z 000000014004003c     Wall.obj
 0003:0000c050       $unwind$?areColliding@Wall@@UEAAHAEBUAABB@@0@Z 0000000140040050     Wall.obj
 0003:0000c064       $unwind$??_GWall@@UEAAPEAXI@Z 0000000140040064     Wall.obj
 0003:0000c078       $unwind$__local_stdio_printf_options 0000000140040078     Framework:main.obj
 0003:0000c08c       $unwind$_vfprintf_l        000000014004008c     Framework:main.obj
 0003:0000c0a0       $unwind$printf             00000001400400a0     Framework:main.obj
 0003:0000c0bc       $unwind$_vsnprintf_l       00000001400400bc     Framework:main.obj
 0003:0000c0d0       $unwind$_vsprintf_l        00000001400400d0     Framework:main.obj
 0003:0000c0e4       $unwind$sprintf            00000001400400e4     Framework:main.obj
 0003:0000c100       $unwind$wWinMain           0000000140040100     Framework:main.obj
 0003:0000c11c       $unwind$glutInit_ATEXIT_HACK 000000014004011c     Framework:main.obj
 0003:0000c130       $unwind$glutCreateWindow_ATEXIT_HACK 0000000140040130     Framework:main.obj
 0003:0000c144       $unwind$?StartCounter@@YAXXZ 0000000140040144     Framework:main.obj
 0003:0000c160       $unwind$?GetCounter@@YANXZ 0000000140040160     Framework:main.obj
 0003:0000c17c       $unwind$??0CProfiler@@QEAA@XZ 000000014004017c     Framework:main.obj
 0003:0000c190       $unwind$?Start@CProfiler@@QEAAXXZ 0000000140040190     Framework:main.obj
 0003:0000c1a4       $unwind$?Stop@CProfiler@@QEAANXZ 00000001400401a4     Framework:main.obj
 0003:0000c1b8       $unwind$?Print@CProfiler@@QEAAXMMPEBD@Z 00000001400401b8     Framework:main.obj
 0003:0000c1d4       $unwind$??__EgUserRenderProfiler@@YAXXZ 00000001400401d4     Framework:main.obj
 0003:0000c1e8       $unwind$??__EgUserUpdateProfiler@@YAXXZ 00000001400401e8     Framework:main.obj
 0003:0000c1fc       $unwind$??__EgUpdateDeltaTime@@YAXXZ 00000001400401fc     Framework:main.obj
 0003:0000c210       $unwind$?InitGL@@YAXXZ     0000000140040210     Framework:main.obj
 0003:0000c224       $unwind$?Display@@YAXXZ    0000000140040224     Framework:main.obj
 0003:0000c238       $unwind$?Idle@@YAXXZ       0000000140040238     Framework:main.obj
 0003:0000c256       $cppxdata$?Idle@@YAXXZ     0000000140040256     Framework:main.obj
 0003:0000c25f       $stateUnwindMap$?Idle@@YAXXZ 000000014004025f     Framework:main.obj
 0003:0000c265       $ip2state$?Idle@@YAXXZ     0000000140040265     Framework:main.obj
 0003:0000c26c       $unwind$?dtor$0@?0??Idle@@YAXXZ@4HA 000000014004026c     Framework:main.obj
 0003:0000c27c       $unwind$?CheckMemCallback@@YAXXZ 000000014004027c     Framework:main.obj
 0003:0000c290       $unwind$?GetController@CSimpleControllers@@QEAAAEBVCController@@H@Z 0000000140040290     Framework:app.obj
 0003:0000c2a4       $unwind$?DrawLine@App@@YAXMMMMMMM@Z 00000001400402a4     Framework:app.obj
 0003:0000c2b8       $unwind$?Print@App@@YAXMMPEBDMMMPEAX@Z 00000001400402b8     Framework:app.obj
 0003:0000c2cc       $unwind$?CreateSprite@App@@YAPEAVCSimpleSprite@@PEBD@Z 00000001400402cc     Framework:app.obj
 0003:0000c2e6       $cppxdata$?CreateSprite@App@@YAPEAVCSimpleSprite@@PEBD@Z 00000001400402e6     Framework:app.obj
 0003:0000c2ef       $stateUnwindMap$?CreateSprite@App@@YAPEAVCSimpleSprite@@PEBD@Z 00000001400402ef     Framework:app.obj
 0003:0000c2f5       $ip2state$?CreateSprite@App@@YAPEAVCSimpleSprite@@PEBD@Z 00000001400402f5     Framework:app.obj
 0003:0000c2fc       $unwind$?dtor$0@?0??CreateSprite@App@@YAPEAVCSimpleSprite@@PEBD@Z@4HA 00000001400402fc     Framework:app.obj
 0003:0000c30c       $unwind$?StartSound@App@@YAXPEBD_N@Z 000000014004030c     Framework:app.obj
 0003:0000c320       $unwind$?StopSound@App@@YAXPEBD@Z 0000000140040320     Framework:app.obj
 0003:0000c334       $unwind$?IsSoundPlaying@App@@YA_NPEBD@Z 0000000140040334     Framework:app.obj
 0003:0000c348       $unwind$?IsKeyPressed@App@@YA_NH@Z 0000000140040348     Framework:app.obj
 0003:0000c35c       $unwind$?GetMousePos@App@@YAXAEAM0@Z 000000014004035c     Framework:app.obj
 0003:0000c378       $unwind$?GetController@App@@YAAEBVCController@@H@Z 0000000140040378     Framework:app.obj
 0003:0000c38c       $unwind$??0?$tuple@$$V@std@@QEAA@XZ 000000014004038c     Framework:SimpleSprite.obj
 0003:0000c3a6       $cppxdata$??0?$tuple@$$V@std@@QEAA@XZ 00000001400403a6     Framework:SimpleSprite.obj
 0003:0000c3ab       $ip2state$??0?$tuple@$$V@std@@QEAA@XZ 00000001400403ab     Framework:SimpleSprite.obj
 0003:0000c3b0       $unwind$??0?$tuple@$$V@std@@QEAA@AEBV01@@Z 00000001400403b0     Framework:SimpleSprite.obj
 0003:0000c3ca       $cppxdata$??0?$tuple@$$V@std@@QEAA@AEBV01@@Z 00000001400403ca     Framework:SimpleSprite.obj
 0003:0000c3cf       $ip2state$??0?$tuple@$$V@std@@QEAA@AEBV01@@Z 00000001400403cf     Framework:SimpleSprite.obj
 0003:0000c3d4       $unwind$??0_Iterator_base12@std@@QEAA@XZ 00000001400403d4     Framework:SimpleSprite.obj
 0003:0000c3ee       $cppxdata$??0_Iterator_base12@std@@QEAA@XZ 00000001400403ee     Framework:SimpleSprite.obj
 0003:0000c3f3       $ip2state$??0_Iterator_base12@std@@QEAA@XZ 00000001400403f3     Framework:SimpleSprite.obj
 0003:0000c3f8       $unwind$??1_Iterator_base12@std@@QEAA@XZ 00000001400403f8     Framework:SimpleSprite.obj
 0003:0000c416       $cppxdata$??1_Iterator_base12@std@@QEAA@XZ 0000000140040416     Framework:SimpleSprite.obj
 0003:0000c41b       $ip2state$??1_Iterator_base12@std@@QEAA@XZ 000000014004041b     Framework:SimpleSprite.obj
 0003:0000c420       $unwind$?_Adopt@_Iterator_base12@std@@QEAAXPEBU_Container_base12@2@@Z 0000000140040420     Framework:SimpleSprite.obj
 0003:0000c43e       $cppxdata$?_Adopt@_Iterator_base12@std@@QEAAXPEBU_Container_base12@2@@Z 000000014004043e     Framework:SimpleSprite.obj
 0003:0000c443       $ip2state$?_Adopt@_Iterator_base12@std@@QEAAXPEBU_Container_base12@2@@Z 0000000140040443     Framework:SimpleSprite.obj
 0003:0000c448       $unwind$?_Getcont@_Iterator_base12@std@@QEBAPEBU_Container_base12@2@XZ 0000000140040448     Framework:SimpleSprite.obj
 0003:0000c462       $cppxdata$?_Getcont@_Iterator_base12@std@@QEBAPEBU_Container_base12@2@XZ 0000000140040462     Framework:SimpleSprite.obj
 0003:0000c467       $ip2state$?_Getcont@_Iterator_base12@std@@QEBAPEBU_Container_base12@2@XZ 0000000140040467     Framework:SimpleSprite.obj
 0003:0000c46c       $unwind$?_Orphan_me@_Iterator_base12@std@@QEAAXXZ 000000014004046c     Framework:SimpleSprite.obj
 0003:0000c486       $cppxdata$?_Orphan_me@_Iterator_base12@std@@QEAAXXZ 0000000140040486     Framework:SimpleSprite.obj
 0003:0000c48b       $ip2state$?_Orphan_me@_Iterator_base12@std@@QEAAXXZ 000000014004048b     Framework:SimpleSprite.obj
 0003:0000c490       $unwind$?_Throw_tree_length_error@std@@YAXXZ 0000000140040490     Framework:SimpleSprite.obj
 0003:0000c4a4       $unwind$??0CSimpleSprite@@QEAA@PEBD@Z 00000001400404a4     Framework:SimpleSprite.obj
 0003:0000c4b8       $unwind$?Draw@CSimpleSprite@@QEAAXXZ 00000001400404b8     Framework:SimpleSprite.obj
 0003:0000c4cc       $unwind$?CalculateUVs@CSimpleSprite@@AEAAXXZ 00000001400404cc     Framework:SimpleSprite.obj
 0003:0000c4e0       $unwind$?LoadTexture@CSimpleSprite@@AEAA_NPEBD@Z 00000001400404e0     Framework:SimpleSprite.obj
 0003:0000c4fe       $cppxdata$?LoadTexture@CSimpleSprite@@AEAA_NPEBD@Z 00000001400404fe     Framework:SimpleSprite.obj
 0003:0000c507       $stateUnwindMap$?LoadTexture@CSimpleSprite@@AEAA_NPEBD@Z 0000000140040507     Framework:SimpleSprite.obj
 0003:0000c513       $ip2state$?LoadTexture@CSimpleSprite@@AEAA_NPEBD@Z 0000000140040513     Framework:SimpleSprite.obj
 0003:0000c520       $unwind$?dtor$0@?0??LoadTexture@CSimpleSprite@@AEAA_NPEBD@Z@4HA 0000000140040520     Framework:SimpleSprite.obj
 0003:0000c530       $unwind$?dtor$1@?0??LoadTexture@CSimpleSprite@@AEAA_NPEBD@Z@4HA 0000000140040530     Framework:SimpleSprite.obj
 0003:0000c540       $unwind$??0?$allocator@U?$_Tree_node@U?$pair@QEBDUsTextureDef@CSimpleSprite@@@std@@PEAX@std@@@std@@QEAA@XZ 0000000140040540     Framework:SimpleSprite.obj
 0003:0000c55a       $cppxdata$??0?$allocator@U?$_Tree_node@U?$pair@QEBDUsTextureDef@CSimpleSprite@@@std@@PEAX@std@@@std@@QEAA@XZ 000000014004055a     Framework:SimpleSprite.obj
 0003:0000c55f       $ip2state$??0?$allocator@U?$_Tree_node@U?$pair@QEBDUsTextureDef@CSimpleSprite@@@std@@PEAX@std@@@std@@QEAA@XZ 000000014004055f     Framework:SimpleSprite.obj
 0003:0000c564       $unwind$?deallocate@?$allocator@U?$_Tree_node@U?$pair@QEBDUsTextureDef@CSimpleSprite@@@std@@PEAX@std@@@std@@QEAAXQEAU?$_Tree_node@U?$pair@QEBDUsTextureDef@CSimpleSprite@@@std@@PEAX@2@_K@Z 0000000140040564     Framework:SimpleSprite.obj
 0003:0000c578       $unwind$?allocate@?$allocator@U?$_Tree_node@U?$pair@QEBDUsTextureDef@CSimpleSprite@@@std@@PEAX@std@@@std@@QEAAPEAU?$_Tree_node@U?$pair@QEBDUsTextureDef@CSimpleSprite@@@std@@PEAX@2@_K@Z 0000000140040578     Framework:SimpleSprite.obj
 0003:0000c58c       $unwind$?deallocate@?$_Default_allocator_traits@V?$allocator@U?$_Tree_node@U?$pair@QEBDUsTextureDef@CSimpleSprite@@@std@@PEAX@std@@@std@@@std@@SAXAEAV?$allocator@U?$_Tree_node@U?$pair@QEBDUsTextureDef@CSimpleSprite@@@std@@PEAX@std@@@2@QEAU?$_Tree_node@U?$pair@QEBDUsTextureDef@CSimpleSprite@@@std@@PEAX@2@_K@Z 000000014004058c     Framework:SimpleSprite.obj
 0003:0000c5a0       $unwind$?max_size@?$_Default_allocator_traits@V?$allocator@U?$_Tree_node@U?$pair@QEBDUsTextureDef@CSimpleSprite@@@std@@PEAX@std@@@std@@@std@@SA_KAEBV?$allocator@U?$_Tree_node@U?$pair@QEBDUsTextureDef@CSimpleSprite@@@std@@PEAX@std@@@2@@Z 00000001400405a0     Framework:SimpleSprite.obj
 0003:0000c5ba       $cppxdata$?max_size@?$_Default_allocator_traits@V?$allocator@U?$_Tree_node@U?$pair@QEBDUsTextureDef@CSimpleSprite@@@std@@PEAX@std@@@std@@@std@@SA_KAEBV?$allocator@U?$_Tree_node@U?$pair@QEBDUsTextureDef@CSimpleSprite@@@std@@PEAX@std@@@2@@Z 00000001400405ba     Framework:SimpleSprite.obj
 0003:0000c5bf       $ip2state$?max_size@?$_Default_allocator_traits@V?$allocator@U?$_Tree_node@U?$pair@QEBDUsTextureDef@CSimpleSprite@@@std@@PEAX@std@@@std@@@std@@SA_KAEBV?$allocator@U?$_Tree_node@U?$pair@QEBDUsTextureDef@CSimpleSprite@@@std@@PEAX@std@@@2@@Z 00000001400405bf     Framework:SimpleSprite.obj
 0003:0000c5c4       $unwind$??0?$_Tree@V?$_Tmap_traits@PEBDUsTextureDef@CSimpleSprite@@U?$less@PEBD@std@@V?$allocator@U?$pair@QEBDUsTextureDef@CSimpleSprite@@@std@@@4@$0A@@std@@@std@@QEAA@AEBU?$less@PEBD@1@@Z 00000001400405c4     Framework:SimpleSprite.obj
 0003:0000c5d8       $unwind$??1?$_Tree@V?$_Tmap_traits@PEBDUsTextureDef@CSimpleSprite@@U?$less@PEBD@std@@V?$allocator@U?$pair@QEBDUsTextureDef@CSimpleSprite@@@std@@@4@$0A@@std@@@std@@QEAA@XZ 00000001400405d8     Framework:SimpleSprite.obj
 0003:0000c5f6       $cppxdata$??1?$_Tree@V?$_Tmap_traits@PEBDUsTextureDef@CSimpleSprite@@U?$less@PEBD@std@@V?$allocator@U?$pair@QEBDUsTextureDef@CSimpleSprite@@@std@@@4@$0A@@std@@@std@@QEAA@XZ 00000001400405f6     Framework:SimpleSprite.obj
 0003:0000c5fb       $ip2state$??1?$_Tree@V?$_Tmap_traits@PEBDUsTextureDef@CSimpleSprite@@U?$less@PEBD@std@@V?$allocator@U?$pair@QEBDUsTextureDef@CSimpleSprite@@@std@@@4@$0A@@std@@@std@@QEAA@XZ 00000001400405fb     Framework:SimpleSprite.obj
 0003:0000c600       $unwind$?end@?$_Tree@V?$_Tmap_traits@PEBDUsTextureDef@CSimpleSprite@@U?$less@PEBD@std@@V?$allocator@U?$pair@QEBDUsTextureDef@CSimpleSprite@@@std@@@4@$0A@@std@@@std@@QEAA?AV?$_Tree_iterator@V?$_Tree_val@U?$_Tree_simple_types@U?$pair@QEBDUsTextureDef@CSimpleSprite@@@std@@@std@@@std@@@2@XZ 0000000140040600     Framework:SimpleSprite.obj
 0003:0000c61a       $cppxdata$?end@?$_Tree@V?$_Tmap_traits@PEBDUsTextureDef@CSimpleSprite@@U?$less@PEBD@std@@V?$allocator@U?$pair@QEBDUsTextureDef@CSimpleSprite@@@std@@@4@$0A@@std@@@std@@QEAA?AV?$_Tree_iterator@V?$_Tree_val@U?$_Tree_simple_types@U?$pair@QEBDUsTextureDef@CSimpleSprite@@@std@@@std@@@std@@@2@XZ 000000014004061a     Framework:SimpleSprite.obj
 0003:0000c61f       $ip2state$?end@?$_Tree@V?$_Tmap_traits@PEBDUsTextureDef@CSimpleSprite@@U?$less@PEBD@std@@V?$allocator@U?$pair@QEBDUsTextureDef@CSimpleSprite@@@std@@@4@$0A@@std@@@std@@QEAA?AV?$_Tree_iterator@V?$_Tree_val@U?$_Tree_simple_types@U?$pair@QEBDUsTextureDef@CSimpleSprite@@@std@@@std@@@std@@@2@XZ 000000014004061f     Framework:SimpleSprite.obj
 0003:0000c624       $unwind$?max_size@?$_Tree@V?$_Tmap_traits@PEBDUsTextureDef@CSimpleSprite@@U?$less@PEBD@std@@V?$allocator@U?$pair@QEBDUsTextureDef@CSimpleSprite@@@std@@@4@$0A@@std@@@std@@QEBA_KXZ 0000000140040624     Framework:SimpleSprite.obj
 0003:0000c63e       $cppxdata$?max_size@?$_Tree@V?$_Tmap_traits@PEBDUsTextureDef@CSimpleSprite@@U?$less@PEBD@std@@V?$allocator@U?$pair@QEBDUsTextureDef@CSimpleSprite@@@std@@@4@$0A@@std@@@std@@QEBA_KXZ 000000014004063e     Framework:SimpleSprite.obj
 0003:0000c643       $ip2state$?max_size@?$_Tree@V?$_Tmap_traits@PEBDUsTextureDef@CSimpleSprite@@U?$less@PEBD@std@@V?$allocator@U?$pair@QEBDUsTextureDef@CSimpleSprite@@@std@@@4@$0A@@std@@@std@@QEBA_KXZ 0000000140040643     Framework:SimpleSprite.obj
 0003:0000c648       $unwind$?find@?$_Tree@V?$_Tmap_traits@PEBDUsTextureDef@CSimpleSprite@@U?$less@PEBD@std@@V?$allocator@U?$pair@QEBDUsTextureDef@CSimpleSprite@@@std@@@4@$0A@@std@@@std@@QEAA?AV?$_Tree_iterator@V?$_Tree_val@U?$_Tree_simple_types@U?$pair@QEBDUsTextureDef@CSimpleSprite@@@std@@@std@@@std@@@2@AEBQEBD@Z 0000000140040648     Framework:SimpleSprite.obj
 0003:0000c65c       $unwind$?_Check_grow_by_1@?$_Tree@V?$_Tmap_traits@PEBDUsTextureDef@CSimpleSprite@@U?$less@PEBD@std@@V?$allocator@U?$pair@QEBDUsTextureDef@CSimpleSprite@@@std@@@4@$0A@@std@@@std@@IEAAXXZ 000000014004065c     Framework:SimpleSprite.obj
 0003:0000c670       $unwind$?_Alloc_sentinel_and_proxy@?$_Tree@V?$_Tmap_traits@PEBDUsTextureDef@CSimpleSprite@@U?$less@PEBD@std@@V?$allocator@U?$pair@QEBDUsTextureDef@CSimpleSprite@@@std@@@4@$0A@@std@@@std@@IEAAXXZ 0000000140040670     Framework:SimpleSprite.obj
 0003:0000c68e       $cppxdata$?_Alloc_sentinel_and_proxy@?$_Tree@V?$_Tmap_traits@PEBDUsTextureDef@CSimpleSprite@@U?$less@PEBD@std@@V?$allocator@U?$pair@QEBDUsTextureDef@CSimpleSprite@@@std@@@4@$0A@@std@@@std@@IEAAXXZ 000000014004068e     Framework:SimpleSprite.obj
 0003:0000c697       $stateUnwindMap$?_Alloc_sentinel_and_proxy@?$_Tree@V?$_Tmap_traits@PEBDUsTextureDef@CSimpleSprite@@U?$less@PEBD@std@@V?$allocator@U?$pair@QEBDUsTextureDef@CSimpleSprite@@@std@@@4@$0A@@std@@@std@@IEAAXXZ 0000000140040697     Framework:SimpleSprite.obj
 0003:0000c69d       $ip2state$?_Alloc_sentinel_and_proxy@?$_Tree@V?$_Tmap_traits@PEBDUsTextureDef@CSimpleSprite@@U?$less@PEBD@std@@V?$allocator@U?$pair@QEBDUsTextureDef@CSimpleSprite@@@std@@@4@$0A@@std@@@std@@IEAAXXZ 000000014004069d     Framework:SimpleSprite.obj
 0003:0000c6a8       $unwind$?dtor$0@?0??_Alloc_sentinel_and_proxy@?$_Tree@V?$_Tmap_traits@PEBDUsTextureDef@CSimpleSprite@@U?$less@PEBD@std@@V?$allocator@U?$pair@QEBDUsTextureDef@CSimpleSprite@@@std@@@4@$0A@@std@@@std@@IEAAXXZ@4HA 00000001400406a8     Framework:SimpleSprite.obj
 0003:0000c6b8       $unwind$?_Getcomp@?$_Tree@V?$_Tmap_traits@PEBDUsTextureDef@CSimpleSprite@@U?$less@PEBD@std@@V?$allocator@U?$pair@QEBDUsTextureDef@CSimpleSprite@@@std@@@4@$0A@@std@@@std@@IEBAAEBU?$less@PEBD@2@XZ 00000001400406b8     Framework:SimpleSprite.obj
 0003:0000c6d2       $cppxdata$?_Getcomp@?$_Tree@V?$_Tmap_traits@PEBDUsTextureDef@CSimpleSprite@@U?$less@PEBD@std@@V?$allocator@U?$pair@QEBDUsTextureDef@CSimpleSprite@@@std@@@4@$0A@@std@@@std@@IEBAAEBU?$less@PEBD@2@XZ 00000001400406d2     Framework:SimpleSprite.obj
 0003:0000c6d7       $ip2state$?_Getcomp@?$_Tree@V?$_Tmap_traits@PEBDUsTextureDef@CSimpleSprite@@U?$less@PEBD@std@@V?$allocator@U?$pair@QEBDUsTextureDef@CSimpleSprite@@@std@@@4@$0A@@std@@@std@@IEBAAEBU?$less@PEBD@2@XZ 00000001400406d7     Framework:SimpleSprite.obj
 0003:0000c6dc       $unwind$?_Getal@?$_Tree@V?$_Tmap_traits@PEBDUsTextureDef@CSimpleSprite@@U?$less@PEBD@std@@V?$allocator@U?$pair@QEBDUsTextureDef@CSimpleSprite@@@std@@@4@$0A@@std@@@std@@IEAAAEAV?$allocator@U?$_Tree_node@U?$pair@QEBDUsTextureDef@CSimpleSprite@@@std@@PEAX@std@@@2@XZ 00000001400406dc     Framework:SimpleSprite.obj
 0003:0000c6f6       $cppxdata$?_Getal@?$_Tree@V?$_Tmap_traits@PEBDUsTextureDef@CSimpleSprite@@U?$less@PEBD@std@@V?$allocator@U?$pair@QEBDUsTextureDef@CSimpleSprite@@@std@@@4@$0A@@std@@@std@@IEAAAEAV?$allocator@U?$_Tree_node@U?$pair@QEBDUsTextureDef@CSimpleSprite@@@std@@PEAX@std@@@2@XZ 00000001400406f6     Framework:SimpleSprite.obj
 0003:0000c6fb       $ip2state$?_Getal@?$_Tree@V?$_Tmap_traits@PEBDUsTextureDef@CSimpleSprite@@U?$less@PEBD@std@@V?$allocator@U?$pair@QEBDUsTextureDef@CSimpleSprite@@@std@@@4@$0A@@std@@@std@@IEAAAEAV?$allocator@U?$_Tree_node@U?$pair@QEBDUsTextureDef@CSimpleSprite@@@std@@PEAX@std@@@2@XZ 00000001400406fb     Framework:SimpleSprite.obj
 0003:0000c700       $unwind$?_Getal@?$_Tree@V?$_Tmap_traits@PEBDUsTextureDef@CSimpleSprite@@U?$less@PEBD@std@@V?$allocator@U?$pair@QEBDUsTextureDef@CSimpleSprite@@@std@@@4@$0A@@std@@@std@@IEBAAEBV?$allocator@U?$_Tree_node@U?$pair@QEBDUsTextureDef@CSimpleSprite@@@std@@PEAX@std@@@2@XZ 0000000140040700     Framework:SimpleSprite.obj
 0003:0000c71a       $cppxdata$?_Getal@?$_Tree@V?$_Tmap_traits@PEBDUsTextureDef@CSimpleSprite@@U?$less@PEBD@std@@V?$allocator@U?$pair@QEBDUsTextureDef@CSimpleSprite@@@std@@@4@$0A@@std@@@std@@IEBAAEBV?$allocator@U?$_Tree_node@U?$pair@QEBDUsTextureDef@CSimpleSprite@@@std@@PEAX@std@@@2@XZ 000000014004071a     Framework:SimpleSprite.obj
 0003:0000c71f       $ip2state$?_Getal@?$_Tree@V?$_Tmap_traits@PEBDUsTextureDef@CSimpleSprite@@U?$less@PEBD@std@@V?$allocator@U?$pair@QEBDUsTextureDef@CSimpleSprite@@@std@@@4@$0A@@std@@@std@@IEBAAEBV?$allocator@U?$_Tree_node@U?$pair@QEBDUsTextureDef@CSimpleSprite@@@std@@PEAX@std@@@2@XZ 000000014004071f     Framework:SimpleSprite.obj
 0003:0000c724       $unwind$?_Get_scary@?$_Tree@V?$_Tmap_traits@PEBDUsTextureDef@CSimpleSprite@@U?$less@PEBD@std@@V?$allocator@U?$pair@QEBDUsTextureDef@CSimpleSprite@@@std@@@4@$0A@@std@@@std@@IEAAPEAV?$_Tree_val@U?$_Tree_simple_types@U?$pair@QEBDUsTextureDef@CSimpleSprite@@@std@@@std@@@2@XZ 0000000140040724     Framework:SimpleSprite.obj
 0003:0000c73e       $cppxdata$?_Get_scary@?$_Tree@V?$_Tmap_traits@PEBDUsTextureDef@CSimpleSprite@@U?$less@PEBD@std@@V?$allocator@U?$pair@QEBDUsTextureDef@CSimpleSprite@@@std@@@4@$0A@@std@@@std@@IEAAPEAV?$_Tree_val@U?$_Tree_simple_types@U?$pair@QEBDUsTextureDef@CSimpleSprite@@@std@@@std@@@2@XZ 000000014004073e     Framework:SimpleSprite.obj
 0003:0000c743       $ip2state$?_Get_scary@?$_Tree@V?$_Tmap_traits@PEBDUsTextureDef@CSimpleSprite@@U?$less@PEBD@std@@V?$allocator@U?$pair@QEBDUsTextureDef@CSimpleSprite@@@std@@@4@$0A@@std@@@std@@IEAAPEAV?$_Tree_val@U?$_Tree_simple_types@U?$pair@QEBDUsTextureDef@CSimpleSprite@@@std@@@std@@@2@XZ 0000000140040743     Framework:SimpleSprite.obj
 0003:0000c748       $unwind$?_Get_scary@?$_Tree@V?$_Tmap_traits@PEBDUsTextureDef@CSimpleSprite@@U?$less@PEBD@std@@V?$allocator@U?$pair@QEBDUsTextureDef@CSimpleSprite@@@std@@@4@$0A@@std@@@std@@IEBAPEBV?$_Tree_val@U?$_Tree_simple_types@U?$pair@QEBDUsTextureDef@CSimpleSprite@@@std@@@std@@@2@XZ 0000000140040748     Framework:SimpleSprite.obj
 0003:0000c762       $cppxdata$?_Get_scary@?$_Tree@V?$_Tmap_traits@PEBDUsTextureDef@CSimpleSprite@@U?$less@PEBD@std@@V?$allocator@U?$pair@QEBDUsTextureDef@CSimpleSprite@@@std@@@4@$0A@@std@@@std@@IEBAPEBV?$_Tree_val@U?$_Tree_simple_types@U?$pair@QEBDUsTextureDef@CSimpleSprite@@@std@@@std@@@2@XZ 0000000140040762     Framework:SimpleSprite.obj
 0003:0000c767       $ip2state$?_Get_scary@?$_Tree@V?$_Tmap_traits@PEBDUsTextureDef@CSimpleSprite@@U?$less@PEBD@std@@V?$allocator@U?$pair@QEBDUsTextureDef@CSimpleSprite@@@std@@@4@$0A@@std@@@std@@IEBAPEBV?$_Tree_val@U?$_Tree_simple_types@U?$pair@QEBDUsTextureDef@CSimpleSprite@@@std@@@std@@@2@XZ 0000000140040767     Framework:SimpleSprite.obj
 0003:0000c76c       $unwind$??R?$less@PEBD@std@@QEBA_NAEBQEBD0@Z 000000014004076c     Framework:SimpleSprite.obj
 0003:0000c780       $unwind$??0?$_Tree_val@U?$_Tree_simple_types@U?$pair@QEBDUsTextureDef@CSimpleSprite@@@std@@@std@@@std@@QEAA@XZ 0000000140040780     Framework:SimpleSprite.obj
 0003:0000c794       $unwind$?_Lrotate@?$_Tree_val@U?$_Tree_simple_types@U?$pair@QEBDUsTextureDef@CSimpleSprite@@@std@@@std@@@std@@QEAAXPEAU?$_Tree_node@U?$pair@QEBDUsTextureDef@CSimpleSprite@@@std@@PEAX@2@@Z 0000000140040794     Framework:SimpleSprite.obj
 0003:0000c7a8       $unwind$?_Rrotate@?$_Tree_val@U?$_Tree_simple_types@U?$pair@QEBDUsTextureDef@CSimpleSprite@@@std@@@std@@@std@@QEAAXPEAU?$_Tree_node@U?$pair@QEBDUsTextureDef@CSimpleSprite@@@std@@PEAX@2@@Z 00000001400407a8     Framework:SimpleSprite.obj
 0003:0000c7bc       $unwind$?_Insert_node@?$_Tree_val@U?$_Tree_simple_types@U?$pair@QEBDUsTextureDef@CSimpleSprite@@@std@@@std@@@std@@QEAAPEAU?$_Tree_node@U?$pair@QEBDUsTextureDef@CSimpleSprite@@@std@@PEAX@2@U?$_Tree_id@PEAU?$_Tree_node@U?$pair@QEBDUsTextureDef@CSimpleSprite@@@std@@PEAX@std@@@2@QEAU32@@Z 00000001400407bc     Framework:SimpleSprite.obj
 0003:0000c7d6       $cppxdata$?_Insert_node@?$_Tree_val@U?$_Tree_simple_types@U?$pair@QEBDUsTextureDef@CSimpleSprite@@@std@@@std@@@std@@QEAAPEAU?$_Tree_node@U?$pair@QEBDUsTextureDef@CSimpleSprite@@@std@@PEAX@2@U?$_Tree_id@PEAU?$_Tree_node@U?$pair@QEBDUsTextureDef@CSimpleSprite@@@std@@PEAX@std@@@2@QEAU32@@Z 00000001400407d6     Framework:SimpleSprite.obj
 0003:0000c7db       $ip2state$?_Insert_node@?$_Tree_val@U?$_Tree_simple_types@U?$pair@QEBDUsTextureDef@CSimpleSprite@@@std@@@std@@@std@@QEAAPEAU?$_Tree_node@U?$pair@QEBDUsTextureDef@CSimpleSprite@@@std@@PEAX@2@U?$_Tree_id@PEAU?$_Tree_node@U?$pair@QEBDUsTextureDef@CSimpleSprite@@@std@@PEAX@std@@@2@QEAU32@@Z 00000001400407db     Framework:SimpleSprite.obj
 0003:0000c7e0       $unwind$?_Get_first@?$_Compressed_pair@V?$allocator@U?$_Tree_node@U?$pair@QEBDUsTextureDef@CSimpleSprite@@@std@@PEAX@std@@@std@@V?$_Tree_val@U?$_Tree_simple_types@U?$pair@QEBDUsTextureDef@CSimpleSprite@@@std@@@std@@@2@$00@std@@QEAAAEAV?$allocator@U?$_Tree_node@U?$pair@QEBDUsTextureDef@CSimpleSprite@@@std@@PEAX@std@@@2@XZ 00000001400407e0     Framework:SimpleSprite.obj
 0003:0000c7fa       $cppxdata$?_Get_first@?$_Compressed_pair@V?$allocator@U?$_Tree_node@U?$pair@QEBDUsTextureDef@CSimpleSprite@@@std@@PEAX@std@@@std@@V?$_Tree_val@U?$_Tree_simple_types@U?$pair@QEBDUsTextureDef@CSimpleSprite@@@std@@@std@@@2@$00@std@@QEAAAEAV?$allocator@U?$_Tree_node@U?$pair@QEBDUsTextureDef@CSimpleSprite@@@std@@PEAX@std@@@2@XZ 00000001400407fa     Framework:SimpleSprite.obj
 0003:0000c7ff       $ip2state$?_Get_first@?$_Compressed_pair@V?$allocator@U?$_Tree_node@U?$pair@QEBDUsTextureDef@CSimpleSprite@@@std@@PEAX@std@@@std@@V?$_Tree_val@U?$_Tree_simple_types@U?$pair@QEBDUsTextureDef@CSimpleSprite@@@std@@@std@@@2@$00@std@@QEAAAEAV?$allocator@U?$_Tree_node@U?$pair@QEBDUsTextureDef@CSimpleSprite@@@std@@PEAX@std@@@2@XZ 00000001400407ff     Framework:SimpleSprite.obj
 0003:0000c804       $unwind$?_Get_first@?$_Compressed_pair@V?$allocator@U?$_Tree_node@U?$pair@QEBDUsTextureDef@CSimpleSprite@@@std@@PEAX@std@@@std@@V?$_Tree_val@U?$_Tree_simple_types@U?$pair@QEBDUsTextureDef@CSimpleSprite@@@std@@@std@@@2@$00@std@@QEBAAEBV?$allocator@U?$_Tree_node@U?$pair@QEBDUsTextureDef@CSimpleSprite@@@std@@PEAX@std@@@2@XZ 0000000140040804     Framework:SimpleSprite.obj
 0003:0000c81e       $cppxdata$?_Get_first@?$_Compressed_pair@V?$allocator@U?$_Tree_node@U?$pair@QEBDUsTextureDef@CSimpleSprite@@@std@@PEAX@std@@@std@@V?$_Tree_val@U?$_Tree_simple_types@U?$pair@QEBDUsTextureDef@CSimpleSprite@@@std@@@std@@@2@$00@std@@QEBAAEBV?$allocator@U?$_Tree_node@U?$pair@QEBDUsTextureDef@CSimpleSprite@@@std@@PEAX@std@@@2@XZ 000000014004081e     Framework:SimpleSprite.obj
 0003:0000c823       $ip2state$?_Get_first@?$_Compressed_pair@V?$allocator@U?$_Tree_node@U?$pair@QEBDUsTextureDef@CSimpleSprite@@@std@@PEAX@std@@@std@@V?$_Tree_val@U?$_Tree_simple_types@U?$pair@QEBDUsTextureDef@CSimpleSprite@@@std@@@std@@@2@$00@std@@QEBAAEBV?$allocator@U?$_Tree_node@U?$pair@QEBDUsTextureDef@CSimpleSprite@@@std@@PEAX@std@@@2@XZ 0000000140040823     Framework:SimpleSprite.obj
 0003:0000c828       $unwind$?_Get_first@?$_Compressed_pair@U?$less@PEBD@std@@V?$_Compressed_pair@V?$allocator@U?$_Tree_node@U?$pair@QEBDUsTextureDef@CSimpleSprite@@@std@@PEAX@std@@@std@@V?$_Tree_val@U?$_Tree_simple_types@U?$pair@QEBDUsTextureDef@CSimpleSprite@@@std@@@std@@@2@$00@2@$00@std@@QEBAAEBU?$less@PEBD@2@XZ 0000000140040828     Framework:SimpleSprite.obj
 0003:0000c842       $cppxdata$?_Get_first@?$_Compressed_pair@U?$less@PEBD@std@@V?$_Compressed_pair@V?$allocator@U?$_Tree_node@U?$pair@QEBDUsTextureDef@CSimpleSprite@@@std@@PEAX@std@@@std@@V?$_Tree_val@U?$_Tree_simple_types@U?$pair@QEBDUsTextureDef@CSimpleSprite@@@std@@@std@@@2@$00@2@$00@std@@QEBAAEBU?$less@PEBD@2@XZ 0000000140040842     Framework:SimpleSprite.obj
 0003:0000c847       $ip2state$?_Get_first@?$_Compressed_pair@U?$less@PEBD@std@@V?$_Compressed_pair@V?$allocator@U?$_Tree_node@U?$pair@QEBDUsTextureDef@CSimpleSprite@@@std@@PEAX@std@@@std@@V?$_Tree_val@U?$_Tree_simple_types@U?$pair@QEBDUsTextureDef@CSimpleSprite@@@std@@@std@@@2@$00@2@$00@std@@QEBAAEBU?$less@PEBD@2@XZ 0000000140040847     Framework:SimpleSprite.obj
 0003:0000c84c       $unwind$??$?0$$V@?$_Compressed_pair@V?$allocator@U?$_Tree_node@U?$pair@QEBDUsTextureDef@CSimpleSprite@@@std@@PEAX@std@@@std@@V?$_Tree_val@U?$_Tree_simple_types@U?$pair@QEBDUsTextureDef@CSimpleSprite@@@std@@@std@@@2@$00@std@@QEAA@U_Zero_then_variadic_args_t@1@@Z 000000014004084c     Framework:SimpleSprite.obj
 0003:0000c860       $unwind$??0?$map@PEBDUsTextureDef@CSimpleSprite@@U?$less@PEBD@std@@V?$allocator@U?$pair@QEBDUsTextureDef@CSimpleSprite@@@std@@@4@@std@@QEAA@XZ 0000000140040860     Framework:SimpleSprite.obj
 0003:0000c874       $unwind$??A?$map@PEBDUsTextureDef@CSimpleSprite@@U?$less@PEBD@std@@V?$allocator@U?$pair@QEBDUsTextureDef@CSimpleSprite@@@std@@@4@@std@@QEAAAEAUsTextureDef@CSimpleSprite@@AEBQEBD@Z 0000000140040874     Framework:SimpleSprite.obj
 0003:0000c888       $unwind$??1?$map@PEBDUsTextureDef@CSimpleSprite@@U?$less@PEBD@std@@V?$allocator@U?$pair@QEBDUsTextureDef@CSimpleSprite@@@std@@@4@@std@@QEAA@XZ 0000000140040888     Framework:SimpleSprite.obj
 0003:0000c89c       $unwind$?__autoclassinit2@?$map@PEBDUsTextureDef@CSimpleSprite@@U?$less@PEBD@std@@V?$allocator@U?$pair@QEBDUsTextureDef@CSimpleSprite@@@std@@@4@@std@@QEAAX_K@Z 000000014004089c     Framework:SimpleSprite.obj
 0003:0000c8b0       $unwind$??__E?m_textures@CSimpleSprite@@0V?$map@PEBDUsTextureDef@CSimpleSprite@@U?$less@PEBD@std@@V?$allocator@U?$pair@QEBDUsTextureDef@CSimpleSprite@@@std@@@4@@std@@A@@YAXXZ 00000001400408b0     Framework:SimpleSprite.obj
 0003:0000c8c4       $unwind$??__F?m_textures@CSimpleSprite@@0V?$map@PEBDUsTextureDef@CSimpleSprite@@U?$less@PEBD@std@@V?$allocator@U?$pair@QEBDUsTextureDef@CSimpleSprite@@@std@@@4@@std@@A@@YAXXZ 00000001400408c4     Framework:SimpleSprite.obj
 0003:0000c8d8       $unwind$??0?$_Tree_unchecked_const_iterator@V?$_Tree_val@U?$_Tree_simple_types@U?$pair@QEBDUsTextureDef@CSimpleSprite@@@std@@@std@@@std@@U_Iterator_base12@2@@std@@QEAA@PEAU?$_Tree_node@U?$pair@QEBDUsTextureDef@CSimpleSprite@@@std@@PEAX@1@PEBV?$_Tree_val@U?$_Tree_simple_types@U?$pair@QEBDUsTextureDef@CSimpleSprite@@@std@@@std@@@1@@Z 00000001400408d8     Framework:SimpleSprite.obj
 0003:0000c8ec       $unwind$??1?$_Tree_unchecked_const_iterator@V?$_Tree_val@U?$_Tree_simple_types@U?$pair@QEBDUsTextureDef@CSimpleSprite@@@std@@@std@@@std@@U_Iterator_base12@2@@std@@QEAA@XZ 00000001400408ec     Framework:SimpleSprite.obj
 0003:0000c900       $unwind$??0?$_Tree_const_iterator@V?$_Tree_val@U?$_Tree_simple_types@U?$pair@QEBDUsTextureDef@CSimpleSprite@@@std@@@std@@@std@@@std@@QEAA@PEAU?$_Tree_node@U?$pair@QEBDUsTextureDef@CSimpleSprite@@@std@@PEAX@1@PEBV?$_Tree_val@U?$_Tree_simple_types@U?$pair@QEBDUsTextureDef@CSimpleSprite@@@std@@@std@@@1@@Z 0000000140040900     Framework:SimpleSprite.obj
 0003:0000c914       $unwind$??8?$_Tree_const_iterator@V?$_Tree_val@U?$_Tree_simple_types@U?$pair@QEBDUsTextureDef@CSimpleSprite@@@std@@@std@@@std@@@std@@QEBA_NAEBV01@@Z 0000000140040914     Framework:SimpleSprite.obj
 0003:0000c928       $unwind$??9?$_Tree_const_iterator@V?$_Tree_val@U?$_Tree_simple_types@U?$pair@QEBDUsTextureDef@CSimpleSprite@@@std@@@std@@@std@@@std@@QEBA_NAEBV01@@Z 0000000140040928     Framework:SimpleSprite.obj
 0003:0000c93c       $unwind$??1?$_Tree_const_iterator@V?$_Tree_val@U?$_Tree_simple_types@U?$pair@QEBDUsTextureDef@CSimpleSprite@@@std@@@std@@@std@@@std@@QEAA@XZ 000000014004093c     Framework:SimpleSprite.obj
 0003:0000c950       $unwind$??0?$_Tree_iterator@V?$_Tree_val@U?$_Tree_simple_types@U?$pair@QEBDUsTextureDef@CSimpleSprite@@@std@@@std@@@std@@@std@@QEAA@PEAU?$_Tree_node@U?$pair@QEBDUsTextureDef@CSimpleSprite@@@std@@PEAX@1@PEBV?$_Tree_val@U?$_Tree_simple_types@U?$pair@QEBDUsTextureDef@CSimpleSprite@@@std@@@std@@@1@@Z 0000000140040950     Framework:SimpleSprite.obj
 0003:0000c964       $unwind$??1?$_Tree_iterator@V?$_Tree_val@U?$_Tree_simple_types@U?$pair@QEBDUsTextureDef@CSimpleSprite@@@std@@@std@@@std@@@std@@QEAA@XZ 0000000140040964     Framework:SimpleSprite.obj
 0003:0000c978       $unwind$??$_Try_emplace@AEBQEBD$$V@?$map@PEBDUsTextureDef@CSimpleSprite@@U?$less@PEBD@std@@V?$allocator@U?$pair@QEBDUsTextureDef@CSimpleSprite@@@std@@@4@@std@@AEAA?AU?$pair@PEAU?$_Tree_node@U?$pair@QEBDUsTextureDef@CSimpleSprite@@@std@@PEAX@std@@_N@1@AEBQEBD@Z 0000000140040978     Framework:SimpleSprite.obj
 0003:0000c994       $unwind$??$_Find@PEBD@?$_Tree@V?$_Tmap_traits@PEBDUsTextureDef@CSimpleSprite@@U?$less@PEBD@std@@V?$allocator@U?$pair@QEBDUsTextureDef@CSimpleSprite@@@std@@@4@$0A@@std@@@std@@AEBAPEAU?$_Tree_node@U?$pair@QEBDUsTextureDef@CSimpleSprite@@@std@@PEAX@1@AEBQEBD@Z 0000000140040994     Framework:SimpleSprite.obj
 0003:0000c9b0       $unwind$??$_Erase_head@V?$allocator@U?$_Tree_node@U?$pair@QEBDUsTextureDef@CSimpleSprite@@@std@@PEAX@std@@@std@@@?$_Tree_val@U?$_Tree_simple_types@U?$pair@QEBDUsTextureDef@CSimpleSprite@@@std@@@std@@@std@@QEAAXAEAV?$allocator@U?$_Tree_node@U?$pair@QEBDUsTextureDef@CSimpleSprite@@@std@@PEAX@std@@@1@@Z 00000001400409b0     Framework:SimpleSprite.obj
 0003:0000c9ca       $cppxdata$??$_Erase_head@V?$allocator@U?$_Tree_node@U?$pair@QEBDUsTextureDef@CSimpleSprite@@@std@@PEAX@std@@@std@@@?$_Tree_val@U?$_Tree_simple_types@U?$pair@QEBDUsTextureDef@CSimpleSprite@@@std@@@std@@@std@@QEAAXAEAV?$allocator@U?$_Tree_node@U?$pair@QEBDUsTextureDef@CSimpleSprite@@@std@@PEAX@std@@@1@@Z 00000001400409ca     Framework:SimpleSprite.obj
 0003:0000c9cf       $ip2state$??$_Erase_head@V?$allocator@U?$_Tree_node@U?$pair@QEBDUsTextureDef@CSimpleSprite@@@std@@PEAX@std@@@std@@@?$_Tree_val@U?$_Tree_simple_types@U?$pair@QEBDUsTextureDef@CSimpleSprite@@@std@@@std@@@std@@QEAAXAEAV?$allocator@U?$_Tree_node@U?$pair@QEBDUsTextureDef@CSimpleSprite@@@std@@PEAX@std@@@1@@Z 00000001400409cf     Framework:SimpleSprite.obj
 0003:0000c9d4       $unwind$??$?0U?$_Tree_node@U?$pair@QEBDUsTextureDef@CSimpleSprite@@@std@@PEAX@std@@@?$allocator@U_Container_proxy@std@@@std@@QEAA@AEBV?$allocator@U?$_Tree_node@U?$pair@QEBDUsTextureDef@CSimpleSprite@@@std@@PEAX@std@@@1@@Z 00000001400409d4     Framework:SimpleSprite.obj
 0003:0000c9ee       $cppxdata$??$?0U?$_Tree_node@U?$pair@QEBDUsTextureDef@CSimpleSprite@@@std@@PEAX@std@@@?$allocator@U_Container_proxy@std@@@std@@QEAA@AEBV?$allocator@U?$_Tree_node@U?$pair@QEBDUsTextureDef@CSimpleSprite@@@std@@PEAX@std@@@1@@Z 00000001400409ee     Framework:SimpleSprite.obj
 0003:0000c9f3       $ip2state$??$?0U?$_Tree_node@U?$pair@QEBDUsTextureDef@CSimpleSprite@@@std@@PEAX@std@@@?$allocator@U_Container_proxy@std@@@std@@QEAA@AEBV?$allocator@U?$_Tree_node@U?$pair@QEBDUsTextureDef@CSimpleSprite@@@std@@PEAX@std@@@1@@Z 00000001400409f3     Framework:SimpleSprite.obj
 0003:0000c9f8       $unwind$??$addressof@V?$_Tree_val@U?$_Tree_simple_types@U?$pair@QEBDUsTextureDef@CSimpleSprite@@@std@@@std@@@std@@@std@@YAPEAV?$_Tree_val@U?$_Tree_simple_types@U?$pair@QEBDUsTextureDef@CSimpleSprite@@@std@@@std@@@0@AEAV10@@Z 00000001400409f8     Framework:SimpleSprite.obj
 0003:0000ca12       $cppxdata$??$addressof@V?$_Tree_val@U?$_Tree_simple_types@U?$pair@QEBDUsTextureDef@CSimpleSprite@@@std@@@std@@@std@@@std@@YAPEAV?$_Tree_val@U?$_Tree_simple_types@U?$pair@QEBDUsTextureDef@CSimpleSprite@@@std@@@std@@@0@AEAV10@@Z 0000000140040a12     Framework:SimpleSprite.obj
 0003:0000ca17       $ip2state$??$addressof@V?$_Tree_val@U?$_Tree_simple_types@U?$pair@QEBDUsTextureDef@CSimpleSprite@@@std@@@std@@@std@@@std@@YAPEAV?$_Tree_val@U?$_Tree_simple_types@U?$pair@QEBDUsTextureDef@CSimpleSprite@@@std@@@std@@@0@AEAV10@@Z 0000000140040a17     Framework:SimpleSprite.obj
 0003:0000ca1c       $unwind$??$?0AEBU?$less@PEBD@std@@U_Zero_then_variadic_args_t@1@@?$_Compressed_pair@U?$less@PEBD@std@@V?$_Compressed_pair@V?$allocator@U?$_Tree_node@U?$pair@QEBDUsTextureDef@CSimpleSprite@@@std@@PEAX@std@@@std@@V?$_Tree_val@U?$_Tree_simple_types@U?$pair@QEBDUsTextureDef@CSimpleSprite@@@std@@@std@@@2@$00@2@$00@std@@QEAA@U_One_then_variadic_args_t@1@AEBU?$less@PEBD@1@$$QEAU_Zero_then_variadic_args_t@1@@Z 0000000140040a1c     Framework:SimpleSprite.obj
 0003:0000ca30       $unwind$??$_Buyheadnode@V?$allocator@U?$_Tree_node@U?$pair@QEBDUsTextureDef@CSimpleSprite@@@std@@PEAX@std@@@std@@@?$_Tree_node@U?$pair@QEBDUsTextureDef@CSimpleSprite@@@std@@PEAX@std@@SAPEAU01@AEAV?$allocator@U?$_Tree_node@U?$pair@QEBDUsTextureDef@CSimpleSprite@@@std@@PEAX@std@@@1@@Z 0000000140040a30     Framework:SimpleSprite.obj
 0003:0000ca4c       $unwind$??$_Find_lower_bound@PEBD@?$_Tree@V?$_Tmap_traits@PEBDUsTextureDef@CSimpleSprite@@U?$less@PEBD@std@@V?$allocator@U?$pair@QEBDUsTextureDef@CSimpleSprite@@@std@@@4@$0A@@std@@@std@@IEBA?AU?$_Tree_find_result@PEAU?$_Tree_node@U?$pair@QEBDUsTextureDef@CSimpleSprite@@@std@@PEAX@std@@@1@AEBQEBD@Z 0000000140040a4c     Framework:SimpleSprite.obj
 0003:0000ca68       $unwind$??$_Lower_bound_duplicate@PEBD@?$_Tree@V?$_Tmap_traits@PEBDUsTextureDef@CSimpleSprite@@U?$less@PEBD@std@@V?$allocator@U?$pair@QEBDUsTextureDef@CSimpleSprite@@@std@@@4@$0A@@std@@@std@@IEBA_NQEAU?$_Tree_node@U?$pair@QEBDUsTextureDef@CSimpleSprite@@@std@@PEAX@1@AEBQEBD@Z 0000000140040a68     Framework:SimpleSprite.obj
 0003:0000ca7c       $unwind$??$?0AEBQEAU?$_Tree_node@U?$pair@QEBDUsTextureDef@CSimpleSprite@@@std@@PEAX@std@@_N$0A@@?$pair@PEAU?$_Tree_node@U?$pair@QEBDUsTextureDef@CSimpleSprite@@@std@@PEAX@std@@_N@std@@QEAA@AEBQEAU?$_Tree_node@U?$pair@QEBDUsTextureDef@CSimpleSprite@@@std@@PEAX@1@$$QEA_N@Z 0000000140040a7c     Framework:SimpleSprite.obj
 0003:0000ca96       $cppxdata$??$?0AEBQEAU?$_Tree_node@U?$pair@QEBDUsTextureDef@CSimpleSprite@@@std@@PEAX@std@@_N$0A@@?$pair@PEAU?$_Tree_node@U?$pair@QEBDUsTextureDef@CSimpleSprite@@@std@@PEAX@std@@_N@std@@QEAA@AEBQEAU?$_Tree_node@U?$pair@QEBDUsTextureDef@CSimpleSprite@@@std@@PEAX@1@$$QEA_N@Z 0000000140040a96     Framework:SimpleSprite.obj
 0003:0000ca9b       $ip2state$??$?0AEBQEAU?$_Tree_node@U?$pair@QEBDUsTextureDef@CSimpleSprite@@@std@@PEAX@std@@_N$0A@@?$pair@PEAU?$_Tree_node@U?$pair@QEBDUsTextureDef@CSimpleSprite@@@std@@PEAX@std@@_N@std@@QEAA@AEBQEAU?$_Tree_node@U?$pair@QEBDUsTextureDef@CSimpleSprite@@@std@@PEAX@1@$$QEA_N@Z 0000000140040a9b     Framework:SimpleSprite.obj
 0003:0000caa0       $unwind$??$forward@AEBQEBD@std@@YAAEBQEBDAEBQEBD@Z 0000000140040aa0     Framework:SimpleSprite.obj
 0003:0000caba       $cppxdata$??$forward@AEBQEBD@std@@YAAEBQEBDAEBQEBD@Z 0000000140040aba     Framework:SimpleSprite.obj
 0003:0000cabf       $ip2state$??$forward@AEBQEBD@std@@YAAEBQEBDAEBQEBD@Z 0000000140040abf     Framework:SimpleSprite.obj
 0003:0000cac4       $unwind$??$forward_as_tuple@AEBQEBD@std@@YA?AV?$tuple@AEBQEBD@0@AEBQEBD@Z 0000000140040ac4     Framework:SimpleSprite.obj
 0003:0000cade       $cppxdata$??$forward_as_tuple@AEBQEBD@std@@YA?AV?$tuple@AEBQEBD@0@AEBQEBD@Z 0000000140040ade     Framework:SimpleSprite.obj
 0003:0000cae3       $ip2state$??$forward_as_tuple@AEBQEBD@std@@YA?AV?$tuple@AEBQEBD@0@AEBQEBD@Z 0000000140040ae3     Framework:SimpleSprite.obj
 0003:0000cae8       $unwind$??0?$tuple@AEBQEBD@std@@QEAA@$$QEAV01@@Z 0000000140040ae8     Framework:SimpleSprite.obj
 0003:0000cb02       $cppxdata$??0?$tuple@AEBQEBD@std@@QEAA@$$QEAV01@@Z 0000000140040b02     Framework:SimpleSprite.obj
 0003:0000cb07       $ip2state$??0?$tuple@AEBQEBD@std@@QEAA@$$QEAV01@@Z 0000000140040b07     Framework:SimpleSprite.obj
 0003:0000cb0c       $unwind$??$forward_as_tuple@$$V@std@@YA?AV?$tuple@$$V@0@XZ 0000000140040b0c     Framework:SimpleSprite.obj
 0003:0000cb26       $cppxdata$??$forward_as_tuple@$$V@std@@YA?AV?$tuple@$$V@0@XZ 0000000140040b26     Framework:SimpleSprite.obj
 0003:0000cb2b       $ip2state$??$forward_as_tuple@$$V@std@@YA?AV?$tuple@$$V@0@XZ 0000000140040b2b     Framework:SimpleSprite.obj
 0003:0000cb30       $unwind$??0?$_Alloc_construct_ptr@V?$allocator@U?$_Tree_node@U?$pair@QEBDUsTextureDef@CSimpleSprite@@@std@@PEAX@std@@@std@@@std@@QEAA@AEAV?$allocator@U?$_Tree_node@U?$pair@QEBDUsTextureDef@CSimpleSprite@@@std@@PEAX@std@@@1@@Z 0000000140040b30     Framework:SimpleSprite.obj
 0003:0000cb44       $unwind$?_Release@?$_Alloc_construct_ptr@V?$allocator@U?$_Tree_node@U?$pair@QEBDUsTextureDef@CSimpleSprite@@@std@@PEAX@std@@@std@@@std@@QEAAPEAU?$_Tree_node@U?$pair@QEBDUsTextureDef@CSimpleSprite@@@std@@PEAX@2@XZ 0000000140040b44     Framework:SimpleSprite.obj
 0003:0000cb5e       $cppxdata$?_Release@?$_Alloc_construct_ptr@V?$allocator@U?$_Tree_node@U?$pair@QEBDUsTextureDef@CSimpleSprite@@@std@@PEAX@std@@@std@@@std@@QEAAPEAU?$_Tree_node@U?$pair@QEBDUsTextureDef@CSimpleSprite@@@std@@PEAX@2@XZ 0000000140040b5e     Framework:SimpleSprite.obj
 0003:0000cb63       $ip2state$?_Release@?$_Alloc_construct_ptr@V?$allocator@U?$_Tree_node@U?$pair@QEBDUsTextureDef@CSimpleSprite@@@std@@PEAX@std@@@std@@@std@@QEAAPEAU?$_Tree_node@U?$pair@QEBDUsTextureDef@CSimpleSprite@@@std@@PEAX@2@XZ 0000000140040b63     Framework:SimpleSprite.obj
 0003:0000cb68       $unwind$?_Allocate@?$_Alloc_construct_ptr@V?$allocator@U?$_Tree_node@U?$pair@QEBDUsTextureDef@CSimpleSprite@@@std@@PEAX@std@@@std@@@std@@QEAAXXZ 0000000140040b68     Framework:SimpleSprite.obj
 0003:0000cb7c       $unwind$??1?$_Alloc_construct_ptr@V?$allocator@U?$_Tree_node@U?$pair@QEBDUsTextureDef@CSimpleSprite@@@std@@PEAX@std@@@std@@@std@@QEAA@XZ 0000000140040b7c     Framework:SimpleSprite.obj
 0003:0000cb96       $cppxdata$??1?$_Alloc_construct_ptr@V?$allocator@U?$_Tree_node@U?$pair@QEBDUsTextureDef@CSimpleSprite@@@std@@PEAX@std@@@std@@@std@@QEAA@XZ 0000000140040b96     Framework:SimpleSprite.obj
 0003:0000cb9b       $ip2state$??1?$_Alloc_construct_ptr@V?$allocator@U?$_Tree_node@U?$pair@QEBDUsTextureDef@CSimpleSprite@@@std@@PEAX@std@@@std@@@std@@QEAA@XZ 0000000140040b9b     Framework:SimpleSprite.obj
 0003:0000cba0       $unwind$??0?$_Tree_temp_node_alloc@V?$allocator@U?$_Tree_node@U?$pair@QEBDUsTextureDef@CSimpleSprite@@@std@@PEAX@std@@@std@@@std@@QEAA@AEAV?$allocator@U?$_Tree_node@U?$pair@QEBDUsTextureDef@CSimpleSprite@@@std@@PEAX@std@@@1@@Z 0000000140040ba0     Framework:SimpleSprite.obj
 0003:0000cbba       $cppxdata$??0?$_Tree_temp_node_alloc@V?$allocator@U?$_Tree_node@U?$pair@QEBDUsTextureDef@CSimpleSprite@@@std@@PEAX@std@@@std@@@std@@QEAA@AEAV?$allocator@U?$_Tree_node@U?$pair@QEBDUsTextureDef@CSimpleSprite@@@std@@PEAX@std@@@1@@Z 0000000140040bba     Framework:SimpleSprite.obj
 0003:0000cbc3       $stateUnwindMap$??0?$_Tree_temp_node_alloc@V?$allocator@U?$_Tree_node@U?$pair@QEBDUsTextureDef@CSimpleSprite@@@std@@PEAX@std@@@std@@@std@@QEAA@AEAV?$allocator@U?$_Tree_node@U?$pair@QEBDUsTextureDef@CSimpleSprite@@@std@@PEAX@std@@@1@@Z 0000000140040bc3     Framework:SimpleSprite.obj
 0003:0000cbc9       $ip2state$??0?$_Tree_temp_node_alloc@V?$allocator@U?$_Tree_node@U?$pair@QEBDUsTextureDef@CSimpleSprite@@@std@@PEAX@std@@@std@@@std@@QEAA@AEAV?$allocator@U?$_Tree_node@U?$pair@QEBDUsTextureDef@CSimpleSprite@@@std@@PEAX@std@@@1@@Z 0000000140040bc9     Framework:SimpleSprite.obj
 0003:0000cbd0       $unwind$?dtor$0@?0???0?$_Tree_temp_node_alloc@V?$allocator@U?$_Tree_node@U?$pair@QEBDUsTextureDef@CSimpleSprite@@@std@@PEAX@std@@@std@@@std@@QEAA@AEAV?$allocator@U?$_Tree_node@U?$pair@QEBDUsTextureDef@CSimpleSprite@@@std@@PEAX@std@@@1@@Z@4HA 0000000140040bd0     Framework:SimpleSprite.obj
 0003:0000cbe0       $unwind$??1?$_Tree_temp_node_alloc@V?$allocator@U?$_Tree_node@U?$pair@QEBDUsTextureDef@CSimpleSprite@@@std@@PEAX@std@@@std@@@std@@QEAA@XZ 0000000140040be0     Framework:SimpleSprite.obj
 0003:0000cbf4       $unwind$??1?$_Tree_temp_node@V?$allocator@U?$_Tree_node@U?$pair@QEBDUsTextureDef@CSimpleSprite@@@std@@PEAX@std@@@std@@@std@@QEAA@XZ 0000000140040bf4     Framework:SimpleSprite.obj
 0003:0000cc0e       $cppxdata$??1?$_Tree_temp_node@V?$allocator@U?$_Tree_node@U?$pair@QEBDUsTextureDef@CSimpleSprite@@@std@@PEAX@std@@@std@@@std@@QEAA@XZ 0000000140040c0e     Framework:SimpleSprite.obj
 0003:0000cc13       $ip2state$??1?$_Tree_temp_node@V?$allocator@U?$_Tree_node@U?$pair@QEBDUsTextureDef@CSimpleSprite@@@std@@PEAX@std@@@std@@@std@@QEAA@XZ 0000000140040c13     Framework:SimpleSprite.obj
 0003:0000cc18       $unwind$??$?0AEBUpiecewise_construct_t@std@@V?$tuple@AEBQEBD@1@V?$tuple@$$V@1@@?$_Tree_temp_node@V?$allocator@U?$_Tree_node@U?$pair@QEBDUsTextureDef@CSimpleSprite@@@std@@PEAX@std@@@std@@@std@@QEAA@AEAV?$allocator@U?$_Tree_node@U?$pair@QEBDUsTextureDef@CSimpleSprite@@@std@@PEAX@std@@@1@PEAU?$_Tree_node@U?$pair@QEBDUsTextureDef@CSimpleSprite@@@std@@PEAX@1@AEBUpiecewise_construct_t@1@$$QEAV?$tuple@AEBQEBD@1@$$QEAV?$tuple@$$V@1@@Z 0000000140040c18     Framework:SimpleSprite.obj
 0003:0000cc32       $cppxdata$??$?0AEBUpiecewise_construct_t@std@@V?$tuple@AEBQEBD@1@V?$tuple@$$V@1@@?$_Tree_temp_node@V?$allocator@U?$_Tree_node@U?$pair@QEBDUsTextureDef@CSimpleSprite@@@std@@PEAX@std@@@std@@@std@@QEAA@AEAV?$allocator@U?$_Tree_node@U?$pair@QEBDUsTextureDef@CSimpleSprite@@@std@@PEAX@std@@@1@PEAU?$_Tree_node@U?$pair@QEBDUsTextureDef@CSimpleSprite@@@std@@PEAX@1@AEBUpiecewise_construct_t@1@$$QEAV?$tuple@AEBQEBD@1@$$QEAV?$tuple@$$V@1@@Z 0000000140040c32     Framework:SimpleSprite.obj
 0003:0000cc3b       $stateUnwindMap$??$?0AEBUpiecewise_construct_t@std@@V?$tuple@AEBQEBD@1@V?$tuple@$$V@1@@?$_Tree_temp_node@V?$allocator@U?$_Tree_node@U?$pair@QEBDUsTextureDef@CSimpleSprite@@@std@@PEAX@std@@@std@@@std@@QEAA@AEAV?$allocator@U?$_Tree_node@U?$pair@QEBDUsTextureDef@CSimpleSprite@@@std@@PEAX@std@@@1@PEAU?$_Tree_node@U?$pair@QEBDUsTextureDef@CSimpleSprite@@@std@@PEAX@1@AEBUpiecewise_construct_t@1@$$QEAV?$tuple@AEBQEBD@1@$$QEAV?$tuple@$$V@1@@Z 0000000140040c3b     Framework:SimpleSprite.obj
 0003:0000cc41       $ip2state$??$?0AEBUpiecewise_construct_t@std@@V?$tuple@AEBQEBD@1@V?$tuple@$$V@1@@?$_Tree_temp_node@V?$allocator@U?$_Tree_node@U?$pair@QEBDUsTextureDef@CSimpleSprite@@@std@@PEAX@std@@@std@@@std@@QEAA@AEAV?$allocator@U?$_Tree_node@U?$pair@QEBDUsTextureDef@CSimpleSprite@@@std@@PEAX@std@@@1@PEAU?$_Tree_node@U?$pair@QEBDUsTextureDef@CSimpleSprite@@@std@@PEAX@1@AEBUpiecewise_construct_t@1@$$QEAV?$tuple@AEBQEBD@1@$$QEAV?$tuple@$$V@1@@Z 0000000140040c41     Framework:SimpleSprite.obj
 0003:0000cc4c       $unwind$?dtor$0@?0???$?0AEBUpiecewise_construct_t@std@@V?$tuple@AEBQEBD@1@V?$tuple@$$V@1@@?$_Tree_temp_node@V?$allocator@U?$_Tree_node@U?$pair@QEBDUsTextureDef@CSimpleSprite@@@std@@PEAX@std@@@std@@@std@@QEAA@AEAV?$allocator@U?$_Tree_node@U?$pair@QEBDUsTextureDef@CSimpleSprite@@@std@@PEAX@std@@@1@PEAU?$_Tree_node@U?$pair@QEBDUsTextureDef@CSimpleSprite@@@std@@PEAX@1@AEBUpiecewise_construct_t@1@$$QEAV?$tuple@AEBQEBD@1@$$QEAV?$tuple@$$V@1@@Z@4HA 0000000140040c4c     Framework:SimpleSprite.obj
 0003:0000cc5c       $unwind$??$?0PEAU?$_Tree_node@U?$pair@QEBDUsTextureDef@CSimpleSprite@@@std@@PEAX@std@@_N$0A@@?$pair@PEAU?$_Tree_node@U?$pair@QEBDUsTextureDef@CSimpleSprite@@@std@@PEAX@std@@_N@std@@QEAA@$$QEAPEAU?$_Tree_node@U?$pair@QEBDUsTextureDef@CSimpleSprite@@@std@@PEAX@1@$$QEA_N@Z 0000000140040c5c     Framework:SimpleSprite.obj
 0003:0000cc76       $cppxdata$??$?0PEAU?$_Tree_node@U?$pair@QEBDUsTextureDef@CSimpleSprite@@@std@@PEAX@std@@_N$0A@@?$pair@PEAU?$_Tree_node@U?$pair@QEBDUsTextureDef@CSimpleSprite@@@std@@PEAX@std@@_N@std@@QEAA@$$QEAPEAU?$_Tree_node@U?$pair@QEBDUsTextureDef@CSimpleSprite@@@std@@PEAX@1@$$QEA_N@Z 0000000140040c76     Framework:SimpleSprite.obj
 0003:0000cc7b       $ip2state$??$?0PEAU?$_Tree_node@U?$pair@QEBDUsTextureDef@CSimpleSprite@@@std@@PEAX@std@@_N$0A@@?$pair@PEAU?$_Tree_node@U?$pair@QEBDUsTextureDef@CSimpleSprite@@@std@@PEAX@std@@_N@std@@QEAA@$$QEAPEAU?$_Tree_node@U?$pair@QEBDUsTextureDef@CSimpleSprite@@@std@@PEAX@1@$$QEA_N@Z 0000000140040c7b     Framework:SimpleSprite.obj
 0003:0000cc80       $unwind$??$_Erase_tree@V?$allocator@U?$_Tree_node@U?$pair@QEBDUsTextureDef@CSimpleSprite@@@std@@PEAX@std@@@std@@@?$_Tree_val@U?$_Tree_simple_types@U?$pair@QEBDUsTextureDef@CSimpleSprite@@@std@@@std@@@std@@QEAAXAEAV?$allocator@U?$_Tree_node@U?$pair@QEBDUsTextureDef@CSimpleSprite@@@std@@PEAX@std@@@1@PEAU?$_Tree_node@U?$pair@QEBDUsTextureDef@CSimpleSprite@@@std@@PEAX@1@@Z 0000000140040c80     Framework:SimpleSprite.obj
 0003:0000cc9a       $cppxdata$??$_Erase_tree@V?$allocator@U?$_Tree_node@U?$pair@QEBDUsTextureDef@CSimpleSprite@@@std@@PEAX@std@@@std@@@?$_Tree_val@U?$_Tree_simple_types@U?$pair@QEBDUsTextureDef@CSimpleSprite@@@std@@@std@@@std@@QEAAXAEAV?$allocator@U?$_Tree_node@U?$pair@QEBDUsTextureDef@CSimpleSprite@@@std@@PEAX@std@@@1@PEAU?$_Tree_node@U?$pair@QEBDUsTextureDef@CSimpleSprite@@@std@@PEAX@1@@Z 0000000140040c9a     Framework:SimpleSprite.obj
 0003:0000cc9f       $ip2state$??$_Erase_tree@V?$allocator@U?$_Tree_node@U?$pair@QEBDUsTextureDef@CSimpleSprite@@@std@@PEAX@std@@@std@@@?$_Tree_val@U?$_Tree_simple_types@U?$pair@QEBDUsTextureDef@CSimpleSprite@@@std@@@std@@@std@@QEAAXAEAV?$allocator@U?$_Tree_node@U?$pair@QEBDUsTextureDef@CSimpleSprite@@@std@@PEAX@std@@@1@PEAU?$_Tree_node@U?$pair@QEBDUsTextureDef@CSimpleSprite@@@std@@PEAX@1@@Z 0000000140040c9f     Framework:SimpleSprite.obj
 0003:0000cca4       $unwind$??$_Freenode0@V?$allocator@U?$_Tree_node@U?$pair@QEBDUsTextureDef@CSimpleSprite@@@std@@PEAX@std@@@std@@@?$_Tree_node@U?$pair@QEBDUsTextureDef@CSimpleSprite@@@std@@PEAX@std@@SAXAEAV?$allocator@U?$_Tree_node@U?$pair@QEBDUsTextureDef@CSimpleSprite@@@std@@PEAX@std@@@1@PEAU01@@Z 0000000140040ca4     Framework:SimpleSprite.obj
 0003:0000ccbe       $cppxdata$??$_Freenode0@V?$allocator@U?$_Tree_node@U?$pair@QEBDUsTextureDef@CSimpleSprite@@@std@@PEAX@std@@@std@@@?$_Tree_node@U?$pair@QEBDUsTextureDef@CSimpleSprite@@@std@@PEAX@std@@SAXAEAV?$allocator@U?$_Tree_node@U?$pair@QEBDUsTextureDef@CSimpleSprite@@@std@@PEAX@std@@@1@PEAU01@@Z 0000000140040cbe     Framework:SimpleSprite.obj
 0003:0000ccc3       $ip2state$??$_Freenode0@V?$allocator@U?$_Tree_node@U?$pair@QEBDUsTextureDef@CSimpleSprite@@@std@@PEAX@std@@@std@@@?$_Tree_node@U?$pair@QEBDUsTextureDef@CSimpleSprite@@@std@@PEAX@std@@SAXAEAV?$allocator@U?$_Tree_node@U?$pair@QEBDUsTextureDef@CSimpleSprite@@@std@@PEAX@std@@@1@PEAU01@@Z 0000000140040cc3     Framework:SimpleSprite.obj
 0003:0000ccc8       $unwind$??$forward@AEBU?$less@PEBD@std@@@std@@YAAEBU?$less@PEBD@0@AEBU10@@Z 0000000140040cc8     Framework:SimpleSprite.obj
 0003:0000cce2       $cppxdata$??$forward@AEBU?$less@PEBD@std@@@std@@YAAEBU?$less@PEBD@0@AEBU10@@Z 0000000140040ce2     Framework:SimpleSprite.obj
 0003:0000cce7       $ip2state$??$forward@AEBU?$less@PEBD@std@@@std@@YAAEBU?$less@PEBD@0@AEBU10@@Z 0000000140040ce7     Framework:SimpleSprite.obj
 0003:0000ccec       $unwind$??$forward@U_Zero_then_variadic_args_t@std@@@std@@YA$$QEAU_Zero_then_variadic_args_t@0@AEAU10@@Z 0000000140040cec     Framework:SimpleSprite.obj
 0003:0000cd06       $cppxdata$??$forward@U_Zero_then_variadic_args_t@std@@@std@@YA$$QEAU_Zero_then_variadic_args_t@0@AEAU10@@Z 0000000140040d06     Framework:SimpleSprite.obj
 0003:0000cd0b       $ip2state$??$forward@U_Zero_then_variadic_args_t@std@@@std@@YA$$QEAU_Zero_then_variadic_args_t@0@AEAU10@@Z 0000000140040d0b     Framework:SimpleSprite.obj
 0003:0000cd10       $unwind$??$_Construct_in_place@PEAU?$_Tree_node@U?$pair@QEBDUsTextureDef@CSimpleSprite@@@std@@PEAX@std@@AEBQEAU12@@std@@YAXAEAPEAU?$_Tree_node@U?$pair@QEBDUsTextureDef@CSimpleSprite@@@std@@PEAX@0@AEBQEAU10@@Z 0000000140040d10     Framework:SimpleSprite.obj
 0003:0000cd2a       $cppxdata$??$_Construct_in_place@PEAU?$_Tree_node@U?$pair@QEBDUsTextureDef@CSimpleSprite@@@std@@PEAX@std@@AEBQEAU12@@std@@YAXAEAPEAU?$_Tree_node@U?$pair@QEBDUsTextureDef@CSimpleSprite@@@std@@PEAX@0@AEBQEAU10@@Z 0000000140040d2a     Framework:SimpleSprite.obj
 0003:0000cd2f       $ip2state$??$_Construct_in_place@PEAU?$_Tree_node@U?$pair@QEBDUsTextureDef@CSimpleSprite@@@std@@PEAX@std@@AEBQEAU12@@std@@YAXAEAPEAU?$_Tree_node@U?$pair@QEBDUsTextureDef@CSimpleSprite@@@std@@PEAX@0@AEBQEAU10@@Z 0000000140040d2f     Framework:SimpleSprite.obj
 0003:0000cd34       $unwind$??$_Destroy_in_place@PEAU?$_Tree_node@U?$pair@QEBDUsTextureDef@CSimpleSprite@@@std@@PEAX@std@@@std@@YAXAEAPEAU?$_Tree_node@U?$pair@QEBDUsTextureDef@CSimpleSprite@@@std@@PEAX@0@@Z 0000000140040d34     Framework:SimpleSprite.obj
 0003:0000cd4e       $cppxdata$??$_Destroy_in_place@PEAU?$_Tree_node@U?$pair@QEBDUsTextureDef@CSimpleSprite@@@std@@PEAX@std@@@std@@YAXAEAPEAU?$_Tree_node@U?$pair@QEBDUsTextureDef@CSimpleSprite@@@std@@PEAX@0@@Z 0000000140040d4e     Framework:SimpleSprite.obj
 0003:0000cd53       $ip2state$??$_Destroy_in_place@PEAU?$_Tree_node@U?$pair@QEBDUsTextureDef@CSimpleSprite@@@std@@PEAX@std@@@std@@YAXAEAPEAU?$_Tree_node@U?$pair@QEBDUsTextureDef@CSimpleSprite@@@std@@PEAX@0@@Z 0000000140040d53     Framework:SimpleSprite.obj
 0003:0000cd58       $unwind$??$addressof@U?$pair@QEBDUsTextureDef@CSimpleSprite@@@std@@@std@@YAPEAU?$pair@QEBDUsTextureDef@CSimpleSprite@@@0@AEAU10@@Z 0000000140040d58     Framework:SimpleSprite.obj
 0003:0000cd72       $cppxdata$??$addressof@U?$pair@QEBDUsTextureDef@CSimpleSprite@@@std@@@std@@YAPEAU?$pair@QEBDUsTextureDef@CSimpleSprite@@@0@AEAU10@@Z 0000000140040d72     Framework:SimpleSprite.obj
 0003:0000cd77       $ip2state$??$addressof@U?$pair@QEBDUsTextureDef@CSimpleSprite@@@std@@@std@@YAPEAU?$pair@QEBDUsTextureDef@CSimpleSprite@@@0@AEAU10@@Z 0000000140040d77     Framework:SimpleSprite.obj
 0003:0000cd7c       $unwind$??$destroy@U?$pair@QEBDUsTextureDef@CSimpleSprite@@@std@@@?$_Default_allocator_traits@V?$allocator@U?$_Tree_node@U?$pair@QEBDUsTextureDef@CSimpleSprite@@@std@@PEAX@std@@@std@@@std@@SAXAEAV?$allocator@U?$_Tree_node@U?$pair@QEBDUsTextureDef@CSimpleSprite@@@std@@PEAX@std@@@1@QEAU?$pair@QEBDUsTextureDef@CSimpleSprite@@@1@@Z 0000000140040d7c     Framework:SimpleSprite.obj
 0003:0000cd90       $unwind$??$exchange@PEAU?$_Tree_node@U?$pair@QEBDUsTextureDef@CSimpleSprite@@@std@@PEAX@std@@$$T@std@@YAPEAU?$_Tree_node@U?$pair@QEBDUsTextureDef@CSimpleSprite@@@std@@PEAX@0@AEAPEAU10@$$QEA$$T@Z 0000000140040d90     Framework:SimpleSprite.obj
 0003:0000cda4       $unwind$??$addressof@$$CBV?$_Tree_val@U?$_Tree_simple_types@U?$pair@QEBDUsTextureDef@CSimpleSprite@@@std@@@std@@@std@@@std@@YAPEBV?$_Tree_val@U?$_Tree_simple_types@U?$pair@QEBDUsTextureDef@CSimpleSprite@@@std@@@std@@@0@AEBV10@@Z 0000000140040da4     Framework:SimpleSprite.obj
 0003:0000cdbe       $cppxdata$??$addressof@$$CBV?$_Tree_val@U?$_Tree_simple_types@U?$pair@QEBDUsTextureDef@CSimpleSprite@@@std@@@std@@@std@@@std@@YAPEBV?$_Tree_val@U?$_Tree_simple_types@U?$pair@QEBDUsTextureDef@CSimpleSprite@@@std@@@std@@@0@AEBV10@@Z 0000000140040dbe     Framework:SimpleSprite.obj
 0003:0000cdc3       $ip2state$??$addressof@$$CBV?$_Tree_val@U?$_Tree_simple_types@U?$pair@QEBDUsTextureDef@CSimpleSprite@@@std@@@std@@@std@@@std@@YAPEBV?$_Tree_val@U?$_Tree_simple_types@U?$pair@QEBDUsTextureDef@CSimpleSprite@@@std@@@std@@@0@AEBV10@@Z 0000000140040dc3     Framework:SimpleSprite.obj
 0003:0000cdc8       $unwind$??$_Get_size_of_n@$0DI@@std@@YA_K_K@Z 0000000140040dc8     Framework:SimpleSprite.obj
 0003:0000cddc       $unwind$??$_Kfn@QEBDUsTextureDef@CSimpleSprite@@@?$_Tmap_traits@PEBDUsTextureDef@CSimpleSprite@@U?$less@PEBD@std@@V?$allocator@U?$pair@QEBDUsTextureDef@CSimpleSprite@@@std@@@4@$0A@@std@@SAAEBQEBDAEBU?$pair@QEBDUsTextureDef@CSimpleSprite@@@1@@Z 0000000140040ddc     Framework:SimpleSprite.obj
 0003:0000cdf0       $unwind$??$_Debug_lt_pred@AEBU?$less@PEBD@std@@AEBQEBDAEBQEBD$0A@@std@@YA_NAEBU?$less@PEBD@0@AEBQEBD1@Z 0000000140040df0     Framework:SimpleSprite.obj
 0003:0000ce04       $unwind$??$forward@AEBQEAU?$_Tree_node@U?$pair@QEBDUsTextureDef@CSimpleSprite@@@std@@PEAX@std@@@std@@YAAEBQEAU?$_Tree_node@U?$pair@QEBDUsTextureDef@CSimpleSprite@@@std@@PEAX@0@AEBQEAU10@@Z 0000000140040e04     Framework:SimpleSprite.obj
 0003:0000ce1e       $cppxdata$??$forward@AEBQEAU?$_Tree_node@U?$pair@QEBDUsTextureDef@CSimpleSprite@@@std@@PEAX@std@@@std@@YAAEBQEAU?$_Tree_node@U?$pair@QEBDUsTextureDef@CSimpleSprite@@@std@@PEAX@0@AEBQEAU10@@Z 0000000140040e1e     Framework:SimpleSprite.obj
 0003:0000ce23       $ip2state$??$forward@AEBQEAU?$_Tree_node@U?$pair@QEBDUsTextureDef@CSimpleSprite@@@std@@PEAX@std@@@std@@YAAEBQEAU?$_Tree_node@U?$pair@QEBDUsTextureDef@CSimpleSprite@@@std@@PEAX@0@AEBQEAU10@@Z 0000000140040e23     Framework:SimpleSprite.obj
 0003:0000ce28       $unwind$??$forward@_N@std@@YA$$QEA_NAEA_N@Z 0000000140040e28     Framework:SimpleSprite.obj
 0003:0000ce42       $cppxdata$??$forward@_N@std@@YA$$QEA_NAEA_N@Z 0000000140040e42     Framework:SimpleSprite.obj
 0003:0000ce47       $ip2state$??$forward@_N@std@@YA$$QEA_NAEA_N@Z 0000000140040e47     Framework:SimpleSprite.obj
 0003:0000ce4c       $unwind$??$?0AEBQEBD$0A@@?$tuple@AEBQEBD@std@@QEAA@AEBQEBD@Z 0000000140040e4c     Framework:SimpleSprite.obj
 0003:0000ce66       $cppxdata$??$?0AEBQEBD$0A@@?$tuple@AEBQEBD@std@@QEAA@AEBQEBD@Z 0000000140040e66     Framework:SimpleSprite.obj
 0003:0000ce6b       $ip2state$??$?0AEBQEBD$0A@@?$tuple@AEBQEBD@std@@QEAA@AEBQEBD@Z 0000000140040e6b     Framework:SimpleSprite.obj
 0003:0000ce70       $unwind$??$forward@AEBUpiecewise_construct_t@std@@@std@@YAAEBUpiecewise_construct_t@0@AEBU10@@Z 0000000140040e70     Framework:SimpleSprite.obj
 0003:0000ce8a       $cppxdata$??$forward@AEBUpiecewise_construct_t@std@@@std@@YAAEBUpiecewise_construct_t@0@AEBU10@@Z 0000000140040e8a     Framework:SimpleSprite.obj
 0003:0000ce8f       $ip2state$??$forward@AEBUpiecewise_construct_t@std@@@std@@YAAEBUpiecewise_construct_t@0@AEBU10@@Z 0000000140040e8f     Framework:SimpleSprite.obj
 0003:0000ce94       $unwind$??$forward@V?$tuple@AEBQEBD@std@@@std@@YA$$QEAV?$tuple@AEBQEBD@0@AEAV10@@Z 0000000140040e94     Framework:SimpleSprite.obj
 0003:0000ceae       $cppxdata$??$forward@V?$tuple@AEBQEBD@std@@@std@@YA$$QEAV?$tuple@AEBQEBD@0@AEAV10@@Z 0000000140040eae     Framework:SimpleSprite.obj
 0003:0000ceb3       $ip2state$??$forward@V?$tuple@AEBQEBD@std@@@std@@YA$$QEAV?$tuple@AEBQEBD@0@AEAV10@@Z 0000000140040eb3     Framework:SimpleSprite.obj
 0003:0000ceb8       $unwind$??$forward@V?$tuple@$$V@std@@@std@@YA$$QEAV?$tuple@$$V@0@AEAV10@@Z 0000000140040eb8     Framework:SimpleSprite.obj
 0003:0000ced2       $cppxdata$??$forward@V?$tuple@$$V@std@@@std@@YA$$QEAV?$tuple@$$V@0@AEAV10@@Z 0000000140040ed2     Framework:SimpleSprite.obj
 0003:0000ced7       $ip2state$??$forward@V?$tuple@$$V@std@@@std@@YA$$QEAV?$tuple@$$V@0@AEAV10@@Z 0000000140040ed7     Framework:SimpleSprite.obj
 0003:0000cedc       $unwind$??$construct@U?$pair@QEBDUsTextureDef@CSimpleSprite@@@std@@AEBUpiecewise_construct_t@2@V?$tuple@AEBQEBD@2@V?$tuple@$$V@2@@?$_Default_allocator_traits@V?$allocator@U?$_Tree_node@U?$pair@QEBDUsTextureDef@CSimpleSprite@@@std@@PEAX@std@@@std@@@std@@SAXAEAV?$allocator@U?$_Tree_node@U?$pair@QEBDUsTextureDef@CSimpleSprite@@@std@@PEAX@std@@@1@QEAU?$pair@QEBDUsTextureDef@CSimpleSprite@@@1@AEBUpiecewise_construct_t@1@$$QEAV?$tuple@AEBQEBD@1@$$QEAV?$tuple@$$V@1@@Z 0000000140040edc     Framework:SimpleSprite.obj
 0003:0000cef0       $unwind$??$_Construct_in_place@PEAU?$_Tree_node@U?$pair@QEBDUsTextureDef@CSimpleSprite@@@std@@PEAX@std@@AEAPEAU12@@std@@YAXAEAPEAU?$_Tree_node@U?$pair@QEBDUsTextureDef@CSimpleSprite@@@std@@PEAX@0@0@Z 0000000140040ef0     Framework:SimpleSprite.obj
 0003:0000cf0a       $cppxdata$??$_Construct_in_place@PEAU?$_Tree_node@U?$pair@QEBDUsTextureDef@CSimpleSprite@@@std@@PEAX@std@@AEAPEAU12@@std@@YAXAEAPEAU?$_Tree_node@U?$pair@QEBDUsTextureDef@CSimpleSprite@@@std@@PEAX@0@0@Z 0000000140040f0a     Framework:SimpleSprite.obj
 0003:0000cf0f       $ip2state$??$_Construct_in_place@PEAU?$_Tree_node@U?$pair@QEBDUsTextureDef@CSimpleSprite@@@std@@PEAX@std@@AEAPEAU12@@std@@YAXAEAPEAU?$_Tree_node@U?$pair@QEBDUsTextureDef@CSimpleSprite@@@std@@PEAX@0@0@Z 0000000140040f0f     Framework:SimpleSprite.obj
 0003:0000cf14       $unwind$??$forward@PEAU?$_Tree_node@U?$pair@QEBDUsTextureDef@CSimpleSprite@@@std@@PEAX@std@@@std@@YA$$QEAPEAU?$_Tree_node@U?$pair@QEBDUsTextureDef@CSimpleSprite@@@std@@PEAX@0@AEAPEAU10@@Z 0000000140040f14     Framework:SimpleSprite.obj
 0003:0000cf2e       $cppxdata$??$forward@PEAU?$_Tree_node@U?$pair@QEBDUsTextureDef@CSimpleSprite@@@std@@PEAX@std@@@std@@YA$$QEAPEAU?$_Tree_node@U?$pair@QEBDUsTextureDef@CSimpleSprite@@@std@@PEAX@0@AEAPEAU10@@Z 0000000140040f2e     Framework:SimpleSprite.obj
 0003:0000cf33       $ip2state$??$forward@PEAU?$_Tree_node@U?$pair@QEBDUsTextureDef@CSimpleSprite@@@std@@PEAX@std@@@std@@YA$$QEAPEAU?$_Tree_node@U?$pair@QEBDUsTextureDef@CSimpleSprite@@@std@@PEAX@0@AEAPEAU10@@Z 0000000140040f33     Framework:SimpleSprite.obj
 0003:0000cf38       $unwind$??$exchange@PEAU?$_Tree_node@U?$pair@QEBDUsTextureDef@CSimpleSprite@@@std@@PEAX@std@@AEAPEAU12@@std@@YAPEAU?$_Tree_node@U?$pair@QEBDUsTextureDef@CSimpleSprite@@@std@@PEAX@0@AEAPEAU10@0@Z 0000000140040f38     Framework:SimpleSprite.obj
 0003:0000cf4c       $unwind$??$_Freenode@V?$allocator@U?$_Tree_node@U?$pair@QEBDUsTextureDef@CSimpleSprite@@@std@@PEAX@std@@@std@@@?$_Tree_node@U?$pair@QEBDUsTextureDef@CSimpleSprite@@@std@@PEAX@std@@SAXAEAV?$allocator@U?$_Tree_node@U?$pair@QEBDUsTextureDef@CSimpleSprite@@@std@@PEAX@std@@@1@PEAU01@@Z 0000000140040f4c     Framework:SimpleSprite.obj
 0003:0000cf66       $cppxdata$??$_Freenode@V?$allocator@U?$_Tree_node@U?$pair@QEBDUsTextureDef@CSimpleSprite@@@std@@PEAX@std@@@std@@@?$_Tree_node@U?$pair@QEBDUsTextureDef@CSimpleSprite@@@std@@PEAX@std@@SAXAEAV?$allocator@U?$_Tree_node@U?$pair@QEBDUsTextureDef@CSimpleSprite@@@std@@PEAX@std@@@1@PEAU01@@Z 0000000140040f66     Framework:SimpleSprite.obj
 0003:0000cf6b       $ip2state$??$_Freenode@V?$allocator@U?$_Tree_node@U?$pair@QEBDUsTextureDef@CSimpleSprite@@@std@@PEAX@std@@@std@@@?$_Tree_node@U?$pair@QEBDUsTextureDef@CSimpleSprite@@@std@@PEAX@std@@SAXAEAV?$allocator@U?$_Tree_node@U?$pair@QEBDUsTextureDef@CSimpleSprite@@@std@@PEAX@std@@@1@PEAU01@@Z 0000000140040f6b     Framework:SimpleSprite.obj
 0003:0000cf70       $unwind$??$addressof@PEAU?$_Tree_node@U?$pair@QEBDUsTextureDef@CSimpleSprite@@@std@@PEAX@std@@@std@@YAPEAPEAU?$_Tree_node@U?$pair@QEBDUsTextureDef@CSimpleSprite@@@std@@PEAX@0@AEAPEAU10@@Z 0000000140040f70     Framework:SimpleSprite.obj
 0003:0000cf8a       $cppxdata$??$addressof@PEAU?$_Tree_node@U?$pair@QEBDUsTextureDef@CSimpleSprite@@@std@@PEAX@std@@@std@@YAPEAPEAU?$_Tree_node@U?$pair@QEBDUsTextureDef@CSimpleSprite@@@std@@PEAX@0@AEAPEAU10@@Z 0000000140040f8a     Framework:SimpleSprite.obj
 0003:0000cf8f       $ip2state$??$addressof@PEAU?$_Tree_node@U?$pair@QEBDUsTextureDef@CSimpleSprite@@@std@@PEAX@std@@@std@@YAPEAPEAU?$_Tree_node@U?$pair@QEBDUsTextureDef@CSimpleSprite@@@std@@PEAX@0@AEAPEAU10@@Z 0000000140040f8f     Framework:SimpleSprite.obj
 0003:0000cf94       $unwind$??$?0U_Exact_args_t@std@@AEBQEBD$$V$0A@@?$tuple@AEBQEBD@std@@QEAA@U_Exact_args_t@1@AEBQEBD@Z 0000000140040f94     Framework:SimpleSprite.obj
 0003:0000cfa8       $unwind$??$?0AEBQEBD$$Z$$V@?$pair@QEBDUsTextureDef@CSimpleSprite@@@std@@QEAA@Upiecewise_construct_t@1@V?$tuple@AEBQEBD@1@V?$tuple@$$V@1@@Z 0000000140040fa8     Framework:SimpleSprite.obj
 0003:0000cfbc       $unwind$??$forward@AEAPEAU?$_Tree_node@U?$pair@QEBDUsTextureDef@CSimpleSprite@@@std@@PEAX@std@@@std@@YAAEAPEAU?$_Tree_node@U?$pair@QEBDUsTextureDef@CSimpleSprite@@@std@@PEAX@0@AEAPEAU10@@Z 0000000140040fbc     Framework:SimpleSprite.obj
 0003:0000cfd6       $cppxdata$??$forward@AEAPEAU?$_Tree_node@U?$pair@QEBDUsTextureDef@CSimpleSprite@@@std@@PEAX@std@@@std@@YAAEAPEAU?$_Tree_node@U?$pair@QEBDUsTextureDef@CSimpleSprite@@@std@@PEAX@0@AEAPEAU10@@Z 0000000140040fd6     Framework:SimpleSprite.obj
 0003:0000cfdb       $ip2state$??$forward@AEAPEAU?$_Tree_node@U?$pair@QEBDUsTextureDef@CSimpleSprite@@@std@@PEAX@std@@@std@@YAAEAPEAU?$_Tree_node@U?$pair@QEBDUsTextureDef@CSimpleSprite@@@std@@PEAX@0@AEAPEAU10@@Z 0000000140040fdb     Framework:SimpleSprite.obj
 0003:0000cfe0       $unwind$??$?0U_Exact_args_t@std@@$0A@@?$tuple@$$V@std@@QEAA@U_Exact_args_t@1@@Z 0000000140040fe0     Framework:SimpleSprite.obj
 0003:0000cffa       $cppxdata$??$?0U_Exact_args_t@std@@$0A@@?$tuple@$$V@std@@QEAA@U_Exact_args_t@1@@Z 0000000140040ffa     Framework:SimpleSprite.obj
 0003:0000cfff       $ip2state$??$?0U_Exact_args_t@std@@$0A@@?$tuple@$$V@std@@QEAA@U_Exact_args_t@1@@Z 0000000140040fff     Framework:SimpleSprite.obj
 0003:0000d004       $unwind$??$?0AEBQEBD@?$_Tuple_val@AEBQEBD@std@@QEAA@AEBQEBD@Z 0000000140041004     Framework:SimpleSprite.obj
 0003:0000d018       $unwind$??$?0V?$tuple@AEBQEBD@std@@V?$tuple@$$V@1@$0A@$$Z$S@?$pair@QEBDUsTextureDef@CSimpleSprite@@@std@@QEAA@AEAV?$tuple@AEBQEBD@1@AEAV?$tuple@$$V@1@U?$integer_sequence@_K$0A@@1@U?$integer_sequence@_K$S@1@@Z 0000000140041018     Framework:SimpleSprite.obj
 0003:0000d02c       $unwind$??$move@AEAV?$tuple@AEBQEBD@std@@@std@@YA$$QEAV?$tuple@AEBQEBD@0@AEAV10@@Z 000000014004102c     Framework:SimpleSprite.obj
 0003:0000d046       $cppxdata$??$move@AEAV?$tuple@AEBQEBD@std@@@std@@YA$$QEAV?$tuple@AEBQEBD@0@AEAV10@@Z 0000000140041046     Framework:SimpleSprite.obj
 0003:0000d04b       $ip2state$??$move@AEAV?$tuple@AEBQEBD@std@@@std@@YA$$QEAV?$tuple@AEBQEBD@0@AEAV10@@Z 000000014004104b     Framework:SimpleSprite.obj
 0003:0000d050       $unwind$??$get@$0A@AEBQEBD@std@@YAAEBQEBD$$QEAV?$tuple@AEBQEBD@0@@Z 0000000140041050     Framework:SimpleSprite.obj
 0003:0000d06a       $cppxdata$??$get@$0A@AEBQEBD@std@@YAAEBQEBD$$QEAV?$tuple@AEBQEBD@0@@Z 000000014004106a     Framework:SimpleSprite.obj
 0003:0000d06f       $ip2state$??$get@$0A@AEBQEBD@std@@YAAEBQEBD$$QEAV?$tuple@AEBQEBD@0@@Z 000000014004106f     Framework:SimpleSprite.obj
 0003:0000d074       $unwind$??_H@YAXPEAX_K1P6APEAX0@Z@Z 0000000140041074     Framework:SimpleController.obj
 0003:0000d088       $unwind$??0CController@@QEAA@XZ 0000000140041088     Framework:SimpleController.obj
 0003:0000d09c       $unwind$?GetInstance@CSimpleControllers@@SAAEAV1@XZ 000000014004109c     Framework:SimpleController.obj
 0003:0000d0b6       $cppxdata$?GetInstance@CSimpleControllers@@SAAEAV1@XZ 00000001400410b6     Framework:SimpleController.obj
 0003:0000d0bf       $stateUnwindMap$?GetInstance@CSimpleControllers@@SAAEAV1@XZ 00000001400410bf     Framework:SimpleController.obj
 0003:0000d0c5       $ip2state$?GetInstance@CSimpleControllers@@SAAEAV1@XZ 00000001400410c5     Framework:SimpleController.obj
 0003:0000d0cc       $unwind$?dtor$0@?0??GetInstance@CSimpleControllers@@SAAEAV1@XZ@4HA 00000001400410cc     Framework:SimpleController.obj
 0003:0000d0dc       $unwind$?Update@CSimpleControllers@@QEAAXXZ 00000001400410dc     Framework:SimpleController.obj
 0003:0000d0f0       $unwind$??0CSimpleControllers@@QEAA@XZ 00000001400410f0     Framework:SimpleController.obj
 0003:0000d104       $unwind$?_Adopt@_Iterator_base0@std@@QEAAXPEBX@Z 0000000140041104     Framework:SimpleSound.obj
 0003:0000d11e       $cppxdata$?_Adopt@_Iterator_base0@std@@QEAAXPEBX@Z 000000014004111e     Framework:SimpleSound.obj
 0003:0000d123       $ip2state$?_Adopt@_Iterator_base0@std@@QEAAXPEBX@Z 0000000140041123     Framework:SimpleSound.obj
 0003:0000d128       $unwind$?GetInstance@CSimpleSound@@SAAEAV1@XZ 0000000140041128     Framework:SimpleSound.obj
 0003:0000d142       $cppxdata$?GetInstance@CSimpleSound@@SAAEAV1@XZ 0000000140041142     Framework:SimpleSound.obj
 0003:0000d14b       $stateUnwindMap$?GetInstance@CSimpleSound@@SAAEAV1@XZ 000000014004114b     Framework:SimpleSound.obj
 0003:0000d151       $ip2state$?GetInstance@CSimpleSound@@SAAEAV1@XZ 0000000140041151     Framework:SimpleSound.obj
 0003:0000d158       $unwind$?dtor$0@?0??GetInstance@CSimpleSound@@SAAEAV1@XZ@4HA 0000000140041158     Framework:SimpleSound.obj
 0003:0000d168       $unwind$??0CSimpleSound@@QEAA@XZ 0000000140041168     Framework:SimpleSound.obj
 0003:0000d17c       $unwind$??1CSimpleSound@@QEAA@XZ 000000014004117c     Framework:SimpleSound.obj
 0003:0000d196       $cppxdata$??1CSimpleSound@@QEAA@XZ 0000000140041196     Framework:SimpleSound.obj
 0003:0000d19b       $ip2state$??1CSimpleSound@@QEAA@XZ 000000014004119b     Framework:SimpleSound.obj
 0003:0000d1a0       $unwind$?Initialize@CSimpleSound@@QEAA_NPEAUHWND__@@@Z 00000001400411a0     Framework:SimpleSound.obj
 0003:0000d1b4       $unwind$?Shutdown@CSimpleSound@@QEAAXXZ 00000001400411b4     Framework:SimpleSound.obj
 0003:0000d1d0       $unwind$?StartSound@CSimpleSound@@QEAA_NPEBDK@Z 00000001400411d0     Framework:SimpleSound.obj
 0003:0000d1e4       $unwind$?StopSound@CSimpleSound@@QEAA_NPEBD@Z 00000001400411e4     Framework:SimpleSound.obj
 0003:0000d1f8       $unwind$?IsPlaying@CSimpleSound@@QEAA_NPEBD@Z 00000001400411f8     Framework:SimpleSound.obj
 0003:0000d214       $unwind$?InitializeDirectSound@CSimpleSound@@AEAA_NPEAUHWND__@@@Z 0000000140041214     Framework:SimpleSound.obj
 0003:0000d230       $unwind$?ShutdownDirectSound@CSimpleSound@@AEAAXXZ 0000000140041230     Framework:SimpleSound.obj
 0003:0000d244       $unwind$?LoadWaveFile@CSimpleSound@@AEAA_NPEBD@Z 0000000140041244     Framework:SimpleSound.obj
 0003:0000d260       $unwind$??0?$allocator@U?$_Tree_node@U?$pair@QEBDPEAUIDirectSoundBuffer8@@@std@@PEAX@std@@@std@@QEAA@XZ 0000000140041260     Framework:SimpleSound.obj
 0003:0000d27a       $cppxdata$??0?$allocator@U?$_Tree_node@U?$pair@QEBDPEAUIDirectSoundBuffer8@@@std@@PEAX@std@@@std@@QEAA@XZ 000000014004127a     Framework:SimpleSound.obj
 0003:0000d27f       $ip2state$??0?$allocator@U?$_Tree_node@U?$pair@QEBDPEAUIDirectSoundBuffer8@@@std@@PEAX@std@@@std@@QEAA@XZ 000000014004127f     Framework:SimpleSound.obj
 0003:0000d284       $unwind$?deallocate@?$allocator@U?$_Tree_node@U?$pair@QEBDPEAUIDirectSoundBuffer8@@@std@@PEAX@std@@@std@@QEAAXQEAU?$_Tree_node@U?$pair@QEBDPEAUIDirectSoundBuffer8@@@std@@PEAX@2@_K@Z 0000000140041284     Framework:SimpleSound.obj
 0003:0000d298       $unwind$?allocate@?$allocator@U?$_Tree_node@U?$pair@QEBDPEAUIDirectSoundBuffer8@@@std@@PEAX@std@@@std@@QEAAPEAU?$_Tree_node@U?$pair@QEBDPEAUIDirectSoundBuffer8@@@std@@PEAX@2@_K@Z 0000000140041298     Framework:SimpleSound.obj
 0003:0000d2ac       $unwind$?deallocate@?$_Default_allocator_traits@V?$allocator@U?$_Tree_node@U?$pair@QEBDPEAUIDirectSoundBuffer8@@@std@@PEAX@std@@@std@@@std@@SAXAEAV?$allocator@U?$_Tree_node@U?$pair@QEBDPEAUIDirectSoundBuffer8@@@std@@PEAX@std@@@2@QEAU?$_Tree_node@U?$pair@QEBDPEAUIDirectSoundBuffer8@@@std@@PEAX@2@_K@Z 00000001400412ac     Framework:SimpleSound.obj
 0003:0000d2c0       $unwind$?max_size@?$_Default_allocator_traits@V?$allocator@U?$_Tree_node@U?$pair@QEBDPEAUIDirectSoundBuffer8@@@std@@PEAX@std@@@std@@@std@@SA_KAEBV?$allocator@U?$_Tree_node@U?$pair@QEBDPEAUIDirectSoundBuffer8@@@std@@PEAX@std@@@2@@Z 00000001400412c0     Framework:SimpleSound.obj
 0003:0000d2da       $cppxdata$?max_size@?$_Default_allocator_traits@V?$allocator@U?$_Tree_node@U?$pair@QEBDPEAUIDirectSoundBuffer8@@@std@@PEAX@std@@@std@@@std@@SA_KAEBV?$allocator@U?$_Tree_node@U?$pair@QEBDPEAUIDirectSoundBuffer8@@@std@@PEAX@std@@@2@@Z 00000001400412da     Framework:SimpleSound.obj
 0003:0000d2df       $ip2state$?max_size@?$_Default_allocator_traits@V?$allocator@U?$_Tree_node@U?$pair@QEBDPEAUIDirectSoundBuffer8@@@std@@PEAX@std@@@std@@@std@@SA_KAEBV?$allocator@U?$_Tree_node@U?$pair@QEBDPEAUIDirectSoundBuffer8@@@std@@PEAX@std@@@2@@Z 00000001400412df     Framework:SimpleSound.obj
 0003:0000d2e4       $unwind$??0?$_Tree@V?$_Tmap_traits@PEBDPEAUIDirectSoundBuffer8@@U?$less@PEBD@std@@V?$allocator@U?$pair@QEBDPEAUIDirectSoundBuffer8@@@std@@@3@$0A@@std@@@std@@QEAA@AEBU?$less@PEBD@1@@Z 00000001400412e4     Framework:SimpleSound.obj
 0003:0000d2f8       $unwind$??1?$_Tree@V?$_Tmap_traits@PEBDPEAUIDirectSoundBuffer8@@U?$less@PEBD@std@@V?$allocator@U?$pair@QEBDPEAUIDirectSoundBuffer8@@@std@@@3@$0A@@std@@@std@@QEAA@XZ 00000001400412f8     Framework:SimpleSound.obj
 0003:0000d316       $cppxdata$??1?$_Tree@V?$_Tmap_traits@PEBDPEAUIDirectSoundBuffer8@@U?$less@PEBD@std@@V?$allocator@U?$pair@QEBDPEAUIDirectSoundBuffer8@@@std@@@3@$0A@@std@@@std@@QEAA@XZ 0000000140041316     Framework:SimpleSound.obj
 0003:0000d31b       $ip2state$??1?$_Tree@V?$_Tmap_traits@PEBDPEAUIDirectSoundBuffer8@@U?$less@PEBD@std@@V?$allocator@U?$pair@QEBDPEAUIDirectSoundBuffer8@@@std@@@3@$0A@@std@@@std@@QEAA@XZ 000000014004131b     Framework:SimpleSound.obj
 0003:0000d320       $unwind$?_Unchecked_begin@?$_Tree@V?$_Tmap_traits@PEBDPEAUIDirectSoundBuffer8@@U?$less@PEBD@std@@V?$allocator@U?$pair@QEBDPEAUIDirectSoundBuffer8@@@std@@@3@$0A@@std@@@std@@QEAA?AV?$_Tree_unchecked_iterator@V?$_Tree_val@U?$_Tree_simple_types@U?$pair@QEBDPEAUIDirectSoundBuffer8@@@std@@@std@@@std@@@2@XZ 0000000140041320     Framework:SimpleSound.obj
 0003:0000d33a       $cppxdata$?_Unchecked_begin@?$_Tree@V?$_Tmap_traits@PEBDPEAUIDirectSoundBuffer8@@U?$less@PEBD@std@@V?$allocator@U?$pair@QEBDPEAUIDirectSoundBuffer8@@@std@@@3@$0A@@std@@@std@@QEAA?AV?$_Tree_unchecked_iterator@V?$_Tree_val@U?$_Tree_simple_types@U?$pair@QEBDPEAUIDirectSoundBuffer8@@@std@@@std@@@std@@@2@XZ 000000014004133a     Framework:SimpleSound.obj
 0003:0000d33f       $ip2state$?_Unchecked_begin@?$_Tree@V?$_Tmap_traits@PEBDPEAUIDirectSoundBuffer8@@U?$less@PEBD@std@@V?$allocator@U?$pair@QEBDPEAUIDirectSoundBuffer8@@@std@@@3@$0A@@std@@@std@@QEAA?AV?$_Tree_unchecked_iterator@V?$_Tree_val@U?$_Tree_simple_types@U?$pair@QEBDPEAUIDirectSoundBuffer8@@@std@@@std@@@std@@@2@XZ 000000014004133f     Framework:SimpleSound.obj
 0003:0000d344       $unwind$?_Unchecked_end@?$_Tree@V?$_Tmap_traits@PEBDPEAUIDirectSoundBuffer8@@U?$less@PEBD@std@@V?$allocator@U?$pair@QEBDPEAUIDirectSoundBuffer8@@@std@@@3@$0A@@std@@@std@@QEBA?AU_Default_sentinel@2@XZ 0000000140041344     Framework:SimpleSound.obj
 0003:0000d35e       $cppxdata$?_Unchecked_end@?$_Tree@V?$_Tmap_traits@PEBDPEAUIDirectSoundBuffer8@@U?$less@PEBD@std@@V?$allocator@U?$pair@QEBDPEAUIDirectSoundBuffer8@@@std@@@3@$0A@@std@@@std@@QEBA?AU_Default_sentinel@2@XZ 000000014004135e     Framework:SimpleSound.obj
 0003:0000d363       $ip2state$?_Unchecked_end@?$_Tree@V?$_Tmap_traits@PEBDPEAUIDirectSoundBuffer8@@U?$less@PEBD@std@@V?$allocator@U?$pair@QEBDPEAUIDirectSoundBuffer8@@@std@@@3@$0A@@std@@@std@@QEBA?AU_Default_sentinel@2@XZ 0000000140041363     Framework:SimpleSound.obj
 0003:0000d368       $unwind$?max_size@?$_Tree@V?$_Tmap_traits@PEBDPEAUIDirectSoundBuffer8@@U?$less@PEBD@std@@V?$allocator@U?$pair@QEBDPEAUIDirectSoundBuffer8@@@std@@@3@$0A@@std@@@std@@QEBA_KXZ 0000000140041368     Framework:SimpleSound.obj
 0003:0000d382       $cppxdata$?max_size@?$_Tree@V?$_Tmap_traits@PEBDPEAUIDirectSoundBuffer8@@U?$less@PEBD@std@@V?$allocator@U?$pair@QEBDPEAUIDirectSoundBuffer8@@@std@@@3@$0A@@std@@@std@@QEBA_KXZ 0000000140041382     Framework:SimpleSound.obj
 0003:0000d387       $ip2state$?max_size@?$_Tree@V?$_Tmap_traits@PEBDPEAUIDirectSoundBuffer8@@U?$less@PEBD@std@@V?$allocator@U?$pair@QEBDPEAUIDirectSoundBuffer8@@@std@@@3@$0A@@std@@@std@@QEBA_KXZ 0000000140041387     Framework:SimpleSound.obj
 0003:0000d38c       $unwind$?clear@?$_Tree@V?$_Tmap_traits@PEBDPEAUIDirectSoundBuffer8@@U?$less@PEBD@std@@V?$allocator@U?$pair@QEBDPEAUIDirectSoundBuffer8@@@std@@@3@$0A@@std@@@std@@QEAAXXZ 000000014004138c     Framework:SimpleSound.obj
 0003:0000d3a6       $cppxdata$?clear@?$_Tree@V?$_Tmap_traits@PEBDPEAUIDirectSoundBuffer8@@U?$less@PEBD@std@@V?$allocator@U?$pair@QEBDPEAUIDirectSoundBuffer8@@@std@@@3@$0A@@std@@@std@@QEAAXXZ 00000001400413a6     Framework:SimpleSound.obj
 0003:0000d3ab       $ip2state$?clear@?$_Tree@V?$_Tmap_traits@PEBDPEAUIDirectSoundBuffer8@@U?$less@PEBD@std@@V?$allocator@U?$pair@QEBDPEAUIDirectSoundBuffer8@@@std@@@3@$0A@@std@@@std@@QEAAXXZ 00000001400413ab     Framework:SimpleSound.obj
 0003:0000d3b0       $unwind$?_Check_grow_by_1@?$_Tree@V?$_Tmap_traits@PEBDPEAUIDirectSoundBuffer8@@U?$less@PEBD@std@@V?$allocator@U?$pair@QEBDPEAUIDirectSoundBuffer8@@@std@@@3@$0A@@std@@@std@@IEAAXXZ 00000001400413b0     Framework:SimpleSound.obj
 0003:0000d3c4       $unwind$?_Alloc_sentinel_and_proxy@?$_Tree@V?$_Tmap_traits@PEBDPEAUIDirectSoundBuffer8@@U?$less@PEBD@std@@V?$allocator@U?$pair@QEBDPEAUIDirectSoundBuffer8@@@std@@@3@$0A@@std@@@std@@IEAAXXZ 00000001400413c4     Framework:SimpleSound.obj
 0003:0000d3e2       $cppxdata$?_Alloc_sentinel_and_proxy@?$_Tree@V?$_Tmap_traits@PEBDPEAUIDirectSoundBuffer8@@U?$less@PEBD@std@@V?$allocator@U?$pair@QEBDPEAUIDirectSoundBuffer8@@@std@@@3@$0A@@std@@@std@@IEAAXXZ 00000001400413e2     Framework:SimpleSound.obj
 0003:0000d3eb       $stateUnwindMap$?_Alloc_sentinel_and_proxy@?$_Tree@V?$_Tmap_traits@PEBDPEAUIDirectSoundBuffer8@@U?$less@PEBD@std@@V?$allocator@U?$pair@QEBDPEAUIDirectSoundBuffer8@@@std@@@3@$0A@@std@@@std@@IEAAXXZ 00000001400413eb     Framework:SimpleSound.obj
 0003:0000d3f1       $ip2state$?_Alloc_sentinel_and_proxy@?$_Tree@V?$_Tmap_traits@PEBDPEAUIDirectSoundBuffer8@@U?$less@PEBD@std@@V?$allocator@U?$pair@QEBDPEAUIDirectSoundBuffer8@@@std@@@3@$0A@@std@@@std@@IEAAXXZ 00000001400413f1     Framework:SimpleSound.obj
 0003:0000d3fc       $unwind$?dtor$0@?0??_Alloc_sentinel_and_proxy@?$_Tree@V?$_Tmap_traits@PEBDPEAUIDirectSoundBuffer8@@U?$less@PEBD@std@@V?$allocator@U?$pair@QEBDPEAUIDirectSoundBuffer8@@@std@@@3@$0A@@std@@@std@@IEAAXXZ@4HA 00000001400413fc     Framework:SimpleSound.obj
 0003:0000d40c       $unwind$?_Getcomp@?$_Tree@V?$_Tmap_traits@PEBDPEAUIDirectSoundBuffer8@@U?$less@PEBD@std@@V?$allocator@U?$pair@QEBDPEAUIDirectSoundBuffer8@@@std@@@3@$0A@@std@@@std@@IEBAAEBU?$less@PEBD@2@XZ 000000014004140c     Framework:SimpleSound.obj
 0003:0000d426       $cppxdata$?_Getcomp@?$_Tree@V?$_Tmap_traits@PEBDPEAUIDirectSoundBuffer8@@U?$less@PEBD@std@@V?$allocator@U?$pair@QEBDPEAUIDirectSoundBuffer8@@@std@@@3@$0A@@std@@@std@@IEBAAEBU?$less@PEBD@2@XZ 0000000140041426     Framework:SimpleSound.obj
 0003:0000d42b       $ip2state$?_Getcomp@?$_Tree@V?$_Tmap_traits@PEBDPEAUIDirectSoundBuffer8@@U?$less@PEBD@std@@V?$allocator@U?$pair@QEBDPEAUIDirectSoundBuffer8@@@std@@@3@$0A@@std@@@std@@IEBAAEBU?$less@PEBD@2@XZ 000000014004142b     Framework:SimpleSound.obj
 0003:0000d430       $unwind$?_Getal@?$_Tree@V?$_Tmap_traits@PEBDPEAUIDirectSoundBuffer8@@U?$less@PEBD@std@@V?$allocator@U?$pair@QEBDPEAUIDirectSoundBuffer8@@@std@@@3@$0A@@std@@@std@@IEAAAEAV?$allocator@U?$_Tree_node@U?$pair@QEBDPEAUIDirectSoundBuffer8@@@std@@PEAX@std@@@2@XZ 0000000140041430     Framework:SimpleSound.obj
 0003:0000d44a       $cppxdata$?_Getal@?$_Tree@V?$_Tmap_traits@PEBDPEAUIDirectSoundBuffer8@@U?$less@PEBD@std@@V?$allocator@U?$pair@QEBDPEAUIDirectSoundBuffer8@@@std@@@3@$0A@@std@@@std@@IEAAAEAV?$allocator@U?$_Tree_node@U?$pair@QEBDPEAUIDirectSoundBuffer8@@@std@@PEAX@std@@@2@XZ 000000014004144a     Framework:SimpleSound.obj
 0003:0000d44f       $ip2state$?_Getal@?$_Tree@V?$_Tmap_traits@PEBDPEAUIDirectSoundBuffer8@@U?$less@PEBD@std@@V?$allocator@U?$pair@QEBDPEAUIDirectSoundBuffer8@@@std@@@3@$0A@@std@@@std@@IEAAAEAV?$allocator@U?$_Tree_node@U?$pair@QEBDPEAUIDirectSoundBuffer8@@@std@@PEAX@std@@@2@XZ 000000014004144f     Framework:SimpleSound.obj
 0003:0000d454       $unwind$?_Getal@?$_Tree@V?$_Tmap_traits@PEBDPEAUIDirectSoundBuffer8@@U?$less@PEBD@std@@V?$allocator@U?$pair@QEBDPEAUIDirectSoundBuffer8@@@std@@@3@$0A@@std@@@std@@IEBAAEBV?$allocator@U?$_Tree_node@U?$pair@QEBDPEAUIDirectSoundBuffer8@@@std@@PEAX@std@@@2@XZ 0000000140041454     Framework:SimpleSound.obj
 0003:0000d46e       $cppxdata$?_Getal@?$_Tree@V?$_Tmap_traits@PEBDPEAUIDirectSoundBuffer8@@U?$less@PEBD@std@@V?$allocator@U?$pair@QEBDPEAUIDirectSoundBuffer8@@@std@@@3@$0A@@std@@@std@@IEBAAEBV?$allocator@U?$_Tree_node@U?$pair@QEBDPEAUIDirectSoundBuffer8@@@std@@PEAX@std@@@2@XZ 000000014004146e     Framework:SimpleSound.obj
 0003:0000d473       $ip2state$?_Getal@?$_Tree@V?$_Tmap_traits@PEBDPEAUIDirectSoundBuffer8@@U?$less@PEBD@std@@V?$allocator@U?$pair@QEBDPEAUIDirectSoundBuffer8@@@std@@@3@$0A@@std@@@std@@IEBAAEBV?$allocator@U?$_Tree_node@U?$pair@QEBDPEAUIDirectSoundBuffer8@@@std@@PEAX@std@@@2@XZ 0000000140041473     Framework:SimpleSound.obj
 0003:0000d478       $unwind$?_Get_scary@?$_Tree@V?$_Tmap_traits@PEBDPEAUIDirectSoundBuffer8@@U?$less@PEBD@std@@V?$allocator@U?$pair@QEBDPEAUIDirectSoundBuffer8@@@std@@@3@$0A@@std@@@std@@IEAAPEAV?$_Tree_val@U?$_Tree_simple_types@U?$pair@QEBDPEAUIDirectSoundBuffer8@@@std@@@std@@@2@XZ 0000000140041478     Framework:SimpleSound.obj
 0003:0000d492       $cppxdata$?_Get_scary@?$_Tree@V?$_Tmap_traits@PEBDPEAUIDirectSoundBuffer8@@U?$less@PEBD@std@@V?$allocator@U?$pair@QEBDPEAUIDirectSoundBuffer8@@@std@@@3@$0A@@std@@@std@@IEAAPEAV?$_Tree_val@U?$_Tree_simple_types@U?$pair@QEBDPEAUIDirectSoundBuffer8@@@std@@@std@@@2@XZ 0000000140041492     Framework:SimpleSound.obj
 0003:0000d497       $ip2state$?_Get_scary@?$_Tree@V?$_Tmap_traits@PEBDPEAUIDirectSoundBuffer8@@U?$less@PEBD@std@@V?$allocator@U?$pair@QEBDPEAUIDirectSoundBuffer8@@@std@@@3@$0A@@std@@@std@@IEAAPEAV?$_Tree_val@U?$_Tree_simple_types@U?$pair@QEBDPEAUIDirectSoundBuffer8@@@std@@@std@@@2@XZ 0000000140041497     Framework:SimpleSound.obj
 0003:0000d49c       $unwind$?_Get_scary@?$_Tree@V?$_Tmap_traits@PEBDPEAUIDirectSoundBuffer8@@U?$less@PEBD@std@@V?$allocator@U?$pair@QEBDPEAUIDirectSoundBuffer8@@@std@@@3@$0A@@std@@@std@@IEBAPEBV?$_Tree_val@U?$_Tree_simple_types@U?$pair@QEBDPEAUIDirectSoundBuffer8@@@std@@@std@@@2@XZ 000000014004149c     Framework:SimpleSound.obj
 0003:0000d4b6       $cppxdata$?_Get_scary@?$_Tree@V?$_Tmap_traits@PEBDPEAUIDirectSoundBuffer8@@U?$less@PEBD@std@@V?$allocator@U?$pair@QEBDPEAUIDirectSoundBuffer8@@@std@@@3@$0A@@std@@@std@@IEBAPEBV?$_Tree_val@U?$_Tree_simple_types@U?$pair@QEBDPEAUIDirectSoundBuffer8@@@std@@@std@@@2@XZ 00000001400414b6     Framework:SimpleSound.obj
 0003:0000d4bb       $ip2state$?_Get_scary@?$_Tree@V?$_Tmap_traits@PEBDPEAUIDirectSoundBuffer8@@U?$less@PEBD@std@@V?$allocator@U?$pair@QEBDPEAUIDirectSoundBuffer8@@@std@@@3@$0A@@std@@@std@@IEBAPEBV?$_Tree_val@U?$_Tree_simple_types@U?$pair@QEBDPEAUIDirectSoundBuffer8@@@std@@@std@@@2@XZ 00000001400414bb     Framework:SimpleSound.obj
 0003:0000d4c0       $unwind$??0?$_Tree_val@U?$_Tree_simple_types@U?$pair@QEBDPEAUIDirectSoundBuffer8@@@std@@@std@@@std@@QEAA@XZ 00000001400414c0     Framework:SimpleSound.obj
 0003:0000d4d4       $unwind$?_Min@?$_Tree_val@U?$_Tree_simple_types@U?$pair@QEBDPEAUIDirectSoundBuffer8@@@std@@@std@@@std@@SAPEAU?$_Tree_node@U?$pair@QEBDPEAUIDirectSoundBuffer8@@@std@@PEAX@2@PEAU32@@Z 00000001400414d4     Framework:SimpleSound.obj
 0003:0000d4e8       $unwind$?_Lrotate@?$_Tree_val@U?$_Tree_simple_types@U?$pair@QEBDPEAUIDirectSoundBuffer8@@@std@@@std@@@std@@QEAAXPEAU?$_Tree_node@U?$pair@QEBDPEAUIDirectSoundBuffer8@@@std@@PEAX@2@@Z 00000001400414e8     Framework:SimpleSound.obj
 0003:0000d4fc       $unwind$?_Rrotate@?$_Tree_val@U?$_Tree_simple_types@U?$pair@QEBDPEAUIDirectSoundBuffer8@@@std@@@std@@@std@@QEAAXPEAU?$_Tree_node@U?$pair@QEBDPEAUIDirectSoundBuffer8@@@std@@PEAX@2@@Z 00000001400414fc     Framework:SimpleSound.obj
 0003:0000d510       $unwind$?_Insert_node@?$_Tree_val@U?$_Tree_simple_types@U?$pair@QEBDPEAUIDirectSoundBuffer8@@@std@@@std@@@std@@QEAAPEAU?$_Tree_node@U?$pair@QEBDPEAUIDirectSoundBuffer8@@@std@@PEAX@2@U?$_Tree_id@PEAU?$_Tree_node@U?$pair@QEBDPEAUIDirectSoundBuffer8@@@std@@PEAX@std@@@2@QEAU32@@Z 0000000140041510     Framework:SimpleSound.obj
 0003:0000d52a       $cppxdata$?_Insert_node@?$_Tree_val@U?$_Tree_simple_types@U?$pair@QEBDPEAUIDirectSoundBuffer8@@@std@@@std@@@std@@QEAAPEAU?$_Tree_node@U?$pair@QEBDPEAUIDirectSoundBuffer8@@@std@@PEAX@2@U?$_Tree_id@PEAU?$_Tree_node@U?$pair@QEBDPEAUIDirectSoundBuffer8@@@std@@PEAX@std@@@2@QEAU32@@Z 000000014004152a     Framework:SimpleSound.obj
 0003:0000d52f       $ip2state$?_Insert_node@?$_Tree_val@U?$_Tree_simple_types@U?$pair@QEBDPEAUIDirectSoundBuffer8@@@std@@@std@@@std@@QEAAPEAU?$_Tree_node@U?$pair@QEBDPEAUIDirectSoundBuffer8@@@std@@PEAX@2@U?$_Tree_id@PEAU?$_Tree_node@U?$pair@QEBDPEAUIDirectSoundBuffer8@@@std@@PEAX@std@@@2@QEAU32@@Z 000000014004152f     Framework:SimpleSound.obj
 0003:0000d534       $unwind$?_Orphan_ptr@?$_Tree_val@U?$_Tree_simple_types@U?$pair@QEBDPEAUIDirectSoundBuffer8@@@std@@@std@@@std@@QEAAXQEAU?$_Tree_node@U?$pair@QEBDPEAUIDirectSoundBuffer8@@@std@@PEAX@2@@Z 0000000140041534     Framework:SimpleSound.obj
 0003:0000d550       $unwind$?_Get_first@?$_Compressed_pair@V?$allocator@U?$_Tree_node@U?$pair@QEBDPEAUIDirectSoundBuffer8@@@std@@PEAX@std@@@std@@V?$_Tree_val@U?$_Tree_simple_types@U?$pair@QEBDPEAUIDirectSoundBuffer8@@@std@@@std@@@2@$00@std@@QEAAAEAV?$allocator@U?$_Tree_node@U?$pair@QEBDPEAUIDirectSoundBuffer8@@@std@@PEAX@std@@@2@XZ 0000000140041550     Framework:SimpleSound.obj
 0003:0000d56a       $cppxdata$?_Get_first@?$_Compressed_pair@V?$allocator@U?$_Tree_node@U?$pair@QEBDPEAUIDirectSoundBuffer8@@@std@@PEAX@std@@@std@@V?$_Tree_val@U?$_Tree_simple_types@U?$pair@QEBDPEAUIDirectSoundBuffer8@@@std@@@std@@@2@$00@std@@QEAAAEAV?$allocator@U?$_Tree_node@U?$pair@QEBDPEAUIDirectSoundBuffer8@@@std@@PEAX@std@@@2@XZ 000000014004156a     Framework:SimpleSound.obj
 0003:0000d56f       $ip2state$?_Get_first@?$_Compressed_pair@V?$allocator@U?$_Tree_node@U?$pair@QEBDPEAUIDirectSoundBuffer8@@@std@@PEAX@std@@@std@@V?$_Tree_val@U?$_Tree_simple_types@U?$pair@QEBDPEAUIDirectSoundBuffer8@@@std@@@std@@@2@$00@std@@QEAAAEAV?$allocator@U?$_Tree_node@U?$pair@QEBDPEAUIDirectSoundBuffer8@@@std@@PEAX@std@@@2@XZ 000000014004156f     Framework:SimpleSound.obj
 0003:0000d574       $unwind$?_Get_first@?$_Compressed_pair@V?$allocator@U?$_Tree_node@U?$pair@QEBDPEAUIDirectSoundBuffer8@@@std@@PEAX@std@@@std@@V?$_Tree_val@U?$_Tree_simple_types@U?$pair@QEBDPEAUIDirectSoundBuffer8@@@std@@@std@@@2@$00@std@@QEBAAEBV?$allocator@U?$_Tree_node@U?$pair@QEBDPEAUIDirectSoundBuffer8@@@std@@PEAX@std@@@2@XZ 0000000140041574     Framework:SimpleSound.obj
 0003:0000d58e       $cppxdata$?_Get_first@?$_Compressed_pair@V?$allocator@U?$_Tree_node@U?$pair@QEBDPEAUIDirectSoundBuffer8@@@std@@PEAX@std@@@std@@V?$_Tree_val@U?$_Tree_simple_types@U?$pair@QEBDPEAUIDirectSoundBuffer8@@@std@@@std@@@2@$00@std@@QEBAAEBV?$allocator@U?$_Tree_node@U?$pair@QEBDPEAUIDirectSoundBuffer8@@@std@@PEAX@std@@@2@XZ 000000014004158e     Framework:SimpleSound.obj
 0003:0000d593       $ip2state$?_Get_first@?$_Compressed_pair@V?$allocator@U?$_Tree_node@U?$pair@QEBDPEAUIDirectSoundBuffer8@@@std@@PEAX@std@@@std@@V?$_Tree_val@U?$_Tree_simple_types@U?$pair@QEBDPEAUIDirectSoundBuffer8@@@std@@@std@@@2@$00@std@@QEBAAEBV?$allocator@U?$_Tree_node@U?$pair@QEBDPEAUIDirectSoundBuffer8@@@std@@PEAX@std@@@2@XZ 0000000140041593     Framework:SimpleSound.obj
 0003:0000d598       $unwind$?_Get_first@?$_Compressed_pair@U?$less@PEBD@std@@V?$_Compressed_pair@V?$allocator@U?$_Tree_node@U?$pair@QEBDPEAUIDirectSoundBuffer8@@@std@@PEAX@std@@@std@@V?$_Tree_val@U?$_Tree_simple_types@U?$pair@QEBDPEAUIDirectSoundBuffer8@@@std@@@std@@@2@$00@2@$00@std@@QEBAAEBU?$less@PEBD@2@XZ 0000000140041598     Framework:SimpleSound.obj
 0003:0000d5b2       $cppxdata$?_Get_first@?$_Compressed_pair@U?$less@PEBD@std@@V?$_Compressed_pair@V?$allocator@U?$_Tree_node@U?$pair@QEBDPEAUIDirectSoundBuffer8@@@std@@PEAX@std@@@std@@V?$_Tree_val@U?$_Tree_simple_types@U?$pair@QEBDPEAUIDirectSoundBuffer8@@@std@@@std@@@2@$00@2@$00@std@@QEBAAEBU?$less@PEBD@2@XZ 00000001400415b2     Framework:SimpleSound.obj
 0003:0000d5b7       $ip2state$?_Get_first@?$_Compressed_pair@U?$less@PEBD@std@@V?$_Compressed_pair@V?$allocator@U?$_Tree_node@U?$pair@QEBDPEAUIDirectSoundBuffer8@@@std@@PEAX@std@@@std@@V?$_Tree_val@U?$_Tree_simple_types@U?$pair@QEBDPEAUIDirectSoundBuffer8@@@std@@@std@@@2@$00@2@$00@std@@QEBAAEBU?$less@PEBD@2@XZ 00000001400415b7     Framework:SimpleSound.obj
 0003:0000d5bc       $unwind$??$?0$$V@?$_Compressed_pair@V?$allocator@U?$_Tree_node@U?$pair@QEBDPEAUIDirectSoundBuffer8@@@std@@PEAX@std@@@std@@V?$_Tree_val@U?$_Tree_simple_types@U?$pair@QEBDPEAUIDirectSoundBuffer8@@@std@@@std@@@2@$00@std@@QEAA@U_Zero_then_variadic_args_t@1@@Z 00000001400415bc     Framework:SimpleSound.obj
 0003:0000d5d0       $unwind$??0?$map@PEBDPEAUIDirectSoundBuffer8@@U?$less@PEBD@std@@V?$allocator@U?$pair@QEBDPEAUIDirectSoundBuffer8@@@std@@@3@@std@@QEAA@XZ 00000001400415d0     Framework:SimpleSound.obj
 0003:0000d5e4       $unwind$??A?$map@PEBDPEAUIDirectSoundBuffer8@@U?$less@PEBD@std@@V?$allocator@U?$pair@QEBDPEAUIDirectSoundBuffer8@@@std@@@3@@std@@QEAAAEAPEAUIDirectSoundBuffer8@@AEBQEBD@Z 00000001400415e4     Framework:SimpleSound.obj
 0003:0000d5f8       $unwind$??1?$map@PEBDPEAUIDirectSoundBuffer8@@U?$less@PEBD@std@@V?$allocator@U?$pair@QEBDPEAUIDirectSoundBuffer8@@@std@@@3@@std@@QEAA@XZ 00000001400415f8     Framework:SimpleSound.obj
 0003:0000d60c       $unwind$?__autoclassinit2@CSimpleSound@@QEAAX_K@Z 000000014004160c     Framework:SimpleSound.obj
 0003:0000d620       $unwind$??__FtheSoundClass@?1??GetInstance@CSimpleSound@@SAAEAV1@XZ@YAXXZ 0000000140041620     Framework:SimpleSound.obj
 0003:0000d634       $unwind$??0?$_Tree_unchecked_const_iterator@V?$_Tree_val@U?$_Tree_simple_types@U?$pair@QEBDPEAUIDirectSoundBuffer8@@@std@@@std@@@std@@U_Iterator_base0@2@@std@@QEAA@PEAU?$_Tree_node@U?$pair@QEBDPEAUIDirectSoundBuffer8@@@std@@PEAX@1@PEBV?$_Tree_val@U?$_Tree_simple_types@U?$pair@QEBDPEAUIDirectSoundBuffer8@@@std@@@std@@@1@@Z 0000000140041634     Framework:SimpleSound.obj
 0003:0000d648       $unwind$??D?$_Tree_unchecked_const_iterator@V?$_Tree_val@U?$_Tree_simple_types@U?$pair@QEBDPEAUIDirectSoundBuffer8@@@std@@@std@@@std@@U_Iterator_base0@2@@std@@QEBAAEBU?$pair@QEBDPEAUIDirectSoundBuffer8@@@1@XZ 0000000140041648     Framework:SimpleSound.obj
 0003:0000d65c       $unwind$??E?$_Tree_unchecked_const_iterator@V?$_Tree_val@U?$_Tree_simple_types@U?$pair@QEBDPEAUIDirectSoundBuffer8@@@std@@@std@@@std@@U_Iterator_base0@2@@std@@QEAAAEAV01@XZ 000000014004165c     Framework:SimpleSound.obj
 0003:0000d670       $unwind$??9?$_Tree_unchecked_const_iterator@V?$_Tree_val@U?$_Tree_simple_types@U?$pair@QEBDPEAUIDirectSoundBuffer8@@@std@@@std@@@std@@U_Iterator_base0@2@@std@@QEBA_NU_Default_sentinel@1@@Z 0000000140041670     Framework:SimpleSound.obj
 0003:0000d68a       $cppxdata$??9?$_Tree_unchecked_const_iterator@V?$_Tree_val@U?$_Tree_simple_types@U?$pair@QEBDPEAUIDirectSoundBuffer8@@@std@@@std@@@std@@U_Iterator_base0@2@@std@@QEBA_NU_Default_sentinel@1@@Z 000000014004168a     Framework:SimpleSound.obj
 0003:0000d68f       $ip2state$??9?$_Tree_unchecked_const_iterator@V?$_Tree_val@U?$_Tree_simple_types@U?$pair@QEBDPEAUIDirectSoundBuffer8@@@std@@@std@@@std@@U_Iterator_base0@2@@std@@QEBA_NU_Default_sentinel@1@@Z 000000014004168f     Framework:SimpleSound.obj
 0003:0000d694       $unwind$??0?$_Tree_unchecked_iterator@V?$_Tree_val@U?$_Tree_simple_types@U?$pair@QEBDPEAUIDirectSoundBuffer8@@@std@@@std@@@std@@@std@@QEAA@PEAU?$_Tree_node@U?$pair@QEBDPEAUIDirectSoundBuffer8@@@std@@PEAX@1@PEBV?$_Tree_val@U?$_Tree_simple_types@U?$pair@QEBDPEAUIDirectSoundBuffer8@@@std@@@std@@@1@@Z 0000000140041694     Framework:SimpleSound.obj
 0003:0000d6a8       $unwind$??D?$_Tree_unchecked_iterator@V?$_Tree_val@U?$_Tree_simple_types@U?$pair@QEBDPEAUIDirectSoundBuffer8@@@std@@@std@@@std@@@std@@QEBAAEAU?$pair@QEBDPEAUIDirectSoundBuffer8@@@1@XZ 00000001400416a8     Framework:SimpleSound.obj
 0003:0000d6bc       $unwind$??E?$_Tree_unchecked_iterator@V?$_Tree_val@U?$_Tree_simple_types@U?$pair@QEBDPEAUIDirectSoundBuffer8@@@std@@@std@@@std@@@std@@QEAAAEAV01@XZ 00000001400416bc     Framework:SimpleSound.obj
 0003:0000d6d0       $unwind$?__autoclassinit2@?$_Tree_unchecked_iterator@V?$_Tree_val@U?$_Tree_simple_types@U?$pair@QEBDPEAUIDirectSoundBuffer8@@@std@@@std@@@std@@@std@@QEAAX_K@Z 00000001400416d0     Framework:SimpleSound.obj
 0003:0000d6e4       $unwind$??$_Try_emplace@AEBQEBD$$V@?$map@PEBDPEAUIDirectSoundBuffer8@@U?$less@PEBD@std@@V?$allocator@U?$pair@QEBDPEAUIDirectSoundBuffer8@@@std@@@3@@std@@AEAA?AU?$pair@PEAU?$_Tree_node@U?$pair@QEBDPEAUIDirectSoundBuffer8@@@std@@PEAX@std@@_N@1@AEBQEBD@Z 00000001400416e4     Framework:SimpleSound.obj
 0003:0000d700       $unwind$??$_Erase_tree@V?$allocator@U?$_Tree_node@U?$pair@QEBDPEAUIDirectSoundBuffer8@@@std@@PEAX@std@@@std@@@?$_Tree_val@U?$_Tree_simple_types@U?$pair@QEBDPEAUIDirectSoundBuffer8@@@std@@@std@@@std@@QEAAXAEAV?$allocator@U?$_Tree_node@U?$pair@QEBDPEAUIDirectSoundBuffer8@@@std@@PEAX@std@@@1@PEAU?$_Tree_node@U?$pair@QEBDPEAUIDirectSoundBuffer8@@@std@@PEAX@1@@Z 0000000140041700     Framework:SimpleSound.obj
 0003:0000d71a       $cppxdata$??$_Erase_tree@V?$allocator@U?$_Tree_node@U?$pair@QEBDPEAUIDirectSoundBuffer8@@@std@@PEAX@std@@@std@@@?$_Tree_val@U?$_Tree_simple_types@U?$pair@QEBDPEAUIDirectSoundBuffer8@@@std@@@std@@@std@@QEAAXAEAV?$allocator@U?$_Tree_node@U?$pair@QEBDPEAUIDirectSoundBuffer8@@@std@@PEAX@std@@@1@PEAU?$_Tree_node@U?$pair@QEBDPEAUIDirectSoundBuffer8@@@std@@PEAX@1@@Z 000000014004171a     Framework:SimpleSound.obj
 0003:0000d71f       $ip2state$??$_Erase_tree@V?$allocator@U?$_Tree_node@U?$pair@QEBDPEAUIDirectSoundBuffer8@@@std@@PEAX@std@@@std@@@?$_Tree_val@U?$_Tree_simple_types@U?$pair@QEBDPEAUIDirectSoundBuffer8@@@std@@@std@@@std@@QEAAXAEAV?$allocator@U?$_Tree_node@U?$pair@QEBDPEAUIDirectSoundBuffer8@@@std@@PEAX@std@@@1@PEAU?$_Tree_node@U?$pair@QEBDPEAUIDirectSoundBuffer8@@@std@@PEAX@1@@Z 000000014004171f     Framework:SimpleSound.obj
 0003:0000d724       $unwind$??$_Erase_head@V?$allocator@U?$_Tree_node@U?$pair@QEBDPEAUIDirectSoundBuffer8@@@std@@PEAX@std@@@std@@@?$_Tree_val@U?$_Tree_simple_types@U?$pair@QEBDPEAUIDirectSoundBuffer8@@@std@@@std@@@std@@QEAAXAEAV?$allocator@U?$_Tree_node@U?$pair@QEBDPEAUIDirectSoundBuffer8@@@std@@PEAX@std@@@1@@Z 0000000140041724     Framework:SimpleSound.obj
 0003:0000d73e       $cppxdata$??$_Erase_head@V?$allocator@U?$_Tree_node@U?$pair@QEBDPEAUIDirectSoundBuffer8@@@std@@PEAX@std@@@std@@@?$_Tree_val@U?$_Tree_simple_types@U?$pair@QEBDPEAUIDirectSoundBuffer8@@@std@@@std@@@std@@QEAAXAEAV?$allocator@U?$_Tree_node@U?$pair@QEBDPEAUIDirectSoundBuffer8@@@std@@PEAX@std@@@1@@Z 000000014004173e     Framework:SimpleSound.obj
 0003:0000d743       $ip2state$??$_Erase_head@V?$allocator@U?$_Tree_node@U?$pair@QEBDPEAUIDirectSoundBuffer8@@@std@@PEAX@std@@@std@@@?$_Tree_val@U?$_Tree_simple_types@U?$pair@QEBDPEAUIDirectSoundBuffer8@@@std@@@std@@@std@@QEAAXAEAV?$allocator@U?$_Tree_node@U?$pair@QEBDPEAUIDirectSoundBuffer8@@@std@@PEAX@std@@@1@@Z 0000000140041743     Framework:SimpleSound.obj
 0003:0000d748       $unwind$??$?0U?$_Tree_node@U?$pair@QEBDPEAUIDirectSoundBuffer8@@@std@@PEAX@std@@@?$allocator@U_Container_proxy@std@@@std@@QEAA@AEBV?$allocator@U?$_Tree_node@U?$pair@QEBDPEAUIDirectSoundBuffer8@@@std@@PEAX@std@@@1@@Z 0000000140041748     Framework:SimpleSound.obj
 0003:0000d762       $cppxdata$??$?0U?$_Tree_node@U?$pair@QEBDPEAUIDirectSoundBuffer8@@@std@@PEAX@std@@@?$allocator@U_Container_proxy@std@@@std@@QEAA@AEBV?$allocator@U?$_Tree_node@U?$pair@QEBDPEAUIDirectSoundBuffer8@@@std@@PEAX@std@@@1@@Z 0000000140041762     Framework:SimpleSound.obj
 0003:0000d767       $ip2state$??$?0U?$_Tree_node@U?$pair@QEBDPEAUIDirectSoundBuffer8@@@std@@PEAX@std@@@?$allocator@U_Container_proxy@std@@@std@@QEAA@AEBV?$allocator@U?$_Tree_node@U?$pair@QEBDPEAUIDirectSoundBuffer8@@@std@@PEAX@std@@@1@@Z 0000000140041767     Framework:SimpleSound.obj
 0003:0000d76c       $unwind$??$addressof@V?$_Tree_val@U?$_Tree_simple_types@U?$pair@QEBDPEAUIDirectSoundBuffer8@@@std@@@std@@@std@@@std@@YAPEAV?$_Tree_val@U?$_Tree_simple_types@U?$pair@QEBDPEAUIDirectSoundBuffer8@@@std@@@std@@@0@AEAV10@@Z 000000014004176c     Framework:SimpleSound.obj
 0003:0000d786       $cppxdata$??$addressof@V?$_Tree_val@U?$_Tree_simple_types@U?$pair@QEBDPEAUIDirectSoundBuffer8@@@std@@@std@@@std@@@std@@YAPEAV?$_Tree_val@U?$_Tree_simple_types@U?$pair@QEBDPEAUIDirectSoundBuffer8@@@std@@@std@@@0@AEAV10@@Z 0000000140041786     Framework:SimpleSound.obj
 0003:0000d78b       $ip2state$??$addressof@V?$_Tree_val@U?$_Tree_simple_types@U?$pair@QEBDPEAUIDirectSoundBuffer8@@@std@@@std@@@std@@@std@@YAPEAV?$_Tree_val@U?$_Tree_simple_types@U?$pair@QEBDPEAUIDirectSoundBuffer8@@@std@@@std@@@0@AEAV10@@Z 000000014004178b     Framework:SimpleSound.obj
 0003:0000d790       $unwind$??$?0AEBU?$less@PEBD@std@@U_Zero_then_variadic_args_t@1@@?$_Compressed_pair@U?$less@PEBD@std@@V?$_Compressed_pair@V?$allocator@U?$_Tree_node@U?$pair@QEBDPEAUIDirectSoundBuffer8@@@std@@PEAX@std@@@std@@V?$_Tree_val@U?$_Tree_simple_types@U?$pair@QEBDPEAUIDirectSoundBuffer8@@@std@@@std@@@2@$00@2@$00@std@@QEAA@U_One_then_variadic_args_t@1@AEBU?$less@PEBD@1@$$QEAU_Zero_then_variadic_args_t@1@@Z 0000000140041790     Framework:SimpleSound.obj
 0003:0000d7a4       $unwind$??$_Buyheadnode@V?$allocator@U?$_Tree_node@U?$pair@QEBDPEAUIDirectSoundBuffer8@@@std@@PEAX@std@@@std@@@?$_Tree_node@U?$pair@QEBDPEAUIDirectSoundBuffer8@@@std@@PEAX@std@@SAPEAU01@AEAV?$allocator@U?$_Tree_node@U?$pair@QEBDPEAUIDirectSoundBuffer8@@@std@@PEAX@std@@@1@@Z 00000001400417a4     Framework:SimpleSound.obj
 0003:0000d7c0       $unwind$??$_Find_lower_bound@PEBD@?$_Tree@V?$_Tmap_traits@PEBDPEAUIDirectSoundBuffer8@@U?$less@PEBD@std@@V?$allocator@U?$pair@QEBDPEAUIDirectSoundBuffer8@@@std@@@3@$0A@@std@@@std@@IEBA?AU?$_Tree_find_result@PEAU?$_Tree_node@U?$pair@QEBDPEAUIDirectSoundBuffer8@@@std@@PEAX@std@@@1@AEBQEBD@Z 00000001400417c0     Framework:SimpleSound.obj
 0003:0000d7dc       $unwind$??$_Lower_bound_duplicate@PEBD@?$_Tree@V?$_Tmap_traits@PEBDPEAUIDirectSoundBuffer8@@U?$less@PEBD@std@@V?$allocator@U?$pair@QEBDPEAUIDirectSoundBuffer8@@@std@@@3@$0A@@std@@@std@@IEBA_NQEAU?$_Tree_node@U?$pair@QEBDPEAUIDirectSoundBuffer8@@@std@@PEAX@1@AEBQEBD@Z 00000001400417dc     Framework:SimpleSound.obj
 0003:0000d7f0       $unwind$??$?0AEBQEAU?$_Tree_node@U?$pair@QEBDPEAUIDirectSoundBuffer8@@@std@@PEAX@std@@_N$0A@@?$pair@PEAU?$_Tree_node@U?$pair@QEBDPEAUIDirectSoundBuffer8@@@std@@PEAX@std@@_N@std@@QEAA@AEBQEAU?$_Tree_node@U?$pair@QEBDPEAUIDirectSoundBuffer8@@@std@@PEAX@1@$$QEA_N@Z 00000001400417f0     Framework:SimpleSound.obj
 0003:0000d80a       $cppxdata$??$?0AEBQEAU?$_Tree_node@U?$pair@QEBDPEAUIDirectSoundBuffer8@@@std@@PEAX@std@@_N$0A@@?$pair@PEAU?$_Tree_node@U?$pair@QEBDPEAUIDirectSoundBuffer8@@@std@@PEAX@std@@_N@std@@QEAA@AEBQEAU?$_Tree_node@U?$pair@QEBDPEAUIDirectSoundBuffer8@@@std@@PEAX@1@$$QEA_N@Z 000000014004180a     Framework:SimpleSound.obj
 0003:0000d80f       $ip2state$??$?0AEBQEAU?$_Tree_node@U?$pair@QEBDPEAUIDirectSoundBuffer8@@@std@@PEAX@std@@_N$0A@@?$pair@PEAU?$_Tree_node@U?$pair@QEBDPEAUIDirectSoundBuffer8@@@std@@PEAX@std@@_N@std@@QEAA@AEBQEAU?$_Tree_node@U?$pair@QEBDPEAUIDirectSoundBuffer8@@@std@@PEAX@1@$$QEA_N@Z 000000014004180f     Framework:SimpleSound.obj
 0003:0000d814       $unwind$??0?$_Alloc_construct_ptr@V?$allocator@U?$_Tree_node@U?$pair@QEBDPEAUIDirectSoundBuffer8@@@std@@PEAX@std@@@std@@@std@@QEAA@AEAV?$allocator@U?$_Tree_node@U?$pair@QEBDPEAUIDirectSoundBuffer8@@@std@@PEAX@std@@@1@@Z 0000000140041814     Framework:SimpleSound.obj
 0003:0000d828       $unwind$?_Release@?$_Alloc_construct_ptr@V?$allocator@U?$_Tree_node@U?$pair@QEBDPEAUIDirectSoundBuffer8@@@std@@PEAX@std@@@std@@@std@@QEAAPEAU?$_Tree_node@U?$pair@QEBDPEAUIDirectSoundBuffer8@@@std@@PEAX@2@XZ 0000000140041828     Framework:SimpleSound.obj
 0003:0000d842       $cppxdata$?_Release@?$_Alloc_construct_ptr@V?$allocator@U?$_Tree_node@U?$pair@QEBDPEAUIDirectSoundBuffer8@@@std@@PEAX@std@@@std@@@std@@QEAAPEAU?$_Tree_node@U?$pair@QEBDPEAUIDirectSoundBuffer8@@@std@@PEAX@2@XZ 0000000140041842     Framework:SimpleSound.obj
 0003:0000d847       $ip2state$?_Release@?$_Alloc_construct_ptr@V?$allocator@U?$_Tree_node@U?$pair@QEBDPEAUIDirectSoundBuffer8@@@std@@PEAX@std@@@std@@@std@@QEAAPEAU?$_Tree_node@U?$pair@QEBDPEAUIDirectSoundBuffer8@@@std@@PEAX@2@XZ 0000000140041847     Framework:SimpleSound.obj
 0003:0000d84c       $unwind$?_Allocate@?$_Alloc_construct_ptr@V?$allocator@U?$_Tree_node@U?$pair@QEBDPEAUIDirectSoundBuffer8@@@std@@PEAX@std@@@std@@@std@@QEAAXXZ 000000014004184c     Framework:SimpleSound.obj
 0003:0000d860       $unwind$??1?$_Alloc_construct_ptr@V?$allocator@U?$_Tree_node@U?$pair@QEBDPEAUIDirectSoundBuffer8@@@std@@PEAX@std@@@std@@@std@@QEAA@XZ 0000000140041860     Framework:SimpleSound.obj
 0003:0000d87a       $cppxdata$??1?$_Alloc_construct_ptr@V?$allocator@U?$_Tree_node@U?$pair@QEBDPEAUIDirectSoundBuffer8@@@std@@PEAX@std@@@std@@@std@@QEAA@XZ 000000014004187a     Framework:SimpleSound.obj
 0003:0000d87f       $ip2state$??1?$_Alloc_construct_ptr@V?$allocator@U?$_Tree_node@U?$pair@QEBDPEAUIDirectSoundBuffer8@@@std@@PEAX@std@@@std@@@std@@QEAA@XZ 000000014004187f     Framework:SimpleSound.obj
 0003:0000d884       $unwind$??0?$_Tree_temp_node_alloc@V?$allocator@U?$_Tree_node@U?$pair@QEBDPEAUIDirectSoundBuffer8@@@std@@PEAX@std@@@std@@@std@@QEAA@AEAV?$allocator@U?$_Tree_node@U?$pair@QEBDPEAUIDirectSoundBuffer8@@@std@@PEAX@std@@@1@@Z 0000000140041884     Framework:SimpleSound.obj
 0003:0000d89e       $cppxdata$??0?$_Tree_temp_node_alloc@V?$allocator@U?$_Tree_node@U?$pair@QEBDPEAUIDirectSoundBuffer8@@@std@@PEAX@std@@@std@@@std@@QEAA@AEAV?$allocator@U?$_Tree_node@U?$pair@QEBDPEAUIDirectSoundBuffer8@@@std@@PEAX@std@@@1@@Z 000000014004189e     Framework:SimpleSound.obj
 0003:0000d8a7       $stateUnwindMap$??0?$_Tree_temp_node_alloc@V?$allocator@U?$_Tree_node@U?$pair@QEBDPEAUIDirectSoundBuffer8@@@std@@PEAX@std@@@std@@@std@@QEAA@AEAV?$allocator@U?$_Tree_node@U?$pair@QEBDPEAUIDirectSoundBuffer8@@@std@@PEAX@std@@@1@@Z 00000001400418a7     Framework:SimpleSound.obj
 0003:0000d8ad       $ip2state$??0?$_Tree_temp_node_alloc@V?$allocator@U?$_Tree_node@U?$pair@QEBDPEAUIDirectSoundBuffer8@@@std@@PEAX@std@@@std@@@std@@QEAA@AEAV?$allocator@U?$_Tree_node@U?$pair@QEBDPEAUIDirectSoundBuffer8@@@std@@PEAX@std@@@1@@Z 00000001400418ad     Framework:SimpleSound.obj
 0003:0000d8b4       $unwind$?dtor$0@?0???0?$_Tree_temp_node_alloc@V?$allocator@U?$_Tree_node@U?$pair@QEBDPEAUIDirectSoundBuffer8@@@std@@PEAX@std@@@std@@@std@@QEAA@AEAV?$allocator@U?$_Tree_node@U?$pair@QEBDPEAUIDirectSoundBuffer8@@@std@@PEAX@std@@@1@@Z@4HA 00000001400418b4     Framework:SimpleSound.obj
 0003:0000d8c4       $unwind$??1?$_Tree_temp_node_alloc@V?$allocator@U?$_Tree_node@U?$pair@QEBDPEAUIDirectSoundBuffer8@@@std@@PEAX@std@@@std@@@std@@QEAA@XZ 00000001400418c4     Framework:SimpleSound.obj
 0003:0000d8d8       $unwind$??1?$_Tree_temp_node@V?$allocator@U?$_Tree_node@U?$pair@QEBDPEAUIDirectSoundBuffer8@@@std@@PEAX@std@@@std@@@std@@QEAA@XZ 00000001400418d8     Framework:SimpleSound.obj
 0003:0000d8f2       $cppxdata$??1?$_Tree_temp_node@V?$allocator@U?$_Tree_node@U?$pair@QEBDPEAUIDirectSoundBuffer8@@@std@@PEAX@std@@@std@@@std@@QEAA@XZ 00000001400418f2     Framework:SimpleSound.obj
 0003:0000d8f7       $ip2state$??1?$_Tree_temp_node@V?$allocator@U?$_Tree_node@U?$pair@QEBDPEAUIDirectSoundBuffer8@@@std@@PEAX@std@@@std@@@std@@QEAA@XZ 00000001400418f7     Framework:SimpleSound.obj
 0003:0000d8fc       $unwind$??$?0AEBUpiecewise_construct_t@std@@V?$tuple@AEBQEBD@1@V?$tuple@$$V@1@@?$_Tree_temp_node@V?$allocator@U?$_Tree_node@U?$pair@QEBDPEAUIDirectSoundBuffer8@@@std@@PEAX@std@@@std@@@std@@QEAA@AEAV?$allocator@U?$_Tree_node@U?$pair@QEBDPEAUIDirectSoundBuffer8@@@std@@PEAX@std@@@1@PEAU?$_Tree_node@U?$pair@QEBDPEAUIDirectSoundBuffer8@@@std@@PEAX@1@AEBUpiecewise_construct_t@1@$$QEAV?$tuple@AEBQEBD@1@$$QEAV?$tuple@$$V@1@@Z 00000001400418fc     Framework:SimpleSound.obj
 0003:0000d916       $cppxdata$??$?0AEBUpiecewise_construct_t@std@@V?$tuple@AEBQEBD@1@V?$tuple@$$V@1@@?$_Tree_temp_node@V?$allocator@U?$_Tree_node@U?$pair@QEBDPEAUIDirectSoundBuffer8@@@std@@PEAX@std@@@std@@@std@@QEAA@AEAV?$allocator@U?$_Tree_node@U?$pair@QEBDPEAUIDirectSoundBuffer8@@@std@@PEAX@std@@@1@PEAU?$_Tree_node@U?$pair@QEBDPEAUIDirectSoundBuffer8@@@std@@PEAX@1@AEBUpiecewise_construct_t@1@$$QEAV?$tuple@AEBQEBD@1@$$QEAV?$tuple@$$V@1@@Z 0000000140041916     Framework:SimpleSound.obj
 0003:0000d91f       $stateUnwindMap$??$?0AEBUpiecewise_construct_t@std@@V?$tuple@AEBQEBD@1@V?$tuple@$$V@1@@?$_Tree_temp_node@V?$allocator@U?$_Tree_node@U?$pair@QEBDPEAUIDirectSoundBuffer8@@@std@@PEAX@std@@@std@@@std@@QEAA@AEAV?$allocator@U?$_Tree_node@U?$pair@QEBDPEAUIDirectSoundBuffer8@@@std@@PEAX@std@@@1@PEAU?$_Tree_node@U?$pair@QEBDPEAUIDirectSoundBuffer8@@@std@@PEAX@1@AEBUpiecewise_construct_t@1@$$QEAV?$tuple@AEBQEBD@1@$$QEAV?$tuple@$$V@1@@Z 000000014004191f     Framework:SimpleSound.obj
 0003:0000d925       $ip2state$??$?0AEBUpiecewise_construct_t@std@@V?$tuple@AEBQEBD@1@V?$tuple@$$V@1@@?$_Tree_temp_node@V?$allocator@U?$_Tree_node@U?$pair@QEBDPEAUIDirectSoundBuffer8@@@std@@PEAX@std@@@std@@@std@@QEAA@AEAV?$allocator@U?$_Tree_node@U?$pair@QEBDPEAUIDirectSoundBuffer8@@@std@@PEAX@std@@@1@PEAU?$_Tree_node@U?$pair@QEBDPEAUIDirectSoundBuffer8@@@std@@PEAX@1@AEBUpiecewise_construct_t@1@$$QEAV?$tuple@AEBQEBD@1@$$QEAV?$tuple@$$V@1@@Z 0000000140041925     Framework:SimpleSound.obj
 0003:0000d930       $unwind$?dtor$0@?0???$?0AEBUpiecewise_construct_t@std@@V?$tuple@AEBQEBD@1@V?$tuple@$$V@1@@?$_Tree_temp_node@V?$allocator@U?$_Tree_node@U?$pair@QEBDPEAUIDirectSoundBuffer8@@@std@@PEAX@std@@@std@@@std@@QEAA@AEAV?$allocator@U?$_Tree_node@U?$pair@QEBDPEAUIDirectSoundBuffer8@@@std@@PEAX@std@@@1@PEAU?$_Tree_node@U?$pair@QEBDPEAUIDirectSoundBuffer8@@@std@@PEAX@1@AEBUpiecewise_construct_t@1@$$QEAV?$tuple@AEBQEBD@1@$$QEAV?$tuple@$$V@1@@Z@4HA 0000000140041930     Framework:SimpleSound.obj
 0003:0000d940       $unwind$??$?0PEAU?$_Tree_node@U?$pair@QEBDPEAUIDirectSoundBuffer8@@@std@@PEAX@std@@_N$0A@@?$pair@PEAU?$_Tree_node@U?$pair@QEBDPEAUIDirectSoundBuffer8@@@std@@PEAX@std@@_N@std@@QEAA@$$QEAPEAU?$_Tree_node@U?$pair@QEBDPEAUIDirectSoundBuffer8@@@std@@PEAX@1@$$QEA_N@Z 0000000140041940     Framework:SimpleSound.obj
 0003:0000d95a       $cppxdata$??$?0PEAU?$_Tree_node@U?$pair@QEBDPEAUIDirectSoundBuffer8@@@std@@PEAX@std@@_N$0A@@?$pair@PEAU?$_Tree_node@U?$pair@QEBDPEAUIDirectSoundBuffer8@@@std@@PEAX@std@@_N@std@@QEAA@$$QEAPEAU?$_Tree_node@U?$pair@QEBDPEAUIDirectSoundBuffer8@@@std@@PEAX@1@$$QEA_N@Z 000000014004195a     Framework:SimpleSound.obj
 0003:0000d95f       $ip2state$??$?0PEAU?$_Tree_node@U?$pair@QEBDPEAUIDirectSoundBuffer8@@@std@@PEAX@std@@_N$0A@@?$pair@PEAU?$_Tree_node@U?$pair@QEBDPEAUIDirectSoundBuffer8@@@std@@PEAX@std@@_N@std@@QEAA@$$QEAPEAU?$_Tree_node@U?$pair@QEBDPEAUIDirectSoundBuffer8@@@std@@PEAX@1@$$QEA_N@Z 000000014004195f     Framework:SimpleSound.obj
 0003:0000d964       $unwind$??$exchange@PEAU?$_Tree_node@U?$pair@QEBDPEAUIDirectSoundBuffer8@@@std@@PEAX@std@@AEAPEAU12@@std@@YAPEAU?$_Tree_node@U?$pair@QEBDPEAUIDirectSoundBuffer8@@@std@@PEAX@0@AEAPEAU10@0@Z 0000000140041964     Framework:SimpleSound.obj
 0003:0000d978       $unwind$??$_Freenode@V?$allocator@U?$_Tree_node@U?$pair@QEBDPEAUIDirectSoundBuffer8@@@std@@PEAX@std@@@std@@@?$_Tree_node@U?$pair@QEBDPEAUIDirectSoundBuffer8@@@std@@PEAX@std@@SAXAEAV?$allocator@U?$_Tree_node@U?$pair@QEBDPEAUIDirectSoundBuffer8@@@std@@PEAX@std@@@1@PEAU01@@Z 0000000140041978     Framework:SimpleSound.obj
 0003:0000d992       $cppxdata$??$_Freenode@V?$allocator@U?$_Tree_node@U?$pair@QEBDPEAUIDirectSoundBuffer8@@@std@@PEAX@std@@@std@@@?$_Tree_node@U?$pair@QEBDPEAUIDirectSoundBuffer8@@@std@@PEAX@std@@SAXAEAV?$allocator@U?$_Tree_node@U?$pair@QEBDPEAUIDirectSoundBuffer8@@@std@@PEAX@std@@@1@PEAU01@@Z 0000000140041992     Framework:SimpleSound.obj
 0003:0000d997       $ip2state$??$_Freenode@V?$allocator@U?$_Tree_node@U?$pair@QEBDPEAUIDirectSoundBuffer8@@@std@@PEAX@std@@@std@@@?$_Tree_node@U?$pair@QEBDPEAUIDirectSoundBuffer8@@@std@@PEAX@std@@SAXAEAV?$allocator@U?$_Tree_node@U?$pair@QEBDPEAUIDirectSoundBuffer8@@@std@@PEAX@std@@@1@PEAU01@@Z 0000000140041997     Framework:SimpleSound.obj
 0003:0000d99c       $unwind$??$_Freenode0@V?$allocator@U?$_Tree_node@U?$pair@QEBDPEAUIDirectSoundBuffer8@@@std@@PEAX@std@@@std@@@?$_Tree_node@U?$pair@QEBDPEAUIDirectSoundBuffer8@@@std@@PEAX@std@@SAXAEAV?$allocator@U?$_Tree_node@U?$pair@QEBDPEAUIDirectSoundBuffer8@@@std@@PEAX@std@@@1@PEAU01@@Z 000000014004199c     Framework:SimpleSound.obj
 0003:0000d9b6       $cppxdata$??$_Freenode0@V?$allocator@U?$_Tree_node@U?$pair@QEBDPEAUIDirectSoundBuffer8@@@std@@PEAX@std@@@std@@@?$_Tree_node@U?$pair@QEBDPEAUIDirectSoundBuffer8@@@std@@PEAX@std@@SAXAEAV?$allocator@U?$_Tree_node@U?$pair@QEBDPEAUIDirectSoundBuffer8@@@std@@PEAX@std@@@1@PEAU01@@Z 00000001400419b6     Framework:SimpleSound.obj
 0003:0000d9bb       $ip2state$??$_Freenode0@V?$allocator@U?$_Tree_node@U?$pair@QEBDPEAUIDirectSoundBuffer8@@@std@@PEAX@std@@@std@@@?$_Tree_node@U?$pair@QEBDPEAUIDirectSoundBuffer8@@@std@@PEAX@std@@SAXAEAV?$allocator@U?$_Tree_node@U?$pair@QEBDPEAUIDirectSoundBuffer8@@@std@@PEAX@std@@@1@PEAU01@@Z 00000001400419bb     Framework:SimpleSound.obj
 0003:0000d9c0       $unwind$??$_Construct_in_place@PEAU?$_Tree_node@U?$pair@QEBDPEAUIDirectSoundBuffer8@@@std@@PEAX@std@@AEBQEAU12@@std@@YAXAEAPEAU?$_Tree_node@U?$pair@QEBDPEAUIDirectSoundBuffer8@@@std@@PEAX@0@AEBQEAU10@@Z 00000001400419c0     Framework:SimpleSound.obj
 0003:0000d9da       $cppxdata$??$_Construct_in_place@PEAU?$_Tree_node@U?$pair@QEBDPEAUIDirectSoundBuffer8@@@std@@PEAX@std@@AEBQEAU12@@std@@YAXAEAPEAU?$_Tree_node@U?$pair@QEBDPEAUIDirectSoundBuffer8@@@std@@PEAX@0@AEBQEAU10@@Z 00000001400419da     Framework:SimpleSound.obj
 0003:0000d9df       $ip2state$??$_Construct_in_place@PEAU?$_Tree_node@U?$pair@QEBDPEAUIDirectSoundBuffer8@@@std@@PEAX@std@@AEBQEAU12@@std@@YAXAEAPEAU?$_Tree_node@U?$pair@QEBDPEAUIDirectSoundBuffer8@@@std@@PEAX@0@AEBQEAU10@@Z 00000001400419df     Framework:SimpleSound.obj
 0003:0000d9e4       $unwind$??$_Destroy_in_place@PEAU?$_Tree_node@U?$pair@QEBDPEAUIDirectSoundBuffer8@@@std@@PEAX@std@@@std@@YAXAEAPEAU?$_Tree_node@U?$pair@QEBDPEAUIDirectSoundBuffer8@@@std@@PEAX@0@@Z 00000001400419e4     Framework:SimpleSound.obj
 0003:0000d9fe       $cppxdata$??$_Destroy_in_place@PEAU?$_Tree_node@U?$pair@QEBDPEAUIDirectSoundBuffer8@@@std@@PEAX@std@@@std@@YAXAEAPEAU?$_Tree_node@U?$pair@QEBDPEAUIDirectSoundBuffer8@@@std@@PEAX@0@@Z 00000001400419fe     Framework:SimpleSound.obj
